
000000 000003 000004 50 4B 03 04 LOCAL HEADER #1       04034B50
000004 000004 000001 14          Extract Zip Spec      14 '2.0'
000005 000005 000001 00          Extract OS            00 'MS-DOS'
000006 000007 000002 00 00       General Purpose Flag  0000
                                 [Bits 1-2]            0 'Normal Compression'
000008 000009 000002 08 00       Compression Method    0008 'Deflated'
00000A 00000D 000004 20 AD F7 34 Last Mod Time         34F7AD20 'Sun Jul 23 21:41:00 2006'
00000E 000011 000004 31 75 01 4B CRC                   4B017531
000012 000015 000004 50 01 00 00 Compressed Length     00000150
000016 000019 000004 EE 01 00 00 Uncompressed Length   000001EE
00001A 00001B 000002 17 00       Filename Length       0017
00001C 00001D 000002 83 00       Extra Length          0083
00001E 000034 000017 7A 69 70 2F Filename              'zip/freeware_readme.txt'
                     66 72 65 65
                     77 61 72 65
                     5F 72 65 61
                     64 6D 65 2E
                     74 78 74
000035 000036 000002 0C 00       Extra ID #0001        000C 'OpenVMS'
000037 000038 000002 7F 00         Length              007F
000039 00003C 000004 44 E7 17 04   CRC                 0417E744
00003D 00003E 000002 04 00         Tag# 0001           0004 'ATR$C_RECATTR'
00003F 000040 000002 20 00           Size              0020
000041 000060 000020 02 02 47 00     Attribute         02 02 47 00 00 00 08 00 00 00 01 00
                     00 00 08 00                       EE 01 00 00 00 00 00 00 00 00 00 00
                     00 00 01 00                       00 00 00 00 00 00 00 00
                     EE 01 00 00
                     00 00 00 00
                     00 00 00 00
                     00 00 00 00
                     00 00 00 00
000061 000062 000002 03 00         Tag# 0002           0003 'ATR$C_UCHAR'
000063 000064 000002 04 00           Size              0004
000065 000068 000004 00 00 00 00     Attribute         00000000
000069 00006A 000002 11 00         Tag# 0003           0011 'ATR$C_CREDATE'
00006B 00006C 000002 08 00           Size              0008
00006D 000074 000008 8F FC F0 26     Attribute         00A5922926F0FC8F 'Sun Jul 23 21:40:59
                     29 92 A5 00                       2006 650017500ns'
000075 000076 000002 12 00         Tag# 0004           0012 'ATR$C_REVDATE'
000077 000078 000002 08 00           Size              0008
000079 000080 000008 E1 45 11 CF     Attribute         00A59D9BCF1145E1 'Mon Aug  7 11:19:27
                     9B 9D A5 00                       2006 136566500ns'
000081 000082 000002 13 00         Tag# 0005           0013 'ATR$C_EXPDATE'
000083 000084 000002 08 00           Size              0008
000085 00008C 000008 00 00 00 00     Attribute         0000000000000000 'No Date Time'
                     00 00 00 00
00008D 00008E 000002 14 00         Tag# 0006           0014 'ATR$C_BAKDATE'
00008F 000090 000002 08 00           Size              0008
000091 000098 000008 00 00 00 00     Attribute         0000000000000000 'No Date Time'
                     00 00 00 00
000099 00009A 000002 0D 00         Tag# 0007           000D 'ATR$C_ASCDATES'
00009B 00009C 000002 02 00           Size              0002
00009D 00009E 000002 0C 00           Attribute         000C'Revision Count 000C'
00009F 0000A0 000002 15 00         Tag# 0008           0015 'ATR$C_UIC'
0000A1 0000A2 000002 04 00           Size              0004
0000A3 0000A6 000004 04 00 01 00     Attribute         00010004
0000A7 0000A8 000002 16 00         Tag# 0009           0016 'ATR$C_FPRO'
0000A9 0000AA 000002 02 00           Size              0002
0000AB 0000AC 000002 AA AA           Attribute         AA AA
0000AD 0000AE 000002 17 00         Tag# 000A           0017 'ATR$C_RPRO'
0000AF 0000B0 000002 02 00           Size              0002
0000B1 0000B2 000002 00 00           Attribute         0000
0000B3 0000B4 000002 1D 00         Tag# 000B           001D 'ATR$C_JOURNAL'
0000B5 0000B6 000002 01 00           Size              0001
0000B7 0000B7 000001 00              Attribute         00
0000B8 000207 000150 ...         PAYLOAD

000208 00020B 000004 50 4B 03 04 LOCAL HEADER #2       04034B50
00020C 00020C 000001 14          Extract Zip Spec      14 '2.0'
00020D 00020D 000001 00          Extract OS            00 'MS-DOS'
00020E 00020F 000002 00 00       General Purpose Flag  0000
                                 [Bits 1-2]            0 'Normal Compression'
000210 000211 000002 08 00       Compression Method    0008 'Deflated'
000212 000215 000004 B8 50 F2 34 Last Mod Time         34F250B8 'Tue Jul 18 10:05:48 2006'
000216 000219 000004 47 02 3B 98 CRC                   983B0247
00021A 00021D 000004 A6 EB 00 00 Compressed Length     0000EBA6
00021E 000221 000004 00 B8 01 00 Uncompressed Length   0001B800
000222 000223 000002 0F 00       Filename Length       000F
000224 000225 000002 83 00       Extra Length          0083
000226 000234 00000F 7A 69 70 2F Filename              'zip/zip.axp_exe'
                     7A 69 70 2E
                     61 78 70 5F
                     65 78 65
000235 000236 000002 0C 00       Extra ID #0001        000C 'OpenVMS'
000237 000238 000002 7F 00         Length              007F
000239 00023C 000004 DF 12 58 78   CRC                 785812DF
00023D 00023E 000002 04 00         Tag# 0001           0004 'ATR$C_RECATTR'
00023F 000240 000002 20 00           Size              0020
000241 000260 000020 01 00 00 02     Attribute         01 00 00 02 00 00 E0 00 00 00 DD 00
                     00 00 E0 00                       00 00 00 00 00 02 00 00 00 00 00 00
                     00 00 DD 00                       00 00 00 00 00 00 00 00
                     00 00 00 00
                     00 02 00 00
                     00 00 00 00
                     00 00 00 00
                     00 00 00 00
000261 000262 000002 03 00         Tag# 0002           0003 'ATR$C_UCHAR'
000263 000264 000002 04 00           Size              0004
000265 000268 000004 20 00 00 00     Attribute         00000020
                                       [Bit 5]         FCH$M_CONTIGB
000269 00026A 000002 11 00         Tag# 0003           0011 'ATR$C_CREDATE'
00026B 00026C 000002 08 00           Size              0008
00026D 000274 000008 C7 2C 55 34     Attribute         00A58DDA34552CC7 'Tue Jul 18 10:05:47
                     DA 8D A5 00                       2006 224243900ns'
000275 000276 000002 12 00         Tag# 0004           0012 'ATR$C_REVDATE'
000277 000278 000002 08 00           Size              0008
000279 000280 000008 08 D5 1E CF     Attribute         00A59D9BCF1ED508 'Mon Aug  7 11:19:27
                     9B 9D A5 00                       2006 225428000ns'
000281 000282 000002 13 00         Tag# 0005           0013 'ATR$C_EXPDATE'
000283 000284 000002 08 00           Size              0008
000285 00028C 000008 00 00 00 00     Attribute         0000000000000000 'No Date Time'
                     00 00 00 00
00028D 00028E 000002 14 00         Tag# 0006           0014 'ATR$C_BAKDATE'
00028F 000290 000002 08 00           Size              0008
000291 000298 000008 00 00 00 00     Attribute         0000000000000000 'No Date Time'
                     00 00 00 00
000299 00029A 000002 0D 00         Tag# 0007           000D 'ATR$C_ASCDATES'
00029B 00029C 000002 02 00           Size              0002
00029D 00029E 000002 0D 00           Attribute         000D'Revision Count 000D'
00029F 0002A0 000002 15 00         Tag# 0008           0015 'ATR$C_UIC'
0002A1 0002A2 000002 04 00           Size              0004
0002A3 0002A6 000004 04 00 01 00     Attribute         00010004
0002A7 0002A8 000002 16 00         Tag# 0009           0016 'ATR$C_FPRO'
0002A9 0002AA 000002 02 00           Size              0002
0002AB 0002AC 000002 AA AA           Attribute         AA AA
0002AD 0002AE 000002 17 00         Tag# 000A           0017 'ATR$C_RPRO'
0002AF 0002B0 000002 02 00           Size              0002
0002B1 0002B2 000002 00 00           Attribute         0000
0002B3 0002B4 000002 1D 00         Tag# 000B           001D 'ATR$C_JOURNAL'
0002B5 0002B6 000002 01 00           Size              0001
0002B7 0002B7 000001 00              Attribute         00
0002B8 00EE5D 00EBA6 ...         PAYLOAD

00EE5E 00EE61 000004 50 4B 03 04 LOCAL HEADER #3       04034B50
00EE62 00EE62 000001 14          Extract Zip Spec      14 '2.0'
00EE63 00EE63 000001 00          Extract OS            00 'MS-DOS'
00EE64 00EE65 000002 00 00       General Purpose Flag  0000
                                 [Bits 1-2]            0 'Normal Compression'
00EE66 00EE67 000002 08 00       Compression Method    0008 'Deflated'
00EE68 00EE6B 000004 BD 49 F2 34 Last Mod Time         34F249BD 'Tue Jul 18 09:13:58 2006'
00EE6C 00EE6F 000004 70 F8 4B 10 CRC                   104BF870
00EE70 00EE73 000004 3B 57 01 00 Compressed Length     0001573B
00EE74 00EE77 000004 00 30 04 00 Uncompressed Length   00043000
00EE78 00EE79 000002 0F 00       Filename Length       000F
00EE7A 00EE7B 000002 83 00       Extra Length          0083
00EE7C 00EE8A 00000F 7A 69 70 2F Filename              'zip/zip.i64_exe'
                     7A 69 70 2E
                     69 36 34 5F
                     65 78 65
00EE8B 00EE8C 000002 0C 00       Extra ID #0001        000C 'OpenVMS'
00EE8D 00EE8E 000002 7F 00         Length              007F
00EE8F 00EE92 000004 78 C7 37 FB   CRC                 FB37C778
00EE93 00EE94 000002 04 00         Tag# 0001           0004 'ATR$C_RECATTR'
00EE95 00EE96 000002 20 00           Size              0020
00EE97 00EEB6 000020 01 00 00 02     Attribute         01 00 00 02 00 00 20 02 00 00 19 02
                     00 00 20 02                       00 00 00 00 00 02 00 00 00 00 00 00
                     00 00 19 02                       00 00 00 00 00 00 00 00
                     00 00 00 00
                     00 02 00 00
                     00 00 00 00
                     00 00 00 00
                     00 00 00 00
00EEB7 00EEB8 000002 03 00         Tag# 0002           0003 'ATR$C_UCHAR'
00EEB9 00EEBA 000002 04 00           Size              0004
00EEBB 00EEBE 000004 20 00 00 00     Attribute         00000020
                                       [Bit 5]         FCH$M_CONTIGB
00EEBF 00EEC0 000002 11 00         Tag# 0003           0011 'ATR$C_CREDATE'
00EEC1 00EEC2 000002 08 00           Size              0008
00EEC3 00EECA 000008 30 CC D8 F6     Attribute         00A58DD2F6D8CC30 'Tue Jul 18 09:13:57
                     D2 8D A5 00                       2006 591000000ns'
00EECB 00EECC 000002 12 00         Tag# 0004           0012 'ATR$C_REVDATE'
00EECD 00EECE 000002 08 00           Size              0008
00EECF 00EED6 000008 76 A5 2B CF     Attribute         00A59D9BCF2BA576 'Mon Aug  7 11:19:27
                     9B 9D A5 00                       2006 309407000ns'
00EED7 00EED8 000002 13 00         Tag# 0005           0013 'ATR$C_EXPDATE'
00EED9 00EEDA 000002 08 00           Size              0008
00EEDB 00EEE2 000008 00 00 00 00     Attribute         0000000000000000 'No Date Time'
                     00 00 00 00
00EEE3 00EEE4 000002 14 00         Tag# 0006           0014 'ATR$C_BAKDATE'
00EEE5 00EEE6 000002 08 00           Size              0008
00EEE7 00EEEE 000008 00 00 00 00     Attribute         0000000000000000 'No Date Time'
                     00 00 00 00
00EEEF 00EEF0 000002 0D 00         Tag# 0007           000D 'ATR$C_ASCDATES'
00EEF1 00EEF2 000002 02 00           Size              0002
00EEF3 00EEF4 000002 0E 00           Attribute         000E'Revision Count 000E'
00EEF5 00EEF6 000002 15 00         Tag# 0008           0015 'ATR$C_UIC'
00EEF7 00EEF8 000002 04 00           Size              0004
00EEF9 00EEFC 000004 04 00 01 00     Attribute         00010004
00EEFD 00EEFE 000002 16 00         Tag# 0009           0016 'ATR$C_FPRO'
00EEFF 00EF00 000002 02 00           Size              0002
00EF01 00EF02 000002 AA AA           Attribute         AA AA
00EF03 00EF04 000002 17 00         Tag# 000A           0017 'ATR$C_RPRO'
00EF05 00EF06 000002 02 00           Size              0002
00EF07 00EF08 000002 00 00           Attribute         0000
00EF09 00EF0A 000002 1D 00         Tag# 000B           001D 'ATR$C_JOURNAL'
00EF0B 00EF0C 000002 01 00           Size              0001
00EF0D 00EF0D 000001 00              Attribute         00
00EF0E 024648 01573B ...         PAYLOAD

024649 02464C 000004 50 4B 03 04 LOCAL HEADER #4       04034B50
02464D 02464D 000001 14          Extract Zip Spec      14 '2.0'
02464E 02464E 000001 00          Extract OS            00 'MS-DOS'
02464F 024650 000002 00 00       General Purpose Flag  0000
                                 [Bits 1-2]            0 'Normal Compression'
024651 024652 000002 08 00       Compression Method    0008 'Deflated'
024653 024656 000004 D0 50 F2 34 Last Mod Time         34F250D0 'Tue Jul 18 10:06:32 2006'
024657 02465A 000004 84 08 25 23 CRC                   23250884
02465B 02465E 000004 7E 86 00 00 Compressed Length     0000867E
02465F 024662 000004 00 12 01 00 Uncompressed Length   00011200
024663 024664 000002 14 00       Filename Length       0014
024665 024666 000002 83 00       Extra Length          0083
024667 02467A 000014 7A 69 70 2F Filename              'zip/zip.vax_vaxc_exe'
                     7A 69 70 2E
                     76 61 78 5F
                     76 61 78 63
                     5F 65 78 65
02467B 02467C 000002 0C 00       Extra ID #0001        000C 'OpenVMS'
02467D 02467E 000002 7F 00         Length              007F
02467F 024682 000004 A4 91 66 29   CRC                 296691A4
024683 024684 000002 04 00         Tag# 0001           0004 'ATR$C_RECATTR'
024685 024686 000002 20 00           Size              0020
024687 0246A6 000020 01 00 00 02     Attribute         01 00 00 02 00 00 90 00 00 00 8A 00
                     00 00 90 00                       00 00 00 00 00 02 00 00 00 00 00 00
                     00 00 8A 00                       00 00 00 00 00 00 00 00
                     00 00 00 00
                     00 02 00 00
                     00 00 00 00
                     00 00 00 00
                     00 00 00 00
0246A7 0246A8 000002 03 00         Tag# 0002           0003 'ATR$C_UCHAR'
0246A9 0246AA 000002 04 00           Size              0004
0246AB 0246AE 000004 20 00 00 00     Attribute         00000020
                                       [Bit 5]         FCH$M_CONTIGB
0246AF 0246B0 000002 11 00         Tag# 0003           0011 'ATR$C_CREDATE'
0246B1 0246B2 000002 08 00           Size              0008
0246B3 0246BA 000008 F7 75 4B 4E     Attribute         00A58DDA4E4B75F7 'Tue Jul 18 10:06:30
                     DA 8D A5 00                       2006 781343100ns'
0246BB 0246BC 000002 12 00         Tag# 0004           0012 'ATR$C_REVDATE'
0246BD 0246BE 000002 08 00           Size              0008
0246BF 0246C6 000008 97 1E 37 CF     Attribute         00A59D9BCF371E97 'Mon Aug  7 11:19:27
                     9B 9D A5 00                       2006 384597500ns'
0246C7 0246C8 000002 13 00         Tag# 0005           0013 'ATR$C_EXPDATE'
0246C9 0246CA 000002 08 00           Size              0008
0246CB 0246D2 000008 00 00 00 00     Attribute         0000000000000000 'No Date Time'
                     00 00 00 00
0246D3 0246D4 000002 14 00         Tag# 0006           0014 'ATR$C_BAKDATE'
0246D5 0246D6 000002 08 00           Size              0008
0246D7 0246DE 000008 00 00 00 00     Attribute         0000000000000000 'No Date Time'
                     00 00 00 00
0246DF 0246E0 000002 0D 00         Tag# 0007           000D 'ATR$C_ASCDATES'
0246E1 0246E2 000002 02 00           Size              0002
0246E3 0246E4 000002 0D 00           Attribute         000D'Revision Count 000D'
0246E5 0246E6 000002 15 00         Tag# 0008           0015 'ATR$C_UIC'
0246E7 0246E8 000002 04 00           Size              0004
0246E9 0246EC 000004 04 00 01 00     Attribute         00010004
0246ED 0246EE 000002 16 00         Tag# 0009           0016 'ATR$C_FPRO'
0246EF 0246F0 000002 02 00           Size              0002
0246F1 0246F2 000002 AA AA           Attribute         AA AA
0246F3 0246F4 000002 17 00         Tag# 000A           0017 'ATR$C_RPRO'
0246F5 0246F6 000002 02 00           Size              0002
0246F7 0246F8 000002 00 00           Attribute         0000
0246F9 0246FA 000002 1D 00         Tag# 000B           001D 'ATR$C_JOURNAL'
0246FB 0246FC 000002 01 00           Size              0001
0246FD 0246FD 000001 00              Attribute         00
0246FE 02CD7B 00867E ...         PAYLOAD

02CD7C 02CD7F 000004 50 4B 03 04 LOCAL HEADER #5       04034B50
02CD80 02CD80 000001 0A          Extract Zip Spec      0A '1.0'
02CD81 02CD81 000001 00          Extract OS            00 'MS-DOS'
02CD82 02CD83 000002 00 00       General Purpose Flag  0000
02CD84 02CD85 000002 00 00       Compression Method    0000 'Stored'
02CD86 02CD89 000004 C3 70 EF 34 Last Mod Time         34EF70C3 'Sat Jul 15 14:06:06 2006'
02CD8A 02CD8D 000004 79 5E D8 E2 CRC                   E2D85E79
02CD8E 02CD91 000004 A0 CA 1E 00 Compressed Length     001ECAA0
02CD92 02CD95 000004 A0 CA 1E 00 Uncompressed Length   001ECAA0
02CD96 02CD97 000002 0B 00       Filename Length       000B
02CD98 02CD99 000002 83 00       Extra Length          0083
02CD9A 02CDA4 00000B 7A 69 70 2F Filename              'zip/zip.zip'
                     7A 69 70 2E
                     7A 69 70
02CDA5 02CDA6 000002 0C 00       Extra ID #0001        000C 'OpenVMS'
02CDA7 02CDA8 000002 7F 00         Length              007F
02CDA9 02CDAC 000004 77 32 76 99   CRC                 99763277
02CDAD 02CDAE 000002 04 00         Tag# 0001           0004 'ATR$C_RECATTR'
02CDAF 02CDB0 000002 20 00           Size              0020
02CDB1 02CDD0 000020 05 02 00 00     Attribute         05 02 00 00 00 00 70 0F 00 00 66 0F
                     00 00 70 0F                       A0 00 00 00 00 00 00 00 00 00 00 00
                     00 00 66 0F                       00 00 00 00 00 00 00 00
                     A0 00 00 00
                     00 00 00 00
                     00 00 00 00
                     00 00 00 00
                     00 00 00 00
02CDD1 02CDD2 000002 03 00         Tag# 0002           0003 'ATR$C_UCHAR'
02CDD3 02CDD4 000002 04 00           Size              0004
02CDD5 02CDD8 000004 00 00 00 00     Attribute         00000000
02CDD9 02CDDA 000002 11 00         Tag# 0003           0011 'ATR$C_CREDATE'
02CDDB 02CDDC 000002 08 00           Size              0008
02CDDD 02CDE4 000008 00 1B 08 47     Attribute         00A58BA047081B00 'Sat Jul 15 14:06:05
                     A0 8B A5 00                       2006 460000000ns'
02CDE5 02CDE6 000002 12 00         Tag# 0004           0012 'ATR$C_REVDATE'
02CDE7 02CDE8 000002 08 00           Size              0008
02CDE9 02CDF0 000008 E0 C8 43 CF     Attribute         00A59D9BCF43C8E0 'Mon Aug  7 11:19:27
                     9B 9D A5 00                       2006 467600000ns'
02CDF1 02CDF2 000002 13 00         Tag# 0005           0013 'ATR$C_EXPDATE'
02CDF3 02CDF4 000002 08 00           Size              0008
02CDF5 02CDFC 000008 00 00 00 00     Attribute         0000000000000000 'No Date Time'
                     00 00 00 00
02CDFD 02CDFE 000002 14 00         Tag# 0006           0014 'ATR$C_BAKDATE'
02CDFF 02CE00 000002 08 00           Size              0008
02CE01 02CE08 000008 00 00 00 00     Attribute         0000000000000000 'No Date Time'
                     00 00 00 00
02CE09 02CE0A 000002 0D 00         Tag# 0007           000D 'ATR$C_ASCDATES'
02CE0B 02CE0C 000002 02 00           Size              0002
02CE0D 02CE0E 000002 0C 00           Attribute         000C'Revision Count 000C'
02CE0F 02CE10 000002 15 00         Tag# 0008           0015 'ATR$C_UIC'
02CE11 02CE12 000002 04 00           Size              0004
02CE13 02CE16 000004 04 00 01 00     Attribute         00010004
02CE17 02CE18 000002 16 00         Tag# 0009           0016 'ATR$C_FPRO'
02CE19 02CE1A 000002 02 00           Size              0002
02CE1B 02CE1C 000002 AA AA           Attribute         AA AA
02CE1D 02CE1E 000002 17 00         Tag# 000A           0017 'ATR$C_RPRO'
02CE1F 02CE20 000002 02 00           Size              0002
02CE21 02CE22 000002 00 00           Attribute         0000
02CE23 02CE24 000002 1D 00         Tag# 000B           001D 'ATR$C_JOURNAL'
02CE25 02CE26 000002 01 00           Size              0001
02CE27 02CE27 000001 00              Attribute         00
02CE28 2198C7 1ECAA0 ...         PAYLOAD

2198C8 2198CB 000004 50 4B 03 04 LOCAL HEADER #6       04034B50
2198CC 2198CC 000001 14          Extract Zip Spec      14 '2.0'
2198CD 2198CD 000001 00          Extract OS            00 'MS-DOS'
2198CE 2198CF 000002 00 00       General Purpose Flag  0000
                                 [Bits 1-2]            0 'Normal Compression'
2198D0 2198D1 000002 08 00       Compression Method    0008 'Deflated'
2198D2 2198D5 000004 B8 50 F2 34 Last Mod Time         34F250B8 'Tue Jul 18 10:05:48 2006'
2198D6 2198D9 000004 7C CF 6E 33 CRC                   336ECF7C
2198DA 2198DD 000004 30 55 00 00 Compressed Length     00005530
2198DE 2198E1 000004 00 AA 00 00 Uncompressed Length   0000AA00
2198E2 2198E3 000002 14 00       Filename Length       0014
2198E4 2198E5 000002 83 00       Extra Length          0083
2198E6 2198F9 000014 7A 69 70 2F Filename              'zip/zipcloak.axp_exe'
                     7A 69 70 63
                     6C 6F 61 6B
                     2E 61 78 70
                     5F 65 78 65
2198FA 2198FB 000002 0C 00       Extra ID #0001        000C 'OpenVMS'
2198FC 2198FD 000002 7F 00         Length              007F
2198FE 219901 000004 BB 76 07 35   CRC                 350776BB
219902 219903 000002 04 00         Tag# 0001           0004 'ATR$C_RECATTR'
219904 219905 000002 20 00           Size              0020
219906 219925 000020 01 00 00 02     Attribute         01 00 00 02 00 00 60 00 00 00 56 00
                     00 00 60 00                       00 00 00 00 00 02 00 00 00 00 00 00
                     00 00 56 00                       00 00 00 00 00 00 00 00
                     00 00 00 00
                     00 02 00 00
                     00 00 00 00
                     00 00 00 00
                     00 00 00 00
219926 219927 000002 03 00         Tag# 0002           0003 'ATR$C_UCHAR'
219928 219929 000002 04 00           Size              0004
21992A 21992D 000004 20 00 00 00     Attribute         00000020
                                       [Bit 5]         FCH$M_CONTIGB
21992E 21992F 000002 11 00         Tag# 0003           0011 'ATR$C_CREDATE'
219930 219931 000002 08 00           Size              0008
219932 219939 000008 63 9B 77 34     Attribute         00A58DDA34779B63 'Tue Jul 18 10:05:47
                     DA 8D A5 00                       2006 449897900ns'
21993A 21993B 000002 12 00         Tag# 0004           0012 'ATR$C_REVDATE'
21993C 21993D 000002 08 00           Size              0008
21993E 219945 000008 29 73 50 CF     Attribute         00A59D9BCF507329 'Mon Aug  7 11:19:27
                     9B 9D A5 00                       2006 550602500ns'
219946 219947 000002 13 00         Tag# 0005           0013 'ATR$C_EXPDATE'
219948 219949 000002 08 00           Size              0008
21994A 219951 000008 00 00 00 00     Attribute         0000000000000000 'No Date Time'
                     00 00 00 00
219952 219953 000002 14 00         Tag# 0006           0014 'ATR$C_BAKDATE'
219954 219955 000002 08 00           Size              0008
219956 21995D 000008 00 00 00 00     Attribute         0000000000000000 'No Date Time'
                     00 00 00 00
21995E 21995F 000002 0D 00         Tag# 0007           000D 'ATR$C_ASCDATES'
219960 219961 000002 02 00           Size              0002
219962 219963 000002 0D 00           Attribute         000D'Revision Count 000D'
219964 219965 000002 15 00         Tag# 0008           0015 'ATR$C_UIC'
219966 219967 000002 04 00           Size              0004
219968 21996B 000004 04 00 01 00     Attribute         00010004
21996C 21996D 000002 16 00         Tag# 0009           0016 'ATR$C_FPRO'
21996E 21996F 000002 02 00           Size              0002
219970 219971 000002 AA AA           Attribute         AA AA
219972 219973 000002 17 00         Tag# 000A           0017 'ATR$C_RPRO'
219974 219975 000002 02 00           Size              0002
219976 219977 000002 00 00           Attribute         0000
219978 219979 000002 1D 00         Tag# 000B           001D 'ATR$C_JOURNAL'
21997A 21997B 000002 01 00           Size              0001
21997C 21997C 000001 00              Attribute         00
21997D 21EEAC 005530 ...         PAYLOAD

21EEAD 21EEB0 000004 50 4B 03 04 LOCAL HEADER #7       04034B50
21EEB1 21EEB1 000001 14          Extract Zip Spec      14 '2.0'
21EEB2 21EEB2 000001 00          Extract OS            00 'MS-DOS'
21EEB3 21EEB4 000002 00 00       General Purpose Flag  0000
                                 [Bits 1-2]            0 'Normal Compression'
21EEB5 21EEB6 000002 08 00       Compression Method    0008 'Deflated'
21EEB7 21EEBA 000004 C0 49 F2 34 Last Mod Time         34F249C0 'Tue Jul 18 09:14:00 2006'
21EEBB 21EEBE 000004 EA 9D AE 18 CRC                   18AE9DEA
21EEBF 21EEC2 000004 E3 81 00 00 Compressed Length     000081E3
21EEC3 21EEC6 000004 00 B2 01 00 Uncompressed Length   0001B200
21EEC7 21EEC8 000002 14 00       Filename Length       0014
21EEC9 21EECA 000002 83 00       Extra Length          0083
21EECB 21EEDE 000014 7A 69 70 2F Filename              'zip/zipcloak.i64_exe'
                     7A 69 70 63
                     6C 6F 61 6B
                     2E 69 36 34
                     5F 65 78 65
21EEDF 21EEE0 000002 0C 00       Extra ID #0001        000C 'OpenVMS'
21EEE1 21EEE2 000002 7F 00         Length              007F
21EEE3 21EEE6 000004 6B C9 C0 42   CRC                 42C0C96B
21EEE7 21EEE8 000002 04 00         Tag# 0001           0004 'ATR$C_RECATTR'
21EEE9 21EEEA 000002 20 00           Size              0020
21EEEB 21EF0A 000020 01 00 00 02     Attribute         01 00 00 02 00 00 E0 00 00 00 DA 00
                     00 00 E0 00                       00 00 00 00 00 02 00 00 00 00 00 00
                     00 00 DA 00                       00 00 00 00 00 00 00 00
                     00 00 00 00
                     00 02 00 00
                     00 00 00 00
                     00 00 00 00
                     00 00 00 00
21EF0B 21EF0C 000002 03 00         Tag# 0002           0003 'ATR$C_UCHAR'
21EF0D 21EF0E 000002 04 00           Size              0004
21EF0F 21EF12 000004 20 00 00 00     Attribute         00000020
                                       [Bit 5]         FCH$M_CONTIGB
21EF13 21EF14 000002 11 00         Tag# 0003           0011 'ATR$C_CREDATE'
21EF15 21EF16 000002 08 00           Size              0008
21EF17 21EF1E 000008 20 9D FD F7     Attribute         00A58DD2F7FD9D20 'Tue Jul 18 09:13:59
                     D2 8D A5 00                       2006 510000000ns'
21EF1F 21EF20 000002 12 00         Tag# 0004           0012 'ATR$C_REVDATE'
21EF21 21EF22 000002 08 00           Size              0008
21EF23 21EF2A 000008 97 43 5D CF     Attribute         00A59D9BCF5D4397 'Mon Aug  7 11:19:27
                     9B 9D A5 00                       2006 634581500ns'
21EF2B 21EF2C 000002 13 00         Tag# 0005           0013 'ATR$C_EXPDATE'
21EF2D 21EF2E 000002 08 00           Size              0008
21EF2F 21EF36 000008 00 00 00 00     Attribute         0000000000000000 'No Date Time'
                     00 00 00 00
21EF37 21EF38 000002 14 00         Tag# 0006           0014 'ATR$C_BAKDATE'
21EF39 21EF3A 000002 08 00           Size              0008
21EF3B 21EF42 000008 00 00 00 00     Attribute         0000000000000000 'No Date Time'
                     00 00 00 00
21EF43 21EF44 000002 0D 00         Tag# 0007           000D 'ATR$C_ASCDATES'
21EF45 21EF46 000002 02 00           Size              0002
21EF47 21EF48 000002 0E 00           Attribute         000E'Revision Count 000E'
21EF49 21EF4A 000002 15 00         Tag# 0008           0015 'ATR$C_UIC'
21EF4B 21EF4C 000002 04 00           Size              0004
21EF4D 21EF50 000004 04 00 01 00     Attribute         00010004
21EF51 21EF52 000002 16 00         Tag# 0009           0016 'ATR$C_FPRO'
21EF53 21EF54 000002 02 00           Size              0002
21EF55 21EF56 000002 AA AA           Attribute         AA AA
21EF57 21EF58 000002 17 00         Tag# 000A           0017 'ATR$C_RPRO'
21EF59 21EF5A 000002 02 00           Size              0002
21EF5B 21EF5C 000002 00 00           Attribute         0000
21EF5D 21EF5E 000002 1D 00         Tag# 000B           001D 'ATR$C_JOURNAL'
21EF5F 21EF60 000002 01 00           Size              0001
21EF61 21EF61 000001 00              Attribute         00
21EF62 227144 0081E3 ...         PAYLOAD

227145 227148 000004 50 4B 03 04 LOCAL HEADER #8       04034B50
227149 227149 000001 14          Extract Zip Spec      14 '2.0'
22714A 22714A 000001 00          Extract OS            00 'MS-DOS'
22714B 22714C 000002 00 00       General Purpose Flag  0000
                                 [Bits 1-2]            0 'Normal Compression'
22714D 22714E 000002 08 00       Compression Method    0008 'Deflated'
22714F 227152 000004 D1 50 F2 34 Last Mod Time         34F250D1 'Tue Jul 18 10:06:34 2006'
227153 227156 000004 B9 34 8B 46 CRC                   468B34B9
227157 22715A 000004 8B 30 00 00 Compressed Length     0000308B
22715B 22715E 000004 00 68 00 00 Uncompressed Length   00006800
22715F 227160 000002 19 00       Filename Length       0019
227161 227162 000002 83 00       Extra Length          0083
227163 22717B 000019 7A 69 70 2F Filename              'zip/zipcloak.vax_vaxc_exe'
                     7A 69 70 63
                     6C 6F 61 6B
                     2E 76 61 78
                     5F 76 61 78
                     63 5F 65 78
                     65
22717C 22717D 000002 0C 00       Extra ID #0001        000C 'OpenVMS'
22717E 22717F 000002 7F 00         Length              007F
227180 227183 000004 7B B8 0C 1C   CRC                 1C0CB87B
227184 227185 000002 04 00         Tag# 0001           0004 'ATR$C_RECATTR'
227186 227187 000002 20 00           Size              0020
227188 2271A7 000020 01 00 00 02     Attribute         01 00 00 02 00 00 38 00 00 00 35 00
                     00 00 38 00                       00 00 00 00 00 02 00 00 00 00 00 00
                     00 00 35 00                       00 00 00 00 00 00 00 00
                     00 00 00 00
                     00 02 00 00
                     00 00 00 00
                     00 00 00 00
                     00 00 00 00
2271A8 2271A9 000002 03 00         Tag# 0002           0003 'ATR$C_UCHAR'
2271AA 2271AB 000002 04 00           Size              0004
2271AC 2271AF 000004 20 00 00 00     Attribute         00000020
                                       [Bit 5]         FCH$M_CONTIGB
2271B0 2271B1 000002 11 00         Tag# 0003           0011 'ATR$C_CREDATE'
2271B2 2271B3 000002 08 00           Size              0008
2271B4 2271BB 000008 77 9A F0 4F     Attribute         00A58DDA4FF09A77 'Tue Jul 18 10:06:33
                     DA 8D A5 00                       2006 541343100ns'
2271BC 2271BD 000002 12 00         Tag# 0004           0012 'ATR$C_REVDATE'
2271BE 2271BF 000002 08 00           Size              0008
2271C0 2271C7 000008 B8 BC 68 CF     Attribute         00A59D9BCF68BCB8 'Mon Aug  7 11:19:27
                     9B 9D A5 00                       2006 709772000ns'
2271C8 2271C9 000002 13 00         Tag# 0005           0013 'ATR$C_EXPDATE'
2271CA 2271CB 000002 08 00           Size              0008
2271CC 2271D3 000008 00 00 00 00     Attribute         0000000000000000 'No Date Time'
                     00 00 00 00
2271D4 2271D5 000002 14 00         Tag# 0006           0014 'ATR$C_BAKDATE'
2271D6 2271D7 000002 08 00           Size              0008
2271D8 2271DF 000008 00 00 00 00     Attribute         0000000000000000 'No Date Time'
                     00 00 00 00
2271E0 2271E1 000002 0D 00         Tag# 0007           000D 'ATR$C_ASCDATES'
2271E2 2271E3 000002 02 00           Size              0002
2271E4 2271E5 000002 0D 00           Attribute         000D'Revision Count 000D'
2271E6 2271E7 000002 15 00         Tag# 0008           0015 'ATR$C_UIC'
2271E8 2271E9 000002 04 00           Size              0004
2271EA 2271ED 000004 04 00 01 00     Attribute         00010004
2271EE 2271EF 000002 16 00         Tag# 0009           0016 'ATR$C_FPRO'
2271F0 2271F1 000002 02 00           Size              0002
2271F2 2271F3 000002 AA AA           Attribute         AA AA
2271F4 2271F5 000002 17 00         Tag# 000A           0017 'ATR$C_RPRO'
2271F6 2271F7 000002 02 00           Size              0002
2271F8 2271F9 000002 00 00           Attribute         0000
2271FA 2271FB 000002 1D 00         Tag# 000B           001D 'ATR$C_JOURNAL'
2271FC 2271FD 000002 01 00           Size              0001
2271FE 2271FE 000001 00              Attribute         00
2271FF 22A289 00308B ...         PAYLOAD

22A28A 22A28D 000004 50 4B 03 04 LOCAL HEADER #9       04034B50
22A28E 22A28E 000001 14          Extract Zip Spec      14 '2.0'
22A28F 22A28F 000001 00          Extract OS            00 'MS-DOS'
22A290 22A291 000002 00 00       General Purpose Flag  0000
                                 [Bits 1-2]            0 'Normal Compression'
22A292 22A293 000002 08 00       Compression Method    0008 'Deflated'
22A294 22A297 000004 B8 50 F2 34 Last Mod Time         34F250B8 'Tue Jul 18 10:05:48 2006'
22A298 22A29B 000004 01 27 04 91 CRC                   91042701
22A29C 22A29F 000004 9E 49 00 00 Compressed Length     0000499E
22A2A0 22A2A3 000004 00 98 00 00 Uncompressed Length   00009800
22A2A4 22A2A5 000002 13 00       Filename Length       0013
22A2A6 22A2A7 000002 83 00       Extra Length          0083
22A2A8 22A2BA 000013 7A 69 70 2F Filename              'zip/zipnote.axp_exe'
                     7A 69 70 6E
                     6F 74 65 2E
                     61 78 70 5F
                     65 78 65
22A2BB 22A2BC 000002 0C 00       Extra ID #0001        000C 'OpenVMS'
22A2BD 22A2BE 000002 7F 00         Length              007F
22A2BF 22A2C2 000004 EA EF 69 1E   CRC                 1E69EFEA
22A2C3 22A2C4 000002 04 00         Tag# 0001           0004 'ATR$C_RECATTR'
22A2C5 22A2C6 000002 20 00           Size              0020
22A2C7 22A2E6 000020 01 00 00 02     Attribute         01 00 00 02 00 00 50 00 00 00 4D 00
                     00 00 50 00                       00 00 00 00 00 02 00 00 00 00 00 00
                     00 00 4D 00                       00 00 00 00 00 00 00 00
                     00 00 00 00
                     00 02 00 00
                     00 00 00 00
                     00 00 00 00
                     00 00 00 00
22A2E7 22A2E8 000002 03 00         Tag# 0002           0003 'ATR$C_UCHAR'
22A2E9 22A2EA 000002 04 00           Size              0004
22A2EB 22A2EE 000004 20 00 00 00     Attribute         00000020
                                       [Bit 5]         FCH$M_CONTIGB
22A2EF 22A2F0 000002 11 00         Tag# 0003           0011 'ATR$C_CREDATE'
22A2F1 22A2F2 000002 08 00           Size              0008
22A2F3 22A2FA 000008 92 77 81 34     Attribute         00A58DDA34817792 'Tue Jul 18 10:05:47
                     DA 8D A5 00                       2006 514517000ns'
22A2FB 22A2FC 000002 12 00         Tag# 0004           0012 'ATR$C_REVDATE'
22A2FD 22A2FE 000002 08 00           Size              0008
22A2FF 22A306 000008 D9 35 74 CF     Attribute         00A59D9BCF7435D9 'Mon Aug  7 11:19:27
                     9B 9D A5 00                       2006 784962500ns'
22A307 22A308 000002 13 00         Tag# 0005           0013 'ATR$C_EXPDATE'
22A309 22A30A 000002 08 00           Size              0008
22A30B 22A312 000008 00 00 00 00     Attribute         0000000000000000 'No Date Time'
                     00 00 00 00
22A313 22A314 000002 14 00         Tag# 0006           0014 'ATR$C_BAKDATE'
22A315 22A316 000002 08 00           Size              0008
22A317 22A31E 000008 00 00 00 00     Attribute         0000000000000000 'No Date Time'
                     00 00 00 00
22A31F 22A320 000002 0D 00         Tag# 0007           000D 'ATR$C_ASCDATES'
22A321 22A322 000002 02 00           Size              0002
22A323 22A324 000002 0D 00           Attribute         000D'Revision Count 000D'
22A325 22A326 000002 15 00         Tag# 0008           0015 'ATR$C_UIC'
22A327 22A328 000002 04 00           Size              0004
22A329 22A32C 000004 04 00 01 00     Attribute         00010004
22A32D 22A32E 000002 16 00         Tag# 0009           0016 'ATR$C_FPRO'
22A32F 22A330 000002 02 00           Size              0002
22A331 22A332 000002 AA AA           Attribute         AA AA
22A333 22A334 000002 17 00         Tag# 000A           0017 'ATR$C_RPRO'
22A335 22A336 000002 02 00           Size              0002
22A337 22A338 000002 00 00           Attribute         0000
22A339 22A33A 000002 1D 00         Tag# 000B           001D 'ATR$C_JOURNAL'
22A33B 22A33C 000002 01 00           Size              0001
22A33D 22A33D 000001 00              Attribute         00
22A33E 22ECDB 00499E ...         PAYLOAD

22ECDC 22ECDF 000004 50 4B 03 04 LOCAL HEADER #A       04034B50
22ECE0 22ECE0 000001 14          Extract Zip Spec      14 '2.0'
22ECE1 22ECE1 000001 00          Extract OS            00 'MS-DOS'
22ECE2 22ECE3 000002 00 00       General Purpose Flag  0000
                                 [Bits 1-2]            0 'Normal Compression'
22ECE4 22ECE5 000002 08 00       Compression Method    0008 'Deflated'
22ECE6 22ECE9 000004 C0 49 F2 34 Last Mod Time         34F249C0 'Tue Jul 18 09:14:00 2006'
22ECEA 22ECED 000004 C8 0E 14 24 CRC                   24140EC8
22ECEE 22ECF1 000004 E0 6B 00 00 Compressed Length     00006BE0
22ECF2 22ECF5 000004 00 84 01 00 Uncompressed Length   00018400
22ECF6 22ECF7 000002 13 00       Filename Length       0013
22ECF8 22ECF9 000002 83 00       Extra Length          0083
22ECFA 22ED0C 000013 7A 69 70 2F Filename              'zip/zipnote.i64_exe'
                     7A 69 70 6E
                     6F 74 65 2E
                     69 36 34 5F
                     65 78 65
22ED0D 22ED0E 000002 0C 00       Extra ID #0001        000C 'OpenVMS'
22ED0F 22ED10 000002 7F 00         Length              007F
22ED11 22ED14 000004 1F 6A 1B CD   CRC                 CD1B6A1F
22ED15 22ED16 000002 04 00         Tag# 0001           0004 'ATR$C_RECATTR'
22ED17 22ED18 000002 20 00           Size              0020
22ED19 22ED38 000020 01 00 00 02     Attribute         01 00 00 02 00 00 C8 00 00 00 C3 00
                     00 00 C8 00                       00 00 00 00 00 02 00 00 00 00 00 00
                     00 00 C3 00                       00 00 00 00 00 00 00 00
                     00 00 00 00
                     00 02 00 00
                     00 00 00 00
                     00 00 00 00
                     00 00 00 00
22ED39 22ED3A 000002 03 00         Tag# 0002           0003 'ATR$C_UCHAR'
22ED3B 22ED3C 000002 04 00           Size              0004
22ED3D 22ED40 000004 20 00 00 00     Attribute         00000020
                                       [Bit 5]         FCH$M_CONTIGB
22ED41 22ED42 000002 11 00         Tag# 0003           0011 'ATR$C_CREDATE'
22ED43 22ED44 000002 08 00           Size              0008
22ED45 22ED4C 000008 40 29 47 F8     Attribute         00A58DD2F8472940 'Tue Jul 18 09:13:59
                     D2 8D A5 00                       2006 992000000ns'
22ED4D 22ED4E 000002 12 00         Tag# 0004           0012 'ATR$C_REVDATE'
22ED4F 22ED50 000002 08 00           Size              0008
22ED51 22ED58 000008 FA AE 7F CF     Attribute         00A59D9BCF7FAEFA 'Mon Aug  7 11:19:27
                     9B 9D A5 00                       2006 860153000ns'
22ED59 22ED5A 000002 13 00         Tag# 0005           0013 'ATR$C_EXPDATE'
22ED5B 22ED5C 000002 08 00           Size              0008
22ED5D 22ED64 000008 00 00 00 00     Attribute         0000000000000000 'No Date Time'
                     00 00 00 00
22ED65 22ED66 000002 14 00         Tag# 0006           0014 'ATR$C_BAKDATE'
22ED67 22ED68 000002 08 00           Size              0008
22ED69 22ED70 000008 00 00 00 00     Attribute         0000000000000000 'No Date Time'
                     00 00 00 00
22ED71 22ED72 000002 0D 00         Tag# 0007           000D 'ATR$C_ASCDATES'
22ED73 22ED74 000002 02 00           Size              0002
22ED75 22ED76 000002 0E 00           Attribute         000E'Revision Count 000E'
22ED77 22ED78 000002 15 00         Tag# 0008           0015 'ATR$C_UIC'
22ED79 22ED7A 000002 04 00           Size              0004
22ED7B 22ED7E 000004 04 00 01 00     Attribute         00010004
22ED7F 22ED80 000002 16 00         Tag# 0009           0016 'ATR$C_FPRO'
22ED81 22ED82 000002 02 00           Size              0002
22ED83 22ED84 000002 AA AA           Attribute         AA AA
22ED85 22ED86 000002 17 00         Tag# 000A           0017 'ATR$C_RPRO'
22ED87 22ED88 000002 02 00           Size              0002
22ED89 22ED8A 000002 00 00           Attribute         0000
22ED8B 22ED8C 000002 1D 00         Tag# 000B           001D 'ATR$C_JOURNAL'
22ED8D 22ED8E 000002 01 00           Size              0001
22ED8F 22ED8F 000001 00              Attribute         00
22ED90 23596F 006BE0 ...         PAYLOAD

235970 235973 000004 50 4B 03 04 LOCAL HEADER #B       04034B50
235974 235974 000001 14          Extract Zip Spec      14 '2.0'
235975 235975 000001 00          Extract OS            00 'MS-DOS'
235976 235977 000002 00 00       General Purpose Flag  0000
                                 [Bits 1-2]            0 'Normal Compression'
235978 235979 000002 08 00       Compression Method    0008 'Deflated'
23597A 23597D 000004 D1 50 F2 34 Last Mod Time         34F250D1 'Tue Jul 18 10:06:34 2006'
23597E 235981 000004 6C 2C B1 37 CRC                   37B12C6C
235982 235985 000004 26 2A 00 00 Compressed Length     00002A26
235986 235989 000004 00 60 00 00 Uncompressed Length   00006000
23598A 23598B 000002 18 00       Filename Length       0018
23598C 23598D 000002 83 00       Extra Length          0083
23598E 2359A5 000018 7A 69 70 2F Filename              'zip/zipnote.vax_vaxc_exe'
                     7A 69 70 6E
                     6F 74 65 2E
                     76 61 78 5F
                     76 61 78 63
                     5F 65 78 65
2359A6 2359A7 000002 0C 00       Extra ID #0001        000C 'OpenVMS'
2359A8 2359A9 000002 7F 00         Length              007F
2359AA 2359AD 000004 AD 3A D8 89   CRC                 89D83AAD
2359AE 2359AF 000002 04 00         Tag# 0001           0004 'ATR$C_RECATTR'
2359B0 2359B1 000002 20 00           Size              0020
2359B2 2359D1 000020 01 00 00 02     Attribute         01 00 00 02 00 00 30 00 00 00 31 00
                     00 00 30 00                       00 00 00 00 00 02 00 00 00 00 00 00
                     00 00 31 00                       00 00 00 00 00 00 00 00
                     00 00 00 00
                     00 02 00 00
                     00 00 00 00
                     00 00 00 00
                     00 00 00 00
2359D2 2359D3 000002 03 00         Tag# 0002           0003 'ATR$C_UCHAR'
2359D4 2359D5 000002 04 00           Size              0004
2359D6 2359D9 000004 20 00 00 00     Attribute         00000020
                                       [Bit 5]         FCH$M_CONTIGB
2359DA 2359DB 000002 11 00         Tag# 0003           0011 'ATR$C_CREDATE'
2359DC 2359DD 000002 08 00           Size              0008
2359DE 2359E5 000008 57 40 6F 50     Attribute         00A58DDA506F4057 'Tue Jul 18 10:06:34
                     DA 8D A5 00                       2006 371343100ns'
2359E6 2359E7 000002 12 00         Tag# 0004           0012 'ATR$C_REVDATE'
2359E8 2359E9 000002 08 00           Size              0008
2359EA 2359F1 000008 59 48 87 CF     Attribute         00A59D9BCF874859 'Mon Aug  7 11:19:27
                     9B 9D A5 00                       2006 909954500ns'
2359F2 2359F3 000002 13 00         Tag# 0005           0013 'ATR$C_EXPDATE'
2359F4 2359F5 000002 08 00           Size              0008
2359F6 2359FD 000008 00 00 00 00     Attribute         0000000000000000 'No Date Time'
                     00 00 00 00
2359FE 2359FF 000002 14 00         Tag# 0006           0014 'ATR$C_BAKDATE'
235A00 235A01 000002 08 00           Size              0008
235A02 235A09 000008 00 00 00 00     Attribute         0000000000000000 'No Date Time'
                     00 00 00 00
235A0A 235A0B 000002 0D 00         Tag# 0007           000D 'ATR$C_ASCDATES'
235A0C 235A0D 000002 02 00           Size              0002
235A0E 235A0F 000002 0D 00           Attribute         000D'Revision Count 000D'
235A10 235A11 000002 15 00         Tag# 0008           0015 'ATR$C_UIC'
235A12 235A13 000002 04 00           Size              0004
235A14 235A17 000004 04 00 01 00     Attribute         00010004
235A18 235A19 000002 16 00         Tag# 0009           0016 'ATR$C_FPRO'
235A1A 235A1B 000002 02 00           Size              0002
235A1C 235A1D 000002 AA AA           Attribute         AA AA
235A1E 235A1F 000002 17 00         Tag# 000A           0017 'ATR$C_RPRO'
235A20 235A21 000002 02 00           Size              0002
235A22 235A23 000002 00 00           Attribute         0000
235A24 235A25 000002 1D 00         Tag# 000B           001D 'ATR$C_JOURNAL'
235A26 235A27 000002 01 00           Size              0001
235A28 235A28 000001 00              Attribute         00
235A29 23844E 002A26 ...         PAYLOAD

23844F 238452 000004 50 4B 03 04 LOCAL HEADER #C       04034B50
238453 238453 000001 14          Extract Zip Spec      14 '2.0'
238454 238454 000001 00          Extract OS            00 'MS-DOS'
238455 238456 000002 00 00       General Purpose Flag  0000
                                 [Bits 1-2]            0 'Normal Compression'
238457 238458 000002 08 00       Compression Method    0008 'Deflated'
238459 23845C 000004 B8 50 F2 34 Last Mod Time         34F250B8 'Tue Jul 18 10:05:48 2006'
23845D 238460 000004 9F DB BE 9B CRC                   9BBEDB9F
238461 238464 000004 D0 4F 00 00 Compressed Length     00004FD0
238465 238468 000004 00 A2 00 00 Uncompressed Length   0000A200
238469 23846A 000002 14 00       Filename Length       0014
23846B 23846C 000002 83 00       Extra Length          0083
23846D 238480 000014 7A 69 70 2F Filename              'zip/zipsplit.axp_exe'
                     7A 69 70 73
                     70 6C 69 74
                     2E 61 78 70
                     5F 65 78 65
238481 238482 000002 0C 00       Extra ID #0001        000C 'OpenVMS'
238483 238484 000002 7F 00         Length              007F
238485 238488 000004 71 95 51 2E   CRC                 2E519571
238489 23848A 000002 04 00         Tag# 0001           0004 'ATR$C_RECATTR'
23848B 23848C 000002 20 00           Size              0020
23848D 2384AC 000020 01 00 00 02     Attribute         01 00 00 02 00 00 58 00 00 00 52 00
                     00 00 58 00                       00 00 00 00 00 02 00 00 00 00 00 00
                     00 00 52 00                       00 00 00 00 00 00 00 00
                     00 00 00 00
                     00 02 00 00
                     00 00 00 00
                     00 00 00 00
                     00 00 00 00
2384AD 2384AE 000002 03 00         Tag# 0002           0003 'ATR$C_UCHAR'
2384AF 2384B0 000002 04 00           Size              0004
2384B1 2384B4 000004 20 00 00 00     Attribute         00000020
                                       [Bit 5]         FCH$M_CONTIGB
2384B5 2384B6 000002 11 00         Tag# 0003           0011 'ATR$C_CREDATE'
2384B7 2384B8 000002 08 00           Size              0008
2384B9 2384C0 000008 B0 2B 8B 34     Attribute         00A58DDA348B2BB0 'Tue Jul 18 10:05:47
                     DA 8D A5 00                       2006 578110400ns'
2384C1 2384C2 000002 12 00         Tag# 0004           0012 'ATR$C_REVDATE'
2384C3 2384C4 000002 08 00           Size              0008
2384C5 2384CC 000008 C7 18 94 CF     Attribute         00A59D9BCF9418C7 'Mon Aug  7 11:19:27
                     9B 9D A5 00                       2006 993933500ns'
2384CD 2384CE 000002 13 00         Tag# 0005           0013 'ATR$C_EXPDATE'
2384CF 2384D0 000002 08 00           Size              0008
2384D1 2384D8 000008 00 00 00 00     Attribute         0000000000000000 'No Date Time'
                     00 00 00 00
2384D9 2384DA 000002 14 00         Tag# 0006           0014 'ATR$C_BAKDATE'
2384DB 2384DC 000002 08 00           Size              0008
2384DD 2384E4 000008 00 00 00 00     Attribute         0000000000000000 'No Date Time'
                     00 00 00 00
2384E5 2384E6 000002 0D 00         Tag# 0007           000D 'ATR$C_ASCDATES'
2384E7 2384E8 000002 02 00           Size              0002
2384E9 2384EA 000002 0D 00           Attribute         000D'Revision Count 000D'
2384EB 2384EC 000002 15 00         Tag# 0008           0015 'ATR$C_UIC'
2384ED 2384EE 000002 04 00           Size              0004
2384EF 2384F2 000004 04 00 01 00     Attribute         00010004
2384F3 2384F4 000002 16 00         Tag# 0009           0016 'ATR$C_FPRO'
2384F5 2384F6 000002 02 00           Size              0002
2384F7 2384F8 000002 AA AA           Attribute         AA AA
2384F9 2384FA 000002 17 00         Tag# 000A           0017 'ATR$C_RPRO'
2384FB 2384FC 000002 02 00           Size              0002
2384FD 2384FE 000002 00 00           Attribute         0000
2384FF 238500 000002 1D 00         Tag# 000B           001D 'ATR$C_JOURNAL'
238501 238502 000002 01 00           Size              0001
238503 238503 000001 00              Attribute         00
238504 23D4D3 004FD0 ...         PAYLOAD

23D4D4 23D4D7 000004 50 4B 03 04 LOCAL HEADER #D       04034B50
23D4D8 23D4D8 000001 14          Extract Zip Spec      14 '2.0'
23D4D9 23D4D9 000001 00          Extract OS            00 'MS-DOS'
23D4DA 23D4DB 000002 00 00       General Purpose Flag  0000
                                 [Bits 1-2]            0 'Normal Compression'
23D4DC 23D4DD 000002 08 00       Compression Method    0008 'Deflated'
23D4DE 23D4E1 000004 C1 49 F2 34 Last Mod Time         34F249C1 'Tue Jul 18 09:14:02 2006'
23D4E2 23D4E5 000004 F2 6C 27 A4 CRC                   A4276CF2
23D4E6 23D4E9 000004 24 7B 00 00 Compressed Length     00007B24
23D4EA 23D4ED 000004 00 A8 01 00 Uncompressed Length   0001A800
23D4EE 23D4EF 000002 14 00       Filename Length       0014
23D4F0 23D4F1 000002 83 00       Extra Length          0083
23D4F2 23D505 000014 7A 69 70 2F Filename              'zip/zipsplit.i64_exe'
                     7A 69 70 73
                     70 6C 69 74
                     2E 69 36 34
                     5F 65 78 65
23D506 23D507 000002 0C 00       Extra ID #0001        000C 'OpenVMS'
23D508 23D509 000002 7F 00         Length              007F
23D50A 23D50D 000004 61 60 4A 58   CRC                 584A6061
23D50E 23D50F 000002 04 00         Tag# 0001           0004 'ATR$C_RECATTR'
23D510 23D511 000002 20 00           Size              0020
23D512 23D531 000020 01 00 00 02     Attribute         01 00 00 02 00 00 D8 00 00 00 D5 00
                     00 00 D8 00                       00 00 00 00 00 02 00 00 00 00 00 00
                     00 00 D5 00                       00 00 00 00 00 00 00 00
                     00 00 00 00
                     00 02 00 00
                     00 00 00 00
                     00 00 00 00
                     00 00 00 00
23D532 23D533 000002 03 00         Tag# 0002           0003 'ATR$C_UCHAR'
23D534 23D535 000002 04 00           Size              0004
23D536 23D539 000004 20 00 00 00     Attribute         00000020
                                       [Bit 5]         FCH$M_CONTIGB
23D53A 23D53B 000002 11 00         Tag# 0003           0011 'ATR$C_CREDATE'
23D53C 23D53D 000002 08 00           Size              0008
23D53E 23D545 000008 B0 07 8F F8     Attribute         00A58DD2F88F07B0 'Tue Jul 18 09:14:00
                     D2 8D A5 00                       2006 463000000ns'
23D546 23D547 000002 12 00         Tag# 0004           0012 'ATR$C_REVDATE'
23D548 23D549 000002 08 00           Size              0008
23D54A 23D551 000008 10 C3 A0 CF     Attribute         00A59D9BCFA0C310 'Mon Aug  7 11:19:28
                     9B 9D A5 00                       2006 76936000ns'
23D552 23D553 000002 13 00         Tag# 0005           0013 'ATR$C_EXPDATE'
23D554 23D555 000002 08 00           Size              0008
23D556 23D55D 000008 00 00 00 00     Attribute         0000000000000000 'No Date Time'
                     00 00 00 00
23D55E 23D55F 000002 14 00         Tag# 0006           0014 'ATR$C_BAKDATE'
23D560 23D561 000002 08 00           Size              0008
23D562 23D569 000008 00 00 00 00     Attribute         0000000000000000 'No Date Time'
                     00 00 00 00
23D56A 23D56B 000002 0D 00         Tag# 0007           000D 'ATR$C_ASCDATES'
23D56C 23D56D 000002 02 00           Size              0002
23D56E 23D56F 000002 0E 00           Attribute         000E'Revision Count 000E'
23D570 23D571 000002 15 00         Tag# 0008           0015 'ATR$C_UIC'
23D572 23D573 000002 04 00           Size              0004
23D574 23D577 000004 04 00 01 00     Attribute         00010004
23D578 23D579 000002 16 00         Tag# 0009           0016 'ATR$C_FPRO'
23D57A 23D57B 000002 02 00           Size              0002
23D57C 23D57D 000002 AA AA           Attribute         AA AA
23D57E 23D57F 000002 17 00         Tag# 000A           0017 'ATR$C_RPRO'
23D580 23D581 000002 02 00           Size              0002
23D582 23D583 000002 00 00           Attribute         0000
23D584 23D585 000002 1D 00         Tag# 000B           001D 'ATR$C_JOURNAL'
23D586 23D587 000002 01 00           Size              0001
23D588 23D588 000001 00              Attribute         00
23D589 2450AC 007B24 ...         PAYLOAD

2450AD 2450B0 000004 50 4B 03 04 LOCAL HEADER #E       04034B50
2450B1 2450B1 000001 14          Extract Zip Spec      14 '2.0'
2450B2 2450B2 000001 00          Extract OS            00 'MS-DOS'
2450B3 2450B4 000002 00 00       General Purpose Flag  0000
                                 [Bits 1-2]            0 'Normal Compression'
2450B5 2450B6 000002 08 00       Compression Method    0008 'Deflated'
2450B7 2450BA 000004 D2 50 F2 34 Last Mod Time         34F250D2 'Tue Jul 18 10:06:36 2006'
2450BB 2450BE 000004 56 E3 A0 0E CRC                   0EA0E356
2450BF 2450C2 000004 E9 2E 00 00 Compressed Length     00002EE9
2450C3 2450C6 000004 00 66 00 00 Uncompressed Length   00006600
2450C7 2450C8 000002 19 00       Filename Length       0019
2450C9 2450CA 000002 83 00       Extra Length          0083
2450CB 2450E3 000019 7A 69 70 2F Filename              'zip/zipsplit.vax_vaxc_exe'
                     7A 69 70 73
                     70 6C 69 74
                     2E 76 61 78
                     5F 76 61 78
                     63 5F 65 78
                     65
2450E4 2450E5 000002 0C 00       Extra ID #0001        000C 'OpenVMS'
2450E6 2450E7 000002 7F 00         Length              007F
2450E8 2450EB 000004 D6 E9 E4 DC   CRC                 DCE4E9D6
2450EC 2450ED 000002 04 00         Tag# 0001           0004 'ATR$C_RECATTR'
2450EE 2450EF 000002 20 00           Size              0020
2450F0 24510F 000020 01 00 00 02     Attribute         01 00 00 02 00 00 38 00 00 00 34 00
                     00 00 38 00                       00 00 00 00 00 02 00 00 00 00 00 00
                     00 00 34 00                       00 00 00 00 00 00 00 00
                     00 00 00 00
                     00 02 00 00
                     00 00 00 00
                     00 00 00 00
                     00 00 00 00
245110 245111 000002 03 00         Tag# 0002           0003 'ATR$C_UCHAR'
245112 245113 000002 04 00           Size              0004
245114 245117 000004 20 00 00 00     Attribute         00000020
                                       [Bit 5]         FCH$M_CONTIGB
245118 245119 000002 11 00         Tag# 0003           0011 'ATR$C_CREDATE'
24511A 24511B 000002 08 00           Size              0008
24511C 245123 000008 B7 CB E7 50     Attribute         00A58DDA50E7CBB7 'Tue Jul 18 10:06:35
                     DA 8D A5 00                       2006 161343100ns'
245124 245125 000002 12 00         Tag# 0004           0012 'ATR$C_REVDATE'
245126 245127 000002 08 00           Size              0008
245128 24512F 000008 59 6D AD CF     Attribute         00A59D9BCFAD6D59 'Mon Aug  7 11:19:28
                     9B 9D A5 00                       2006 159938500ns'
245130 245131 000002 13 00         Tag# 0005           0013 'ATR$C_EXPDATE'
245132 245133 000002 08 00           Size              0008
245134 24513B 000008 00 00 00 00     Attribute         0000000000000000 'No Date Time'
                     00 00 00 00
24513C 24513D 000002 14 00         Tag# 0006           0014 'ATR$C_BAKDATE'
24513E 24513F 000002 08 00           Size              0008
245140 245147 000008 00 00 00 00     Attribute         0000000000000000 'No Date Time'
                     00 00 00 00
245148 245149 000002 0D 00         Tag# 0007           000D 'ATR$C_ASCDATES'
24514A 24514B 000002 02 00           Size              0002
24514C 24514D 000002 0D 00           Attribute         000D'Revision Count 000D'
24514E 24514F 000002 15 00         Tag# 0008           0015 'ATR$C_UIC'
245150 245151 000002 04 00           Size              0004
245152 245155 000004 04 00 01 00     Attribute         00010004
245156 245157 000002 16 00         Tag# 0009           0016 'ATR$C_FPRO'
245158 245159 000002 02 00           Size              0002
24515A 24515B 000002 AA AA           Attribute         AA AA
24515C 24515D 000002 17 00         Tag# 000A           0017 'ATR$C_RPRO'
24515E 24515F 000002 02 00           Size              0002
245160 245161 000002 00 00           Attribute         0000
245162 245163 000002 1D 00         Tag# 000B           001D 'ATR$C_JOURNAL'
245164 245165 000002 01 00           Size              0001
245166 245166 000001 00              Attribute         00
245167 24804F 002EE9 ...         PAYLOAD

248050 248053 000004 50 4B 03 04 LOCAL HEADER #F       04034B50
248054 248054 000001 14          Extract Zip Spec      14 '2.0'
248055 248055 000001 00          Extract OS            00 'MS-DOS'
248056 248057 000002 00 00       General Purpose Flag  0000
                                 [Bits 1-2]            0 'Normal Compression'
248058 248059 000002 08 00       Compression Method    0008 'Deflated'
24805A 24805D 000004 B8 50 F2 34 Last Mod Time         34F250B8 'Tue Jul 18 10:05:48 2006'
24805E 248061 000004 9D 15 78 16 CRC                   1678159D
248062 248065 000004 5E 08 01 00 Compressed Length     0001085E
248066 248069 000004 00 F6 01 00 Uncompressed Length   0001F600
24806A 24806B 000002 13 00       Filename Length       0013
24806C 24806D 000002 83 00       Extra Length          0083
24806E 248080 000013 7A 69 70 2F Filename              'zip/zip_cli.axp_exe'
                     7A 69 70 5F
                     63 6C 69 2E
                     61 78 70 5F
                     65 78 65
248081 248082 000002 0C 00       Extra ID #0001        000C 'OpenVMS'
248083 248084 000002 7F 00         Length              007F
248085 248088 000004 BF 57 2F B5   CRC                 B52F57BF
248089 24808A 000002 04 00         Tag# 0001           0004 'ATR$C_RECATTR'
24808B 24808C 000002 20 00           Size              0020
24808D 2480AC 000020 01 00 00 02     Attribute         01 00 00 02 00 00 00 01 00 00 FC 00
                     00 00 00 01                       00 00 00 00 00 02 00 00 00 00 00 00
                     00 00 FC 00                       00 00 00 00 00 00 00 00
                     00 00 00 00
                     00 02 00 00
                     00 00 00 00
                     00 00 00 00
                     00 00 00 00
2480AD 2480AE 000002 03 00         Tag# 0002           0003 'ATR$C_UCHAR'
2480AF 2480B0 000002 04 00           Size              0004
2480B1 2480B4 000004 20 00 00 00     Attribute         00000020
                                       [Bit 5]         FCH$M_CONTIGB
2480B5 2480B6 000002 11 00         Tag# 0003           0011 'ATR$C_CREDATE'
2480B7 2480B8 000002 08 00           Size              0008
2480B9 2480C0 000008 68 DE 6B 34     Attribute         00A58DDA346BDE68 'Tue Jul 18 10:05:47
                     DA 8D A5 00                       2006 372970400ns'
2480C1 2480C2 000002 12 00         Tag# 0004           0012 'ATR$C_REVDATE'
2480C3 2480C4 000002 08 00           Size              0008
2480C5 2480CC 000008 C7 3D BA CF     Attribute         00A59D9BCFBA3DC7 'Mon Aug  7 11:19:28
                     9B 9D A5 00                       2006 243917500ns'
2480CD 2480CE 000002 13 00         Tag# 0005           0013 'ATR$C_EXPDATE'
2480CF 2480D0 000002 08 00           Size              0008
2480D1 2480D8 000008 00 00 00 00     Attribute         0000000000000000 'No Date Time'
                     00 00 00 00
2480D9 2480DA 000002 14 00         Tag# 0006           0014 'ATR$C_BAKDATE'
2480DB 2480DC 000002 08 00           Size              0008
2480DD 2480E4 000008 00 00 00 00     Attribute         0000000000000000 'No Date Time'
                     00 00 00 00
2480E5 2480E6 000002 0D 00         Tag# 0007           000D 'ATR$C_ASCDATES'
2480E7 2480E8 000002 02 00           Size              0002
2480E9 2480EA 000002 0D 00           Attribute         000D'Revision Count 000D'
2480EB 2480EC 000002 15 00         Tag# 0008           0015 'ATR$C_UIC'
2480ED 2480EE 000002 04 00           Size              0004
2480EF 2480F2 000004 04 00 01 00     Attribute         00010004
2480F3 2480F4 000002 16 00         Tag# 0009           0016 'ATR$C_FPRO'
2480F5 2480F6 000002 02 00           Size              0002
2480F7 2480F8 000002 AA AA           Attribute         AA AA
2480F9 2480FA 000002 17 00         Tag# 000A           0017 'ATR$C_RPRO'
2480FB 2480FC 000002 02 00           Size              0002
2480FD 2480FE 000002 00 00           Attribute         0000
2480FF 248100 000002 1D 00         Tag# 000B           001D 'ATR$C_JOURNAL'
248101 248102 000002 01 00           Size              0001
248103 248103 000001 00              Attribute         00
248104 258961 01085E ...         PAYLOAD

258962 258965 000004 50 4B 03 04 LOCAL HEADER #10      04034B50
258966 258966 000001 14          Extract Zip Spec      14 '2.0'
258967 258967 000001 00          Extract OS            00 'MS-DOS'
258968 258969 000002 00 00       General Purpose Flag  0000
                                 [Bits 1-2]            0 'Normal Compression'
25896A 25896B 000002 08 00       Compression Method    0008 'Deflated'
25896C 25896F 000004 C0 49 F2 34 Last Mod Time         34F249C0 'Tue Jul 18 09:14:00 2006'
258970 258973 000004 8E C9 81 F0 CRC                   F081C98E
258974 258977 000004 78 7C 01 00 Compressed Length     00017C78
258978 25897B 000004 00 C6 04 00 Uncompressed Length   0004C600
25897C 25897D 000002 13 00       Filename Length       0013
25897E 25897F 000002 83 00       Extra Length          0083
258980 258992 000013 7A 69 70 2F Filename              'zip/zip_cli.i64_exe'
                     7A 69 70 5F
                     63 6C 69 2E
                     69 36 34 5F
                     65 78 65
258993 258994 000002 0C 00       Extra ID #0001        000C 'OpenVMS'
258995 258996 000002 7F 00         Length              007F
258997 25899A 000004 D8 AC 10 04   CRC                 0410ACD8
25899B 25899C 000002 04 00         Tag# 0001           0004 'ATR$C_RECATTR'
25899D 25899E 000002 20 00           Size              0020
25899F 2589BE 000020 01 00 00 02     Attribute         01 00 00 02 00 00 68 02 00 00 64 02
                     00 00 68 02                       00 00 00 00 00 02 00 00 00 00 00 00
                     00 00 64 02                       00 00 00 00 00 00 00 00
                     00 00 00 00
                     00 02 00 00
                     00 00 00 00
                     00 00 00 00
                     00 00 00 00
2589BF 2589C0 000002 03 00         Tag# 0002           0003 'ATR$C_UCHAR'
2589C1 2589C2 000002 04 00           Size              0004
2589C3 2589C6 000004 20 00 00 00     Attribute         00000020
                                       [Bit 5]         FCH$M_CONTIGB
2589C7 2589C8 000002 11 00         Tag# 0003           0011 'ATR$C_CREDATE'
2589C9 2589CA 000002 08 00           Size              0008
2589CB 2589D2 000008 00 5B 7E F7     Attribute         00A58DD2F77E5B00 'Tue Jul 18 09:13:58
                     D2 8D A5 00                       2006 676000000ns'
2589D3 2589D4 000002 12 00         Tag# 0004           0012 'ATR$C_REVDATE'
2589D5 2589D6 000002 08 00           Size              0008
2589D7 2589DE 000008 E8 B6 C5 CF     Attribute         00A59D9BCFC5B6E8 'Mon Aug  7 11:19:28
                     9B 9D A5 00                       2006 319108000ns'
2589DF 2589E0 000002 13 00         Tag# 0005           0013 'ATR$C_EXPDATE'
2589E1 2589E2 000002 08 00           Size              0008
2589E3 2589EA 000008 00 00 00 00     Attribute         0000000000000000 'No Date Time'
                     00 00 00 00
2589EB 2589EC 000002 14 00         Tag# 0006           0014 'ATR$C_BAKDATE'
2589ED 2589EE 000002 08 00           Size              0008
2589EF 2589F6 000008 00 00 00 00     Attribute         0000000000000000 'No Date Time'
                     00 00 00 00
2589F7 2589F8 000002 0D 00         Tag# 0007           000D 'ATR$C_ASCDATES'
2589F9 2589FA 000002 02 00           Size              0002
2589FB 2589FC 000002 0E 00           Attribute         000E'Revision Count 000E'
2589FD 2589FE 000002 15 00         Tag# 0008           0015 'ATR$C_UIC'
2589FF 258A00 000002 04 00           Size              0004
258A01 258A04 000004 04 00 01 00     Attribute         00010004
258A05 258A06 000002 16 00         Tag# 0009           0016 'ATR$C_FPRO'
258A07 258A08 000002 02 00           Size              0002
258A09 258A0A 000002 AA AA           Attribute         AA AA
258A0B 258A0C 000002 17 00         Tag# 000A           0017 'ATR$C_RPRO'
258A0D 258A0E 000002 02 00           Size              0002
258A0F 258A10 000002 00 00           Attribute         0000
258A11 258A12 000002 1D 00         Tag# 000B           001D 'ATR$C_JOURNAL'
258A13 258A14 000002 01 00           Size              0001
258A15 258A15 000001 00              Attribute         00
258A16 27068D 017C78 ...         PAYLOAD

27068E 270691 000004 50 4B 03 04 LOCAL HEADER #11      04034B50
270692 270692 000001 14          Extract Zip Spec      14 '2.0'
270693 270693 000001 00          Extract OS            00 'MS-DOS'
270694 270695 000002 00 00       General Purpose Flag  0000
                                 [Bits 1-2]            0 'Normal Compression'
270696 270697 000002 08 00       Compression Method    0008 'Deflated'
270698 27069B 000004 D1 50 F2 34 Last Mod Time         34F250D1 'Tue Jul 18 10:06:34 2006'
27069C 27069F 000004 3A EE 33 00 CRC                   0033EE3A
2706A0 2706A3 000004 F6 96 00 00 Compressed Length     000096F6
2706A4 2706A7 000004 00 36 01 00 Uncompressed Length   00013600
2706A8 2706A9 000002 18 00       Filename Length       0018
2706AA 2706AB 000002 83 00       Extra Length          0083
2706AC 2706C3 000018 7A 69 70 2F Filename              'zip/zip_cli.vax_vaxc_exe'
                     7A 69 70 5F
                     63 6C 69 2E
                     76 61 78 5F
                     76 61 78 63
                     5F 65 78 65
2706C4 2706C5 000002 0C 00       Extra ID #0001        000C 'OpenVMS'
2706C6 2706C7 000002 7F 00         Length              007F
2706C8 2706CB 000004 DF AB 98 8F   CRC                 8F98ABDF
2706CC 2706CD 000002 04 00         Tag# 0001           0004 'ATR$C_RECATTR'
2706CE 2706CF 000002 20 00           Size              0020
2706D0 2706EF 000020 01 00 00 02     Attribute         01 00 00 02 00 00 A0 00 00 00 9C 00
                     00 00 A0 00                       00 00 00 00 00 02 00 00 00 00 00 00
                     00 00 9C 00                       00 00 00 00 00 00 00 00
                     00 00 00 00
                     00 02 00 00
                     00 00 00 00
                     00 00 00 00
                     00 00 00 00
2706F0 2706F1 000002 03 00         Tag# 0002           0003 'ATR$C_UCHAR'
2706F2 2706F3 000002 04 00           Size              0004
2706F4 2706F7 000004 20 00 00 00     Attribute         00000020
                                       [Bit 5]         FCH$M_CONTIGB
2706F8 2706F9 000002 11 00         Tag# 0003           0011 'ATR$C_CREDATE'
2706FA 2706FB 000002 08 00           Size              0008
2706FC 270703 000008 77 53 6A 4F     Attribute         00A58DDA4F6A5377 'Tue Jul 18 10:06:32
                     DA 8D A5 00                       2006 661343100ns'
270704 270705 000002 12 00         Tag# 0004           0012 'ATR$C_REVDATE'
270706 270707 000002 08 00           Size              0008
270708 27070F 000008 31 61 D2 CF     Attribute         00A59D9BCFD26131 'Mon Aug  7 11:19:28
                     9B 9D A5 00                       2006 402110500ns'
270710 270711 000002 13 00         Tag# 0005           0013 'ATR$C_EXPDATE'
270712 270713 000002 08 00           Size              0008
270714 27071B 000008 00 00 00 00     Attribute         0000000000000000 'No Date Time'
                     00 00 00 00
27071C 27071D 000002 14 00         Tag# 0006           0014 'ATR$C_BAKDATE'
27071E 27071F 000002 08 00           Size              0008
270720 270727 000008 00 00 00 00     Attribute         0000000000000000 'No Date Time'
                     00 00 00 00
270728 270729 000002 0D 00         Tag# 0007           000D 'ATR$C_ASCDATES'
27072A 27072B 000002 02 00           Size              0002
27072C 27072D 000002 0D 00           Attribute         000D'Revision Count 000D'
27072E 27072F 000002 15 00         Tag# 0008           0015 'ATR$C_UIC'
270730 270731 000002 04 00           Size              0004
270732 270735 000004 04 00 01 00     Attribute         00010004
270736 270737 000002 16 00         Tag# 0009           0016 'ATR$C_FPRO'
270738 270739 000002 02 00           Size              0002
27073A 27073B 000002 AA AA           Attribute         AA AA
27073C 27073D 000002 17 00         Tag# 000A           0017 'ATR$C_RPRO'
27073E 27073F 000002 02 00           Size              0002
270740 270741 000002 00 00           Attribute         0000
270742 270743 000002 1D 00         Tag# 000B           001D 'ATR$C_JOURNAL'
270744 270745 000002 01 00           Size              0001
270746 270746 000001 00              Attribute         00
270747 279E3C 0096F6 ...         PAYLOAD

279E3D 279E40 000004 50 4B 01 02 CENTRAL HEADER #1     02014B50
279E41 279E41 000001 17          Created Zip Spec      17 '2.3'
279E42 279E42 000001 02          Created OS            02 'OpenVMS'
279E43 279E43 000001 14          Extract Zip Spec      14 '2.0'
279E44 279E44 000001 00          Extract OS            00 'MS-DOS'
279E45 279E46 000002 00 00       General Purpose Flag  0000
                                 [Bits 1-2]            0 'Normal Compression'
279E47 279E48 000002 08 00       Compression Method    0008 'Deflated'
279E49 279E4C 000004 20 AD F7 34 Last Mod Time         34F7AD20 'Sun Jul 23 21:41:00 2006'
279E4D 279E50 000004 31 75 01 4B CRC                   4B017531
279E51 279E54 000004 50 01 00 00 Compressed Length     00000150
279E55 279E58 000004 EE 01 00 00 Uncompressed Length   000001EE
279E59 279E5A 000002 17 00       Filename Length       0017
279E5B 279E5C 000002 83 00       Extra Length          0083
279E5D 279E5E 000002 00 00       Comment Length        0000
279E5F 279E60 000002 00 00       Disk Start            0000
279E61 279E62 000002 00 00       Int File Attributes   0000
                                 [Bit 0]               0 'Binary Data'
279E63 279E66 000004 01 00 6D 81 Ext File Attributes   816D0001
                                 [Bit 0]               Read-Only
279E67 279E6A 000004 00 00 00 00 Local Header Offset   00000000
279E6B 279E81 000017 7A 69 70 2F Filename              'zip/freeware_readme.txt'
                     66 72 65 65
                     77 61 72 65
                     5F 72 65 61
                     64 6D 65 2E
                     74 78 74
279E82 279E83 000002 0C 00       Extra ID #0001        000C 'OpenVMS'
279E84 279E85 000002 7F 00         Length              007F
279E86 279E89 000004 44 E7 17 04   CRC                 0417E744
279E8A 279E8B 000002 04 00         Tag# 0001           0004 'ATR$C_RECATTR'
279E8C 279E8D 000002 20 00           Size              0020
279E8E 279EAD 000020 02 02 47 00     Attribute         02 02 47 00 00 00 08 00 00 00 01 00
                     00 00 08 00                       EE 01 00 00 00 00 00 00 00 00 00 00
                     00 00 01 00                       00 00 00 00 00 00 00 00
                     EE 01 00 00
                     00 00 00 00
                     00 00 00 00
                     00 00 00 00
                     00 00 00 00
279EAE 279EAF 000002 03 00         Tag# 0002           0003 'ATR$C_UCHAR'
279EB0 279EB1 000002 04 00           Size              0004
279EB2 279EB5 000004 00 00 00 00     Attribute         00000000
279EB6 279EB7 000002 11 00         Tag# 0003           0011 'ATR$C_CREDATE'
279EB8 279EB9 000002 08 00           Size              0008
279EBA 279EC1 000008 8F FC F0 26     Attribute         00A5922926F0FC8F 'Sun Jul 23 21:40:59
                     29 92 A5 00                       2006 650017500ns'
279EC2 279EC3 000002 12 00         Tag# 0004           0012 'ATR$C_REVDATE'
279EC4 279EC5 000002 08 00           Size              0008
279EC6 279ECD 000008 E1 45 11 CF     Attribute         00A59D9BCF1145E1 'Mon Aug  7 11:19:27
                     9B 9D A5 00                       2006 136566500ns'
279ECE 279ECF 000002 13 00         Tag# 0005           0013 'ATR$C_EXPDATE'
279ED0 279ED1 000002 08 00           Size              0008
279ED2 279ED9 000008 00 00 00 00     Attribute         0000000000000000 'No Date Time'
                     00 00 00 00
279EDA 279EDB 000002 14 00         Tag# 0006           0014 'ATR$C_BAKDATE'
279EDC 279EDD 000002 08 00           Size              0008
279EDE 279EE5 000008 00 00 00 00     Attribute         0000000000000000 'No Date Time'
                     00 00 00 00
279EE6 279EE7 000002 0D 00         Tag# 0007           000D 'ATR$C_ASCDATES'
279EE8 279EE9 000002 02 00           Size              0002
279EEA 279EEB 000002 0C 00           Attribute         000C'Revision Count 000C'
279EEC 279EED 000002 15 00         Tag# 0008           0015 'ATR$C_UIC'
279EEE 279EEF 000002 04 00           Size              0004
279EF0 279EF3 000004 04 00 01 00     Attribute         00010004
279EF4 279EF5 000002 16 00         Tag# 0009           0016 'ATR$C_FPRO'
279EF6 279EF7 000002 02 00           Size              0002
279EF8 279EF9 000002 AA AA           Attribute         AA AA
279EFA 279EFB 000002 17 00         Tag# 000A           0017 'ATR$C_RPRO'
279EFC 279EFD 000002 02 00           Size              0002
279EFE 279EFF 000002 00 00           Attribute         0000
279F00 279F01 000002 1D 00         Tag# 000B           001D 'ATR$C_JOURNAL'
279F02 279F03 000002 01 00           Size              0001
279F04 279F04 000001 00              Attribute         00

279F05 279F08 000004 50 4B 01 02 CENTRAL HEADER #2     02014B50
279F09 279F09 000001 17          Created Zip Spec      17 '2.3'
279F0A 279F0A 000001 02          Created OS            02 'OpenVMS'
279F0B 279F0B 000001 14          Extract Zip Spec      14 '2.0'
279F0C 279F0C 000001 00          Extract OS            00 'MS-DOS'
279F0D 279F0E 000002 00 00       General Purpose Flag  0000
                                 [Bits 1-2]            0 'Normal Compression'
279F0F 279F10 000002 08 00       Compression Method    0008 'Deflated'
279F11 279F14 000004 B8 50 F2 34 Last Mod Time         34F250B8 'Tue Jul 18 10:05:48 2006'
279F15 279F18 000004 47 02 3B 98 CRC                   983B0247
279F19 279F1C 000004 A6 EB 00 00 Compressed Length     0000EBA6
279F1D 279F20 000004 00 B8 01 00 Uncompressed Length   0001B800
279F21 279F22 000002 0F 00       Filename Length       000F
279F23 279F24 000002 83 00       Extra Length          0083
279F25 279F26 000002 00 00       Comment Length        0000
279F27 279F28 000002 00 00       Disk Start            0000
279F29 279F2A 000002 00 00       Int File Attributes   0000
                                 [Bit 0]               0 'Binary Data'
279F2B 279F2E 000004 01 00 6D 81 Ext File Attributes   816D0001
                                 [Bit 0]               Read-Only
279F2F 279F32 000004 08 02 00 00 Local Header Offset   00000208
279F33 279F41 00000F 7A 69 70 2F Filename              'zip/zip.axp_exe'
                     7A 69 70 2E
                     61 78 70 5F
                     65 78 65
279F42 279F43 000002 0C 00       Extra ID #0001        000C 'OpenVMS'
279F44 279F45 000002 7F 00         Length              007F
279F46 279F49 000004 DF 12 58 78   CRC                 785812DF
279F4A 279F4B 000002 04 00         Tag# 0001           0004 'ATR$C_RECATTR'
279F4C 279F4D 000002 20 00           Size              0020
279F4E 279F6D 000020 01 00 00 02     Attribute         01 00 00 02 00 00 E0 00 00 00 DD 00
                     00 00 E0 00                       00 00 00 00 00 02 00 00 00 00 00 00
                     00 00 DD 00                       00 00 00 00 00 00 00 00
                     00 00 00 00
                     00 02 00 00
                     00 00 00 00
                     00 00 00 00
                     00 00 00 00
279F6E 279F6F 000002 03 00         Tag# 0002           0003 'ATR$C_UCHAR'
279F70 279F71 000002 04 00           Size              0004
279F72 279F75 000004 20 00 00 00     Attribute         00000020
                                       [Bit 5]         FCH$M_CONTIGB
279F76 279F77 000002 11 00         Tag# 0003           0011 'ATR$C_CREDATE'
279F78 279F79 000002 08 00           Size              0008
279F7A 279F81 000008 C7 2C 55 34     Attribute         00A58DDA34552CC7 'Tue Jul 18 10:05:47
                     DA 8D A5 00                       2006 224243900ns'
279F82 279F83 000002 12 00         Tag# 0004           0012 'ATR$C_REVDATE'
279F84 279F85 000002 08 00           Size              0008
279F86 279F8D 000008 08 D5 1E CF     Attribute         00A59D9BCF1ED508 'Mon Aug  7 11:19:27
                     9B 9D A5 00                       2006 225428000ns'
279F8E 279F8F 000002 13 00         Tag# 0005           0013 'ATR$C_EXPDATE'
279F90 279F91 000002 08 00           Size              0008
279F92 279F99 000008 00 00 00 00     Attribute         0000000000000000 'No Date Time'
                     00 00 00 00
279F9A 279F9B 000002 14 00         Tag# 0006           0014 'ATR$C_BAKDATE'
279F9C 279F9D 000002 08 00           Size              0008
279F9E 279FA5 000008 00 00 00 00     Attribute         0000000000000000 'No Date Time'
                     00 00 00 00
279FA6 279FA7 000002 0D 00         Tag# 0007           000D 'ATR$C_ASCDATES'
279FA8 279FA9 000002 02 00           Size              0002
279FAA 279FAB 000002 0D 00           Attribute         000D'Revision Count 000D'
279FAC 279FAD 000002 15 00         Tag# 0008           0015 'ATR$C_UIC'
279FAE 279FAF 000002 04 00           Size              0004
279FB0 279FB3 000004 04 00 01 00     Attribute         00010004
279FB4 279FB5 000002 16 00         Tag# 0009           0016 'ATR$C_FPRO'
279FB6 279FB7 000002 02 00           Size              0002
279FB8 279FB9 000002 AA AA           Attribute         AA AA
279FBA 279FBB 000002 17 00         Tag# 000A           0017 'ATR$C_RPRO'
279FBC 279FBD 000002 02 00           Size              0002
279FBE 279FBF 000002 00 00           Attribute         0000
279FC0 279FC1 000002 1D 00         Tag# 000B           001D 'ATR$C_JOURNAL'
279FC2 279FC3 000002 01 00           Size              0001
279FC4 279FC4 000001 00              Attribute         00

279FC5 279FC8 000004 50 4B 01 02 CENTRAL HEADER #3     02014B50
279FC9 279FC9 000001 17          Created Zip Spec      17 '2.3'
279FCA 279FCA 000001 02          Created OS            02 'OpenVMS'
279FCB 279FCB 000001 14          Extract Zip Spec      14 '2.0'
279FCC 279FCC 000001 00          Extract OS            00 'MS-DOS'
279FCD 279FCE 000002 00 00       General Purpose Flag  0000
                                 [Bits 1-2]            0 'Normal Compression'
279FCF 279FD0 000002 08 00       Compression Method    0008 'Deflated'
279FD1 279FD4 000004 BD 49 F2 34 Last Mod Time         34F249BD 'Tue Jul 18 09:13:58 2006'
279FD5 279FD8 000004 70 F8 4B 10 CRC                   104BF870
279FD9 279FDC 000004 3B 57 01 00 Compressed Length     0001573B
279FDD 279FE0 000004 00 30 04 00 Uncompressed Length   00043000
279FE1 279FE2 000002 0F 00       Filename Length       000F
279FE3 279FE4 000002 83 00       Extra Length          0083
279FE5 279FE6 000002 00 00       Comment Length        0000
279FE7 279FE8 000002 00 00       Disk Start            0000
279FE9 279FEA 000002 00 00       Int File Attributes   0000
                                 [Bit 0]               0 'Binary Data'
279FEB 279FEE 000004 01 00 6D 81 Ext File Attributes   816D0001
                                 [Bit 0]               Read-Only
279FEF 279FF2 000004 5E EE 00 00 Local Header Offset   0000EE5E
279FF3 27A001 00000F 7A 69 70 2F Filename              'zip/zip.i64_exe'
                     7A 69 70 2E
                     69 36 34 5F
                     65 78 65
27A002 27A003 000002 0C 00       Extra ID #0001        000C 'OpenVMS'
27A004 27A005 000002 7F 00         Length              007F
27A006 27A009 000004 78 C7 37 FB   CRC                 FB37C778
27A00A 27A00B 000002 04 00         Tag# 0001           0004 'ATR$C_RECATTR'
27A00C 27A00D 000002 20 00           Size              0020
27A00E 27A02D 000020 01 00 00 02     Attribute         01 00 00 02 00 00 20 02 00 00 19 02
                     00 00 20 02                       00 00 00 00 00 02 00 00 00 00 00 00
                     00 00 19 02                       00 00 00 00 00 00 00 00
                     00 00 00 00
                     00 02 00 00
                     00 00 00 00
                     00 00 00 00
                     00 00 00 00
27A02E 27A02F 000002 03 00         Tag# 0002           0003 'ATR$C_UCHAR'
27A030 27A031 000002 04 00           Size              0004
27A032 27A035 000004 20 00 00 00     Attribute         00000020
                                       [Bit 5]         FCH$M_CONTIGB
27A036 27A037 000002 11 00         Tag# 0003           0011 'ATR$C_CREDATE'
27A038 27A039 000002 08 00           Size              0008
27A03A 27A041 000008 30 CC D8 F6     Attribute         00A58DD2F6D8CC30 'Tue Jul 18 09:13:57
                     D2 8D A5 00                       2006 591000000ns'
27A042 27A043 000002 12 00         Tag# 0004           0012 'ATR$C_REVDATE'
27A044 27A045 000002 08 00           Size              0008
27A046 27A04D 000008 76 A5 2B CF     Attribute         00A59D9BCF2BA576 'Mon Aug  7 11:19:27
                     9B 9D A5 00                       2006 309407000ns'
27A04E 27A04F 000002 13 00         Tag# 0005           0013 'ATR$C_EXPDATE'
27A050 27A051 000002 08 00           Size              0008
27A052 27A059 000008 00 00 00 00     Attribute         0000000000000000 'No Date Time'
                     00 00 00 00
27A05A 27A05B 000002 14 00         Tag# 0006           0014 'ATR$C_BAKDATE'
27A05C 27A05D 000002 08 00           Size              0008
27A05E 27A065 000008 00 00 00 00     Attribute         0000000000000000 'No Date Time'
                     00 00 00 00
27A066 27A067 000002 0D 00         Tag# 0007           000D 'ATR$C_ASCDATES'
27A068 27A069 000002 02 00           Size              0002
27A06A 27A06B 000002 0E 00           Attribute         000E'Revision Count 000E'
27A06C 27A06D 000002 15 00         Tag# 0008           0015 'ATR$C_UIC'
27A06E 27A06F 000002 04 00           Size              0004
27A070 27A073 000004 04 00 01 00     Attribute         00010004
27A074 27A075 000002 16 00         Tag# 0009           0016 'ATR$C_FPRO'
27A076 27A077 000002 02 00           Size              0002
27A078 27A079 000002 AA AA           Attribute         AA AA
27A07A 27A07B 000002 17 00         Tag# 000A           0017 'ATR$C_RPRO'
27A07C 27A07D 000002 02 00           Size              0002
27A07E 27A07F 000002 00 00           Attribute         0000
27A080 27A081 000002 1D 00         Tag# 000B           001D 'ATR$C_JOURNAL'
27A082 27A083 000002 01 00           Size              0001
27A084 27A084 000001 00              Attribute         00

27A085 27A088 000004 50 4B 01 02 CENTRAL HEADER #4     02014B50
27A089 27A089 000001 17          Created Zip Spec      17 '2.3'
27A08A 27A08A 000001 02          Created OS            02 'OpenVMS'
27A08B 27A08B 000001 14          Extract Zip Spec      14 '2.0'
27A08C 27A08C 000001 00          Extract OS            00 'MS-DOS'
27A08D 27A08E 000002 00 00       General Purpose Flag  0000
                                 [Bits 1-2]            0 'Normal Compression'
27A08F 27A090 000002 08 00       Compression Method    0008 'Deflated'
27A091 27A094 000004 D0 50 F2 34 Last Mod Time         34F250D0 'Tue Jul 18 10:06:32 2006'
27A095 27A098 000004 84 08 25 23 CRC                   23250884
27A099 27A09C 000004 7E 86 00 00 Compressed Length     0000867E
27A09D 27A0A0 000004 00 12 01 00 Uncompressed Length   00011200
27A0A1 27A0A2 000002 14 00       Filename Length       0014
27A0A3 27A0A4 000002 83 00       Extra Length          0083
27A0A5 27A0A6 000002 00 00       Comment Length        0000
27A0A7 27A0A8 000002 00 00       Disk Start            0000
27A0A9 27A0AA 000002 00 00       Int File Attributes   0000
                                 [Bit 0]               0 'Binary Data'
27A0AB 27A0AE 000004 01 00 6D 81 Ext File Attributes   816D0001
                                 [Bit 0]               Read-Only
27A0AF 27A0B2 000004 49 46 02 00 Local Header Offset   00024649
27A0B3 27A0C6 000014 7A 69 70 2F Filename              'zip/zip.vax_vaxc_exe'
                     7A 69 70 2E
                     76 61 78 5F
                     76 61 78 63
                     5F 65 78 65
27A0C7 27A0C8 000002 0C 00       Extra ID #0001        000C 'OpenVMS'
27A0C9 27A0CA 000002 7F 00         Length              007F
27A0CB 27A0CE 000004 A4 91 66 29   CRC                 296691A4
27A0CF 27A0D0 000002 04 00         Tag# 0001           0004 'ATR$C_RECATTR'
27A0D1 27A0D2 000002 20 00           Size              0020
27A0D3 27A0F2 000020 01 00 00 02     Attribute         01 00 00 02 00 00 90 00 00 00 8A 00
                     00 00 90 00                       00 00 00 00 00 02 00 00 00 00 00 00
                     00 00 8A 00                       00 00 00 00 00 00 00 00
                     00 00 00 00
                     00 02 00 00
                     00 00 00 00
                     00 00 00 00
                     00 00 00 00
27A0F3 27A0F4 000002 03 00         Tag# 0002           0003 'ATR$C_UCHAR'
27A0F5 27A0F6 000002 04 00           Size              0004
27A0F7 27A0FA 000004 20 00 00 00     Attribute         00000020
                                       [Bit 5]         FCH$M_CONTIGB
27A0FB 27A0FC 000002 11 00         Tag# 0003           0011 'ATR$C_CREDATE'
27A0FD 27A0FE 000002 08 00           Size              0008
27A0FF 27A106 000008 F7 75 4B 4E     Attribute         00A58DDA4E4B75F7 'Tue Jul 18 10:06:30
                     DA 8D A5 00                       2006 781343100ns'
27A107 27A108 000002 12 00         Tag# 0004           0012 'ATR$C_REVDATE'
27A109 27A10A 000002 08 00           Size              0008
27A10B 27A112 000008 97 1E 37 CF     Attribute         00A59D9BCF371E97 'Mon Aug  7 11:19:27
                     9B 9D A5 00                       2006 384597500ns'
27A113 27A114 000002 13 00         Tag# 0005           0013 'ATR$C_EXPDATE'
27A115 27A116 000002 08 00           Size              0008
27A117 27A11E 000008 00 00 00 00     Attribute         0000000000000000 'No Date Time'
                     00 00 00 00
27A11F 27A120 000002 14 00         Tag# 0006           0014 'ATR$C_BAKDATE'
27A121 27A122 000002 08 00           Size              0008
27A123 27A12A 000008 00 00 00 00     Attribute         0000000000000000 'No Date Time'
                     00 00 00 00
27A12B 27A12C 000002 0D 00         Tag# 0007           000D 'ATR$C_ASCDATES'
27A12D 27A12E 000002 02 00           Size              0002
27A12F 27A130 000002 0D 00           Attribute         000D'Revision Count 000D'
27A131 27A132 000002 15 00         Tag# 0008           0015 'ATR$C_UIC'
27A133 27A134 000002 04 00           Size              0004
27A135 27A138 000004 04 00 01 00     Attribute         00010004
27A139 27A13A 000002 16 00         Tag# 0009           0016 'ATR$C_FPRO'
27A13B 27A13C 000002 02 00           Size              0002
27A13D 27A13E 000002 AA AA           Attribute         AA AA
27A13F 27A140 000002 17 00         Tag# 000A           0017 'ATR$C_RPRO'
27A141 27A142 000002 02 00           Size              0002
27A143 27A144 000002 00 00           Attribute         0000
27A145 27A146 000002 1D 00         Tag# 000B           001D 'ATR$C_JOURNAL'
27A147 27A148 000002 01 00           Size              0001
27A149 27A149 000001 00              Attribute         00

27A14A 27A14D 000004 50 4B 01 02 CENTRAL HEADER #5     02014B50
27A14E 27A14E 000001 17          Created Zip Spec      17 '2.3'
27A14F 27A14F 000001 02          Created OS            02 'OpenVMS'
27A150 27A150 000001 0A          Extract Zip Spec      0A '1.0'
27A151 27A151 000001 00          Extract OS            00 'MS-DOS'
27A152 27A153 000002 00 00       General Purpose Flag  0000
27A154 27A155 000002 00 00       Compression Method    0000 'Stored'
27A156 27A159 000004 C3 70 EF 34 Last Mod Time         34EF70C3 'Sat Jul 15 14:06:06 2006'
27A15A 27A15D 000004 79 5E D8 E2 CRC                   E2D85E79
27A15E 27A161 000004 A0 CA 1E 00 Compressed Length     001ECAA0
27A162 27A165 000004 A0 CA 1E 00 Uncompressed Length   001ECAA0
27A166 27A167 000002 0B 00       Filename Length       000B
27A168 27A169 000002 83 00       Extra Length          0083
27A16A 27A16B 000002 00 00       Comment Length        0000
27A16C 27A16D 000002 00 00       Disk Start            0000
27A16E 27A16F 000002 00 00       Int File Attributes   0000
                                 [Bit 0]               0 'Binary Data'
27A170 27A173 000004 01 00 6D 81 Ext File Attributes   816D0001
                                 [Bit 0]               Read-Only
27A174 27A177 000004 7C CD 02 00 Local Header Offset   0002CD7C
27A178 27A182 00000B 7A 69 70 2F Filename              'zip/zip.zip'
                     7A 69 70 2E
                     7A 69 70
27A183 27A184 000002 0C 00       Extra ID #0001        000C 'OpenVMS'
27A185 27A186 000002 7F 00         Length              007F
27A187 27A18A 000004 77 32 76 99   CRC                 99763277
27A18B 27A18C 000002 04 00         Tag# 0001           0004 'ATR$C_RECATTR'
27A18D 27A18E 000002 20 00           Size              0020
27A18F 27A1AE 000020 05 02 00 00     Attribute         05 02 00 00 00 00 70 0F 00 00 66 0F
                     00 00 70 0F                       A0 00 00 00 00 00 00 00 00 00 00 00
                     00 00 66 0F                       00 00 00 00 00 00 00 00
                     A0 00 00 00
                     00 00 00 00
                     00 00 00 00
                     00 00 00 00
                     00 00 00 00
27A1AF 27A1B0 000002 03 00         Tag# 0002           0003 'ATR$C_UCHAR'
27A1B1 27A1B2 000002 04 00           Size              0004
27A1B3 27A1B6 000004 00 00 00 00     Attribute         00000000
27A1B7 27A1B8 000002 11 00         Tag# 0003           0011 'ATR$C_CREDATE'
27A1B9 27A1BA 000002 08 00           Size              0008
27A1BB 27A1C2 000008 00 1B 08 47     Attribute         00A58BA047081B00 'Sat Jul 15 14:06:05
                     A0 8B A5 00                       2006 460000000ns'
27A1C3 27A1C4 000002 12 00         Tag# 0004           0012 'ATR$C_REVDATE'
27A1C5 27A1C6 000002 08 00           Size              0008
27A1C7 27A1CE 000008 E0 C8 43 CF     Attribute         00A59D9BCF43C8E0 'Mon Aug  7 11:19:27
                     9B 9D A5 00                       2006 467600000ns'
27A1CF 27A1D0 000002 13 00         Tag# 0005           0013 'ATR$C_EXPDATE'
27A1D1 27A1D2 000002 08 00           Size              0008
27A1D3 27A1DA 000008 00 00 00 00     Attribute         0000000000000000 'No Date Time'
                     00 00 00 00
27A1DB 27A1DC 000002 14 00         Tag# 0006           0014 'ATR$C_BAKDATE'
27A1DD 27A1DE 000002 08 00           Size              0008
27A1DF 27A1E6 000008 00 00 00 00     Attribute         0000000000000000 'No Date Time'
                     00 00 00 00
27A1E7 27A1E8 000002 0D 00         Tag# 0007           000D 'ATR$C_ASCDATES'
27A1E9 27A1EA 000002 02 00           Size              0002
27A1EB 27A1EC 000002 0C 00           Attribute         000C'Revision Count 000C'
27A1ED 27A1EE 000002 15 00         Tag# 0008           0015 'ATR$C_UIC'
27A1EF 27A1F0 000002 04 00           Size              0004
27A1F1 27A1F4 000004 04 00 01 00     Attribute         00010004
27A1F5 27A1F6 000002 16 00         Tag# 0009           0016 'ATR$C_FPRO'
27A1F7 27A1F8 000002 02 00           Size              0002
27A1F9 27A1FA 000002 AA AA           Attribute         AA AA
27A1FB 27A1FC 000002 17 00         Tag# 000A           0017 'ATR$C_RPRO'
27A1FD 27A1FE 000002 02 00           Size              0002
27A1FF 27A200 000002 00 00           Attribute         0000
27A201 27A202 000002 1D 00         Tag# 000B           001D 'ATR$C_JOURNAL'
27A203 27A204 000002 01 00           Size              0001
27A205 27A205 000001 00              Attribute         00

27A206 27A209 000004 50 4B 01 02 CENTRAL HEADER #6     02014B50
27A20A 27A20A 000001 17          Created Zip Spec      17 '2.3'
27A20B 27A20B 000001 02          Created OS            02 'OpenVMS'
27A20C 27A20C 000001 14          Extract Zip Spec      14 '2.0'
27A20D 27A20D 000001 00          Extract OS            00 'MS-DOS'
27A20E 27A20F 000002 00 00       General Purpose Flag  0000
                                 [Bits 1-2]            0 'Normal Compression'
27A210 27A211 000002 08 00       Compression Method    0008 'Deflated'
27A212 27A215 000004 B8 50 F2 34 Last Mod Time         34F250B8 'Tue Jul 18 10:05:48 2006'
27A216 27A219 000004 7C CF 6E 33 CRC                   336ECF7C
27A21A 27A21D 000004 30 55 00 00 Compressed Length     00005530
27A21E 27A221 000004 00 AA 00 00 Uncompressed Length   0000AA00
27A222 27A223 000002 14 00       Filename Length       0014
27A224 27A225 000002 83 00       Extra Length          0083
27A226 27A227 000002 00 00       Comment Length        0000
27A228 27A229 000002 00 00       Disk Start            0000
27A22A 27A22B 000002 00 00       Int File Attributes   0000
                                 [Bit 0]               0 'Binary Data'
27A22C 27A22F 000004 01 00 6D 81 Ext File Attributes   816D0001
                                 [Bit 0]               Read-Only
27A230 27A233 000004 C8 98 21 00 Local Header Offset   002198C8
27A234 27A247 000014 7A 69 70 2F Filename              'zip/zipcloak.axp_exe'
                     7A 69 70 63
                     6C 6F 61 6B
                     2E 61 78 70
                     5F 65 78 65
27A248 27A249 000002 0C 00       Extra ID #0001        000C 'OpenVMS'
27A24A 27A24B 000002 7F 00         Length              007F
27A24C 27A24F 000004 BB 76 07 35   CRC                 350776BB
27A250 27A251 000002 04 00         Tag# 0001           0004 'ATR$C_RECATTR'
27A252 27A253 000002 20 00           Size              0020
27A254 27A273 000020 01 00 00 02     Attribute         01 00 00 02 00 00 60 00 00 00 56 00
                     00 00 60 00                       00 00 00 00 00 02 00 00 00 00 00 00
                     00 00 56 00                       00 00 00 00 00 00 00 00
                     00 00 00 00
                     00 02 00 00
                     00 00 00 00
                     00 00 00 00
                     00 00 00 00
27A274 27A275 000002 03 00         Tag# 0002           0003 'ATR$C_UCHAR'
27A276 27A277 000002 04 00           Size              0004
27A278 27A27B 000004 20 00 00 00     Attribute         00000020
                                       [Bit 5]         FCH$M_CONTIGB
27A27C 27A27D 000002 11 00         Tag# 0003           0011 'ATR$C_CREDATE'
27A27E 27A27F 000002 08 00           Size              0008
27A280 27A287 000008 63 9B 77 34     Attribute         00A58DDA34779B63 'Tue Jul 18 10:05:47
                     DA 8D A5 00                       2006 449897900ns'
27A288 27A289 000002 12 00         Tag# 0004           0012 'ATR$C_REVDATE'
27A28A 27A28B 000002 08 00           Size              0008
27A28C 27A293 000008 29 73 50 CF     Attribute         00A59D9BCF507329 'Mon Aug  7 11:19:27
                     9B 9D A5 00                       2006 550602500ns'
27A294 27A295 000002 13 00         Tag# 0005           0013 'ATR$C_EXPDATE'
27A296 27A297 000002 08 00           Size              0008
27A298 27A29F 000008 00 00 00 00     Attribute         0000000000000000 'No Date Time'
                     00 00 00 00
27A2A0 27A2A1 000002 14 00         Tag# 0006           0014 'ATR$C_BAKDATE'
27A2A2 27A2A3 000002 08 00           Size              0008
27A2A4 27A2AB 000008 00 00 00 00     Attribute         0000000000000000 'No Date Time'
                     00 00 00 00
27A2AC 27A2AD 000002 0D 00         Tag# 0007           000D 'ATR$C_ASCDATES'
27A2AE 27A2AF 000002 02 00           Size              0002
27A2B0 27A2B1 000002 0D 00           Attribute         000D'Revision Count 000D'
27A2B2 27A2B3 000002 15 00         Tag# 0008           0015 'ATR$C_UIC'
27A2B4 27A2B5 000002 04 00           Size              0004
27A2B6 27A2B9 000004 04 00 01 00     Attribute         00010004
27A2BA 27A2BB 000002 16 00         Tag# 0009           0016 'ATR$C_FPRO'
27A2BC 27A2BD 000002 02 00           Size              0002
27A2BE 27A2BF 000002 AA AA           Attribute         AA AA
27A2C0 27A2C1 000002 17 00         Tag# 000A           0017 'ATR$C_RPRO'
27A2C2 27A2C3 000002 02 00           Size              0002
27A2C4 27A2C5 000002 00 00           Attribute         0000
27A2C6 27A2C7 000002 1D 00         Tag# 000B           001D 'ATR$C_JOURNAL'
27A2C8 27A2C9 000002 01 00           Size              0001
27A2CA 27A2CA 000001 00              Attribute         00

27A2CB 27A2CE 000004 50 4B 01 02 CENTRAL HEADER #7     02014B50
27A2CF 27A2CF 000001 17          Created Zip Spec      17 '2.3'
27A2D0 27A2D0 000001 02          Created OS            02 'OpenVMS'
27A2D1 27A2D1 000001 14          Extract Zip Spec      14 '2.0'
27A2D2 27A2D2 000001 00          Extract OS            00 'MS-DOS'
27A2D3 27A2D4 000002 00 00       General Purpose Flag  0000
                                 [Bits 1-2]            0 'Normal Compression'
27A2D5 27A2D6 000002 08 00       Compression Method    0008 'Deflated'
27A2D7 27A2DA 000004 C0 49 F2 34 Last Mod Time         34F249C0 'Tue Jul 18 09:14:00 2006'
27A2DB 27A2DE 000004 EA 9D AE 18 CRC                   18AE9DEA
27A2DF 27A2E2 000004 E3 81 00 00 Compressed Length     000081E3
27A2E3 27A2E6 000004 00 B2 01 00 Uncompressed Length   0001B200
27A2E7 27A2E8 000002 14 00       Filename Length       0014
27A2E9 27A2EA 000002 83 00       Extra Length          0083
27A2EB 27A2EC 000002 00 00       Comment Length        0000
27A2ED 27A2EE 000002 00 00       Disk Start            0000
27A2EF 27A2F0 000002 00 00       Int File Attributes   0000
                                 [Bit 0]               0 'Binary Data'
27A2F1 27A2F4 000004 01 00 6D 81 Ext File Attributes   816D0001
                                 [Bit 0]               Read-Only
27A2F5 27A2F8 000004 AD EE 21 00 Local Header Offset   0021EEAD
27A2F9 27A30C 000014 7A 69 70 2F Filename              'zip/zipcloak.i64_exe'
                     7A 69 70 63
                     6C 6F 61 6B
                     2E 69 36 34
                     5F 65 78 65
27A30D 27A30E 000002 0C 00       Extra ID #0001        000C 'OpenVMS'
27A30F 27A310 000002 7F 00         Length              007F
27A311 27A314 000004 6B C9 C0 42   CRC                 42C0C96B
27A315 27A316 000002 04 00         Tag# 0001           0004 'ATR$C_RECATTR'
27A317 27A318 000002 20 00           Size              0020
27A319 27A338 000020 01 00 00 02     Attribute         01 00 00 02 00 00 E0 00 00 00 DA 00
                     00 00 E0 00                       00 00 00 00 00 02 00 00 00 00 00 00
                     00 00 DA 00                       00 00 00 00 00 00 00 00
                     00 00 00 00
                     00 02 00 00
                     00 00 00 00
                     00 00 00 00
                     00 00 00 00
27A339 27A33A 000002 03 00         Tag# 0002           0003 'ATR$C_UCHAR'
27A33B 27A33C 000002 04 00           Size              0004
27A33D 27A340 000004 20 00 00 00     Attribute         00000020
                                       [Bit 5]         FCH$M_CONTIGB
27A341 27A342 000002 11 00         Tag# 0003           0011 'ATR$C_CREDATE'
27A343 27A344 000002 08 00           Size              0008
27A345 27A34C 000008 20 9D FD F7     Attribute         00A58DD2F7FD9D20 'Tue Jul 18 09:13:59
                     D2 8D A5 00                       2006 510000000ns'
27A34D 27A34E 000002 12 00         Tag# 0004           0012 'ATR$C_REVDATE'
27A34F 27A350 000002 08 00           Size              0008
27A351 27A358 000008 97 43 5D CF     Attribute         00A59D9BCF5D4397 'Mon Aug  7 11:19:27
                     9B 9D A5 00                       2006 634581500ns'
27A359 27A35A 000002 13 00         Tag# 0005           0013 'ATR$C_EXPDATE'
27A35B 27A35C 000002 08 00           Size              0008
27A35D 27A364 000008 00 00 00 00     Attribute         0000000000000000 'No Date Time'
                     00 00 00 00
27A365 27A366 000002 14 00         Tag# 0006           0014 'ATR$C_BAKDATE'
27A367 27A368 000002 08 00           Size              0008
27A369 27A370 000008 00 00 00 00     Attribute         0000000000000000 'No Date Time'
                     00 00 00 00
27A371 27A372 000002 0D 00         Tag# 0007           000D 'ATR$C_ASCDATES'
27A373 27A374 000002 02 00           Size              0002
27A375 27A376 000002 0E 00           Attribute         000E'Revision Count 000E'
27A377 27A378 000002 15 00         Tag# 0008           0015 'ATR$C_UIC'
27A379 27A37A 000002 04 00           Size              0004
27A37B 27A37E 000004 04 00 01 00     Attribute         00010004
27A37F 27A380 000002 16 00         Tag# 0009           0016 'ATR$C_FPRO'
27A381 27A382 000002 02 00           Size              0002
27A383 27A384 000002 AA AA           Attribute         AA AA
27A385 27A386 000002 17 00         Tag# 000A           0017 'ATR$C_RPRO'
27A387 27A388 000002 02 00           Size              0002
27A389 27A38A 000002 00 00           Attribute         0000
27A38B 27A38C 000002 1D 00         Tag# 000B           001D 'ATR$C_JOURNAL'
27A38D 27A38E 000002 01 00           Size              0001
27A38F 27A38F 000001 00              Attribute         00

27A390 27A393 000004 50 4B 01 02 CENTRAL HEADER #8     02014B50
27A394 27A394 000001 17          Created Zip Spec      17 '2.3'
27A395 27A395 000001 02          Created OS            02 'OpenVMS'
27A396 27A396 000001 14          Extract Zip Spec      14 '2.0'
27A397 27A397 000001 00          Extract OS            00 'MS-DOS'
27A398 27A399 000002 00 00       General Purpose Flag  0000
                                 [Bits 1-2]            0 'Normal Compression'
27A39A 27A39B 000002 08 00       Compression Method    0008 'Deflated'
27A39C 27A39F 000004 D1 50 F2 34 Last Mod Time         34F250D1 'Tue Jul 18 10:06:34 2006'
27A3A0 27A3A3 000004 B9 34 8B 46 CRC                   468B34B9
27A3A4 27A3A7 000004 8B 30 00 00 Compressed Length     0000308B
27A3A8 27A3AB 000004 00 68 00 00 Uncompressed Length   00006800
27A3AC 27A3AD 000002 19 00       Filename Length       0019
27A3AE 27A3AF 000002 83 00       Extra Length          0083
27A3B0 27A3B1 000002 00 00       Comment Length        0000
27A3B2 27A3B3 000002 00 00       Disk Start            0000
27A3B4 27A3B5 000002 00 00       Int File Attributes   0000
                                 [Bit 0]               0 'Binary Data'
27A3B6 27A3B9 000004 01 00 6D 81 Ext File Attributes   816D0001
                                 [Bit 0]               Read-Only
27A3BA 27A3BD 000004 45 71 22 00 Local Header Offset   00227145
27A3BE 27A3D6 000019 7A 69 70 2F Filename              'zip/zipcloak.vax_vaxc_exe'
                     7A 69 70 63
                     6C 6F 61 6B
                     2E 76 61 78
                     5F 76 61 78
                     63 5F 65 78
                     65
27A3D7 27A3D8 000002 0C 00       Extra ID #0001        000C 'OpenVMS'
27A3D9 27A3DA 000002 7F 00         Length              007F
27A3DB 27A3DE 000004 7B B8 0C 1C   CRC                 1C0CB87B
27A3DF 27A3E0 000002 04 00         Tag# 0001           0004 'ATR$C_RECATTR'
27A3E1 27A3E2 000002 20 00           Size              0020
27A3E3 27A402 000020 01 00 00 02     Attribute         01 00 00 02 00 00 38 00 00 00 35 00
                     00 00 38 00                       00 00 00 00 00 02 00 00 00 00 00 00
                     00 00 35 00                       00 00 00 00 00 00 00 00
                     00 00 00 00
                     00 02 00 00
                     00 00 00 00
                     00 00 00 00
                     00 00 00 00
27A403 27A404 000002 03 00         Tag# 0002           0003 'ATR$C_UCHAR'
27A405 27A406 000002 04 00           Size              0004
27A407 27A40A 000004 20 00 00 00     Attribute         00000020
                                       [Bit 5]         FCH$M_CONTIGB
27A40B 27A40C 000002 11 00         Tag# 0003           0011 'ATR$C_CREDATE'
27A40D 27A40E 000002 08 00           Size              0008
27A40F 27A416 000008 77 9A F0 4F     Attribute         00A58DDA4FF09A77 'Tue Jul 18 10:06:33
                     DA 8D A5 00                       2006 541343100ns'
27A417 27A418 000002 12 00         Tag# 0004           0012 'ATR$C_REVDATE'
27A419 27A41A 000002 08 00           Size              0008
27A41B 27A422 000008 B8 BC 68 CF     Attribute         00A59D9BCF68BCB8 'Mon Aug  7 11:19:27
                     9B 9D A5 00                       2006 709772000ns'
27A423 27A424 000002 13 00         Tag# 0005           0013 'ATR$C_EXPDATE'
27A425 27A426 000002 08 00           Size              0008
27A427 27A42E 000008 00 00 00 00     Attribute         0000000000000000 'No Date Time'
                     00 00 00 00
27A42F 27A430 000002 14 00         Tag# 0006           0014 'ATR$C_BAKDATE'
27A431 27A432 000002 08 00           Size              0008
27A433 27A43A 000008 00 00 00 00     Attribute         0000000000000000 'No Date Time'
                     00 00 00 00
27A43B 27A43C 000002 0D 00         Tag# 0007           000D 'ATR$C_ASCDATES'
27A43D 27A43E 000002 02 00           Size              0002
27A43F 27A440 000002 0D 00           Attribute         000D'Revision Count 000D'
27A441 27A442 000002 15 00         Tag# 0008           0015 'ATR$C_UIC'
27A443 27A444 000002 04 00           Size              0004
27A445 27A448 000004 04 00 01 00     Attribute         00010004
27A449 27A44A 000002 16 00         Tag# 0009           0016 'ATR$C_FPRO'
27A44B 27A44C 000002 02 00           Size              0002
27A44D 27A44E 000002 AA AA           Attribute         AA AA
27A44F 27A450 000002 17 00         Tag# 000A           0017 'ATR$C_RPRO'
27A451 27A452 000002 02 00           Size              0002
27A453 27A454 000002 00 00           Attribute         0000
27A455 27A456 000002 1D 00         Tag# 000B           001D 'ATR$C_JOURNAL'
27A457 27A458 000002 01 00           Size              0001
27A459 27A459 000001 00              Attribute         00

27A45A 27A45D 000004 50 4B 01 02 CENTRAL HEADER #9     02014B50
27A45E 27A45E 000001 17          Created Zip Spec      17 '2.3'
27A45F 27A45F 000001 02          Created OS            02 'OpenVMS'
27A460 27A460 000001 14          Extract Zip Spec      14 '2.0'
27A461 27A461 000001 00          Extract OS            00 'MS-DOS'
27A462 27A463 000002 00 00       General Purpose Flag  0000
                                 [Bits 1-2]            0 'Normal Compression'
27A464 27A465 000002 08 00       Compression Method    0008 'Deflated'
27A466 27A469 000004 B8 50 F2 34 Last Mod Time         34F250B8 'Tue Jul 18 10:05:48 2006'
27A46A 27A46D 000004 01 27 04 91 CRC                   91042701
27A46E 27A471 000004 9E 49 00 00 Compressed Length     0000499E
27A472 27A475 000004 00 98 00 00 Uncompressed Length   00009800
27A476 27A477 000002 13 00       Filename Length       0013
27A478 27A479 000002 83 00       Extra Length          0083
27A47A 27A47B 000002 00 00       Comment Length        0000
27A47C 27A47D 000002 00 00       Disk Start            0000
27A47E 27A47F 000002 00 00       Int File Attributes   0000
                                 [Bit 0]               0 'Binary Data'
27A480 27A483 000004 01 00 6D 81 Ext File Attributes   816D0001
                                 [Bit 0]               Read-Only
27A484 27A487 000004 8A A2 22 00 Local Header Offset   0022A28A
27A488 27A49A 000013 7A 69 70 2F Filename              'zip/zipnote.axp_exe'
                     7A 69 70 6E
                     6F 74 65 2E
                     61 78 70 5F
                     65 78 65
27A49B 27A49C 000002 0C 00       Extra ID #0001        000C 'OpenVMS'
27A49D 27A49E 000002 7F 00         Length              007F
27A49F 27A4A2 000004 EA EF 69 1E   CRC                 1E69EFEA
27A4A3 27A4A4 000002 04 00         Tag# 0001           0004 'ATR$C_RECATTR'
27A4A5 27A4A6 000002 20 00           Size              0020
27A4A7 27A4C6 000020 01 00 00 02     Attribute         01 00 00 02 00 00 50 00 00 00 4D 00
                     00 00 50 00                       00 00 00 00 00 02 00 00 00 00 00 00
                     00 00 4D 00                       00 00 00 00 00 00 00 00
                     00 00 00 00
                     00 02 00 00
                     00 00 00 00
                     00 00 00 00
                     00 00 00 00
27A4C7 27A4C8 000002 03 00         Tag# 0002           0003 'ATR$C_UCHAR'
27A4C9 27A4CA 000002 04 00           Size              0004
27A4CB 27A4CE 000004 20 00 00 00     Attribute         00000020
                                       [Bit 5]         FCH$M_CONTIGB
27A4CF 27A4D0 000002 11 00         Tag# 0003           0011 'ATR$C_CREDATE'
27A4D1 27A4D2 000002 08 00           Size              0008
27A4D3 27A4DA 000008 92 77 81 34     Attribute         00A58DDA34817792 'Tue Jul 18 10:05:47
                     DA 8D A5 00                       2006 514517000ns'
27A4DB 27A4DC 000002 12 00         Tag# 0004           0012 'ATR$C_REVDATE'
27A4DD 27A4DE 000002 08 00           Size              0008
27A4DF 27A4E6 000008 D9 35 74 CF     Attribute         00A59D9BCF7435D9 'Mon Aug  7 11:19:27
                     9B 9D A5 00                       2006 784962500ns'
27A4E7 27A4E8 000002 13 00         Tag# 0005           0013 'ATR$C_EXPDATE'
27A4E9 27A4EA 000002 08 00           Size              0008
27A4EB 27A4F2 000008 00 00 00 00     Attribute         0000000000000000 'No Date Time'
                     00 00 00 00
27A4F3 27A4F4 000002 14 00         Tag# 0006           0014 'ATR$C_BAKDATE'
27A4F5 27A4F6 000002 08 00           Size              0008
27A4F7 27A4FE 000008 00 00 00 00     Attribute         0000000000000000 'No Date Time'
                     00 00 00 00
27A4FF 27A500 000002 0D 00         Tag# 0007           000D 'ATR$C_ASCDATES'
27A501 27A502 000002 02 00           Size              0002
27A503 27A504 000002 0D 00           Attribute         000D'Revision Count 000D'
27A505 27A506 000002 15 00         Tag# 0008           0015 'ATR$C_UIC'
27A507 27A508 000002 04 00           Size              0004
27A509 27A50C 000004 04 00 01 00     Attribute         00010004
27A50D 27A50E 000002 16 00         Tag# 0009           0016 'ATR$C_FPRO'
27A50F 27A510 000002 02 00           Size              0002
27A511 27A512 000002 AA AA           Attribute         AA AA
27A513 27A514 000002 17 00         Tag# 000A           0017 'ATR$C_RPRO'
27A515 27A516 000002 02 00           Size              0002
27A517 27A518 000002 00 00           Attribute         0000
27A519 27A51A 000002 1D 00         Tag# 000B           001D 'ATR$C_JOURNAL'
27A51B 27A51C 000002 01 00           Size              0001
27A51D 27A51D 000001 00              Attribute         00

27A51E 27A521 000004 50 4B 01 02 CENTRAL HEADER #A     02014B50
27A522 27A522 000001 17          Created Zip Spec      17 '2.3'
27A523 27A523 000001 02          Created OS            02 'OpenVMS'
27A524 27A524 000001 14          Extract Zip Spec      14 '2.0'
27A525 27A525 000001 00          Extract OS            00 'MS-DOS'
27A526 27A527 000002 00 00       General Purpose Flag  0000
                                 [Bits 1-2]            0 'Normal Compression'
27A528 27A529 000002 08 00       Compression Method    0008 'Deflated'
27A52A 27A52D 000004 C0 49 F2 34 Last Mod Time         34F249C0 'Tue Jul 18 09:14:00 2006'
27A52E 27A531 000004 C8 0E 14 24 CRC                   24140EC8
27A532 27A535 000004 E0 6B 00 00 Compressed Length     00006BE0
27A536 27A539 000004 00 84 01 00 Uncompressed Length   00018400
27A53A 27A53B 000002 13 00       Filename Length       0013
27A53C 27A53D 000002 83 00       Extra Length          0083
27A53E 27A53F 000002 00 00       Comment Length        0000
27A540 27A541 000002 00 00       Disk Start            0000
27A542 27A543 000002 00 00       Int File Attributes   0000
                                 [Bit 0]               0 'Binary Data'
27A544 27A547 000004 01 00 6D 81 Ext File Attributes   816D0001
                                 [Bit 0]               Read-Only
27A548 27A54B 000004 DC EC 22 00 Local Header Offset   0022ECDC
27A54C 27A55E 000013 7A 69 70 2F Filename              'zip/zipnote.i64_exe'
                     7A 69 70 6E
                     6F 74 65 2E
                     69 36 34 5F
                     65 78 65
27A55F 27A560 000002 0C 00       Extra ID #0001        000C 'OpenVMS'
27A561 27A562 000002 7F 00         Length              007F
27A563 27A566 000004 1F 6A 1B CD   CRC                 CD1B6A1F
27A567 27A568 000002 04 00         Tag# 0001           0004 'ATR$C_RECATTR'
27A569 27A56A 000002 20 00           Size              0020
27A56B 27A58A 000020 01 00 00 02     Attribute         01 00 00 02 00 00 C8 00 00 00 C3 00
                     00 00 C8 00                       00 00 00 00 00 02 00 00 00 00 00 00
                     00 00 C3 00                       00 00 00 00 00 00 00 00
                     00 00 00 00
                     00 02 00 00
                     00 00 00 00
                     00 00 00 00
                     00 00 00 00
27A58B 27A58C 000002 03 00         Tag# 0002           0003 'ATR$C_UCHAR'
27A58D 27A58E 000002 04 00           Size              0004
27A58F 27A592 000004 20 00 00 00     Attribute         00000020
                                       [Bit 5]         FCH$M_CONTIGB
27A593 27A594 000002 11 00         Tag# 0003           0011 'ATR$C_CREDATE'
27A595 27A596 000002 08 00           Size              0008
27A597 27A59E 000008 40 29 47 F8     Attribute         00A58DD2F8472940 'Tue Jul 18 09:13:59
                     D2 8D A5 00                       2006 992000000ns'
27A59F 27A5A0 000002 12 00         Tag# 0004           0012 'ATR$C_REVDATE'
27A5A1 27A5A2 000002 08 00           Size              0008
27A5A3 27A5AA 000008 FA AE 7F CF     Attribute         00A59D9BCF7FAEFA 'Mon Aug  7 11:19:27
                     9B 9D A5 00                       2006 860153000ns'
27A5AB 27A5AC 000002 13 00         Tag# 0005           0013 'ATR$C_EXPDATE'
27A5AD 27A5AE 000002 08 00           Size              0008
27A5AF 27A5B6 000008 00 00 00 00     Attribute         0000000000000000 'No Date Time'
                     00 00 00 00
27A5B7 27A5B8 000002 14 00         Tag# 0006           0014 'ATR$C_BAKDATE'
27A5B9 27A5BA 000002 08 00           Size              0008
27A5BB 27A5C2 000008 00 00 00 00     Attribute         0000000000000000 'No Date Time'
                     00 00 00 00
27A5C3 27A5C4 000002 0D 00         Tag# 0007           000D 'ATR$C_ASCDATES'
27A5C5 27A5C6 000002 02 00           Size              0002
27A5C7 27A5C8 000002 0E 00           Attribute         000E'Revision Count 000E'
27A5C9 27A5CA 000002 15 00         Tag# 0008           0015 'ATR$C_UIC'
27A5CB 27A5CC 000002 04 00           Size              0004
27A5CD 27A5D0 000004 04 00 01 00     Attribute         00010004
27A5D1 27A5D2 000002 16 00         Tag# 0009           0016 'ATR$C_FPRO'
27A5D3 27A5D4 000002 02 00           Size              0002
27A5D5 27A5D6 000002 AA AA           Attribute         AA AA
27A5D7 27A5D8 000002 17 00         Tag# 000A           0017 'ATR$C_RPRO'
27A5D9 27A5DA 000002 02 00           Size              0002
27A5DB 27A5DC 000002 00 00           Attribute         0000
27A5DD 27A5DE 000002 1D 00         Tag# 000B           001D 'ATR$C_JOURNAL'
27A5DF 27A5E0 000002 01 00           Size              0001
27A5E1 27A5E1 000001 00              Attribute         00

27A5E2 27A5E5 000004 50 4B 01 02 CENTRAL HEADER #B     02014B50
27A5E6 27A5E6 000001 17          Created Zip Spec      17 '2.3'
27A5E7 27A5E7 000001 02          Created OS            02 'OpenVMS'
27A5E8 27A5E8 000001 14          Extract Zip Spec      14 '2.0'
27A5E9 27A5E9 000001 00          Extract OS            00 'MS-DOS'
27A5EA 27A5EB 000002 00 00       General Purpose Flag  0000
                                 [Bits 1-2]            0 'Normal Compression'
27A5EC 27A5ED 000002 08 00       Compression Method    0008 'Deflated'
27A5EE 27A5F1 000004 D1 50 F2 34 Last Mod Time         34F250D1 'Tue Jul 18 10:06:34 2006'
27A5F2 27A5F5 000004 6C 2C B1 37 CRC                   37B12C6C
27A5F6 27A5F9 000004 26 2A 00 00 Compressed Length     00002A26
27A5FA 27A5FD 000004 00 60 00 00 Uncompressed Length   00006000
27A5FE 27A5FF 000002 18 00       Filename Length       0018
27A600 27A601 000002 83 00       Extra Length          0083
27A602 27A603 000002 00 00       Comment Length        0000
27A604 27A605 000002 00 00       Disk Start            0000
27A606 27A607 000002 00 00       Int File Attributes   0000
                                 [Bit 0]               0 'Binary Data'
27A608 27A60B 000004 01 00 6D 81 Ext File Attributes   816D0001
                                 [Bit 0]               Read-Only
27A60C 27A60F 000004 70 59 23 00 Local Header Offset   00235970
27A610 27A627 000018 7A 69 70 2F Filename              'zip/zipnote.vax_vaxc_exe'
                     7A 69 70 6E
                     6F 74 65 2E
                     76 61 78 5F
                     76 61 78 63
                     5F 65 78 65
27A628 27A629 000002 0C 00       Extra ID #0001        000C 'OpenVMS'
27A62A 27A62B 000002 7F 00         Length              007F
27A62C 27A62F 000004 AD 3A D8 89   CRC                 89D83AAD
27A630 27A631 000002 04 00         Tag# 0001           0004 'ATR$C_RECATTR'
27A632 27A633 000002 20 00           Size              0020
27A634 27A653 000020 01 00 00 02     Attribute         01 00 00 02 00 00 30 00 00 00 31 00
                     00 00 30 00                       00 00 00 00 00 02 00 00 00 00 00 00
                     00 00 31 00                       00 00 00 00 00 00 00 00
                     00 00 00 00
                     00 02 00 00
                     00 00 00 00
                     00 00 00 00
                     00 00 00 00
27A654 27A655 000002 03 00         Tag# 0002           0003 'ATR$C_UCHAR'
27A656 27A657 000002 04 00           Size              0004
27A658 27A65B 000004 20 00 00 00     Attribute         00000020
                                       [Bit 5]         FCH$M_CONTIGB
27A65C 27A65D 000002 11 00         Tag# 0003           0011 'ATR$C_CREDATE'
27A65E 27A65F 000002 08 00           Size              0008
27A660 27A667 000008 57 40 6F 50     Attribute         00A58DDA506F4057 'Tue Jul 18 10:06:34
                     DA 8D A5 00                       2006 371343100ns'
27A668 27A669 000002 12 00         Tag# 0004           0012 'ATR$C_REVDATE'
27A66A 27A66B 000002 08 00           Size              0008
27A66C 27A673 000008 59 48 87 CF     Attribute         00A59D9BCF874859 'Mon Aug  7 11:19:27
                     9B 9D A5 00                       2006 909954500ns'
27A674 27A675 000002 13 00         Tag# 0005           0013 'ATR$C_EXPDATE'
27A676 27A677 000002 08 00           Size              0008
27A678 27A67F 000008 00 00 00 00     Attribute         0000000000000000 'No Date Time'
                     00 00 00 00
27A680 27A681 000002 14 00         Tag# 0006           0014 'ATR$C_BAKDATE'
27A682 27A683 000002 08 00           Size              0008
27A684 27A68B 000008 00 00 00 00     Attribute         0000000000000000 'No Date Time'
                     00 00 00 00
27A68C 27A68D 000002 0D 00         Tag# 0007           000D 'ATR$C_ASCDATES'
27A68E 27A68F 000002 02 00           Size              0002
27A690 27A691 000002 0D 00           Attribute         000D'Revision Count 000D'
27A692 27A693 000002 15 00         Tag# 0008           0015 'ATR$C_UIC'
27A694 27A695 000002 04 00           Size              0004
27A696 27A699 000004 04 00 01 00     Attribute         00010004
27A69A 27A69B 000002 16 00         Tag# 0009           0016 'ATR$C_FPRO'
27A69C 27A69D 000002 02 00           Size              0002
27A69E 27A69F 000002 AA AA           Attribute         AA AA
27A6A0 27A6A1 000002 17 00         Tag# 000A           0017 'ATR$C_RPRO'
27A6A2 27A6A3 000002 02 00           Size              0002
27A6A4 27A6A5 000002 00 00           Attribute         0000
27A6A6 27A6A7 000002 1D 00         Tag# 000B           001D 'ATR$C_JOURNAL'
27A6A8 27A6A9 000002 01 00           Size              0001
27A6AA 27A6AA 000001 00              Attribute         00

27A6AB 27A6AE 000004 50 4B 01 02 CENTRAL HEADER #C     02014B50
27A6AF 27A6AF 000001 17          Created Zip Spec      17 '2.3'
27A6B0 27A6B0 000001 02          Created OS            02 'OpenVMS'
27A6B1 27A6B1 000001 14          Extract Zip Spec      14 '2.0'
27A6B2 27A6B2 000001 00          Extract OS            00 'MS-DOS'
27A6B3 27A6B4 000002 00 00       General Purpose Flag  0000
                                 [Bits 1-2]            0 'Normal Compression'
27A6B5 27A6B6 000002 08 00       Compression Method    0008 'Deflated'
27A6B7 27A6BA 000004 B8 50 F2 34 Last Mod Time         34F250B8 'Tue Jul 18 10:05:48 2006'
27A6BB 27A6BE 000004 9F DB BE 9B CRC                   9BBEDB9F
27A6BF 27A6C2 000004 D0 4F 00 00 Compressed Length     00004FD0
27A6C3 27A6C6 000004 00 A2 00 00 Uncompressed Length   0000A200
27A6C7 27A6C8 000002 14 00       Filename Length       0014
27A6C9 27A6CA 000002 83 00       Extra Length          0083
27A6CB 27A6CC 000002 00 00       Comment Length        0000
27A6CD 27A6CE 000002 00 00       Disk Start            0000
27A6CF 27A6D0 000002 00 00       Int File Attributes   0000
                                 [Bit 0]               0 'Binary Data'
27A6D1 27A6D4 000004 01 00 6D 81 Ext File Attributes   816D0001
                                 [Bit 0]               Read-Only
27A6D5 27A6D8 000004 4F 84 23 00 Local Header Offset   0023844F
27A6D9 27A6EC 000014 7A 69 70 2F Filename              'zip/zipsplit.axp_exe'
                     7A 69 70 73
                     70 6C 69 74
                     2E 61 78 70
                     5F 65 78 65
27A6ED 27A6EE 000002 0C 00       Extra ID #0001        000C 'OpenVMS'
27A6EF 27A6F0 000002 7F 00         Length              007F
27A6F1 27A6F4 000004 71 95 51 2E   CRC                 2E519571
27A6F5 27A6F6 000002 04 00         Tag# 0001           0004 'ATR$C_RECATTR'
27A6F7 27A6F8 000002 20 00           Size              0020
27A6F9 27A718 000020 01 00 00 02     Attribute         01 00 00 02 00 00 58 00 00 00 52 00
                     00 00 58 00                       00 00 00 00 00 02 00 00 00 00 00 00
                     00 00 52 00                       00 00 00 00 00 00 00 00
                     00 00 00 00
                     00 02 00 00
                     00 00 00 00
                     00 00 00 00
                     00 00 00 00
27A719 27A71A 000002 03 00         Tag# 0002           0003 'ATR$C_UCHAR'
27A71B 27A71C 000002 04 00           Size              0004
27A71D 27A720 000004 20 00 00 00     Attribute         00000020
                                       [Bit 5]         FCH$M_CONTIGB
27A721 27A722 000002 11 00         Tag# 0003           0011 'ATR$C_CREDATE'
27A723 27A724 000002 08 00           Size              0008
27A725 27A72C 000008 B0 2B 8B 34     Attribute         00A58DDA348B2BB0 'Tue Jul 18 10:05:47
                     DA 8D A5 00                       2006 578110400ns'
27A72D 27A72E 000002 12 00         Tag# 0004           0012 'ATR$C_REVDATE'
27A72F 27A730 000002 08 00           Size              0008
27A731 27A738 000008 C7 18 94 CF     Attribute         00A59D9BCF9418C7 'Mon Aug  7 11:19:27
                     9B 9D A5 00                       2006 993933500ns'
27A739 27A73A 000002 13 00         Tag# 0005           0013 'ATR$C_EXPDATE'
27A73B 27A73C 000002 08 00           Size              0008
27A73D 27A744 000008 00 00 00 00     Attribute         0000000000000000 'No Date Time'
                     00 00 00 00
27A745 27A746 000002 14 00         Tag# 0006           0014 'ATR$C_BAKDATE'
27A747 27A748 000002 08 00           Size              0008
27A749 27A750 000008 00 00 00 00     Attribute         0000000000000000 'No Date Time'
                     00 00 00 00
27A751 27A752 000002 0D 00         Tag# 0007           000D 'ATR$C_ASCDATES'
27A753 27A754 000002 02 00           Size              0002
27A755 27A756 000002 0D 00           Attribute         000D'Revision Count 000D'
27A757 27A758 000002 15 00         Tag# 0008           0015 'ATR$C_UIC'
27A759 27A75A 000002 04 00           Size              0004
27A75B 27A75E 000004 04 00 01 00     Attribute         00010004
27A75F 27A760 000002 16 00         Tag# 0009           0016 'ATR$C_FPRO'
27A761 27A762 000002 02 00           Size              0002
27A763 27A764 000002 AA AA           Attribute         AA AA
27A765 27A766 000002 17 00         Tag# 000A           0017 'ATR$C_RPRO'
27A767 27A768 000002 02 00           Size              0002
27A769 27A76A 000002 00 00           Attribute         0000
27A76B 27A76C 000002 1D 00         Tag# 000B           001D 'ATR$C_JOURNAL'
27A76D 27A76E 000002 01 00           Size              0001
27A76F 27A76F 000001 00              Attribute         00

27A770 27A773 000004 50 4B 01 02 CENTRAL HEADER #D     02014B50
27A774 27A774 000001 17          Created Zip Spec      17 '2.3'
27A775 27A775 000001 02          Created OS            02 'OpenVMS'
27A776 27A776 000001 14          Extract Zip Spec      14 '2.0'
27A777 27A777 000001 00          Extract OS            00 'MS-DOS'
27A778 27A779 000002 00 00       General Purpose Flag  0000
                                 [Bits 1-2]            0 'Normal Compression'
27A77A 27A77B 000002 08 00       Compression Method    0008 'Deflated'
27A77C 27A77F 000004 C1 49 F2 34 Last Mod Time         34F249C1 'Tue Jul 18 09:14:02 2006'
27A780 27A783 000004 F2 6C 27 A4 CRC                   A4276CF2
27A784 27A787 000004 24 7B 00 00 Compressed Length     00007B24
27A788 27A78B 000004 00 A8 01 00 Uncompressed Length   0001A800
27A78C 27A78D 000002 14 00       Filename Length       0014
27A78E 27A78F 000002 83 00       Extra Length          0083
27A790 27A791 000002 00 00       Comment Length        0000
27A792 27A793 000002 00 00       Disk Start            0000
27A794 27A795 000002 00 00       Int File Attributes   0000
                                 [Bit 0]               0 'Binary Data'
27A796 27A799 000004 01 00 6D 81 Ext File Attributes   816D0001
                                 [Bit 0]               Read-Only
27A79A 27A79D 000004 D4 D4 23 00 Local Header Offset   0023D4D4
27A79E 27A7B1 000014 7A 69 70 2F Filename              'zip/zipsplit.i64_exe'
                     7A 69 70 73
                     70 6C 69 74
                     2E 69 36 34
                     5F 65 78 65
27A7B2 27A7B3 000002 0C 00       Extra ID #0001        000C 'OpenVMS'
27A7B4 27A7B5 000002 7F 00         Length              007F
27A7B6 27A7B9 000004 61 60 4A 58   CRC                 584A6061
27A7BA 27A7BB 000002 04 00         Tag# 0001           0004 'ATR$C_RECATTR'
27A7BC 27A7BD 000002 20 00           Size              0020
27A7BE 27A7DD 000020 01 00 00 02     Attribute         01 00 00 02 00 00 D8 00 00 00 D5 00
                     00 00 D8 00                       00 00 00 00 00 02 00 00 00 00 00 00
                     00 00 D5 00                       00 00 00 00 00 00 00 00
                     00 00 00 00
                     00 02 00 00
                     00 00 00 00
                     00 00 00 00
                     00 00 00 00
27A7DE 27A7DF 000002 03 00         Tag# 0002           0003 'ATR$C_UCHAR'
27A7E0 27A7E1 000002 04 00           Size              0004
27A7E2 27A7E5 000004 20 00 00 00     Attribute         00000020
                                       [Bit 5]         FCH$M_CONTIGB
27A7E6 27A7E7 000002 11 00         Tag# 0003           0011 'ATR$C_CREDATE'
27A7E8 27A7E9 000002 08 00           Size              0008
27A7EA 27A7F1 000008 B0 07 8F F8     Attribute         00A58DD2F88F07B0 'Tue Jul 18 09:14:00
                     D2 8D A5 00                       2006 463000000ns'
27A7F2 27A7F3 000002 12 00         Tag# 0004           0012 'ATR$C_REVDATE'
27A7F4 27A7F5 000002 08 00           Size              0008
27A7F6 27A7FD 000008 10 C3 A0 CF     Attribute         00A59D9BCFA0C310 'Mon Aug  7 11:19:28
                     9B 9D A5 00                       2006 76936000ns'
27A7FE 27A7FF 000002 13 00         Tag# 0005           0013 'ATR$C_EXPDATE'
27A800 27A801 000002 08 00           Size              0008
27A802 27A809 000008 00 00 00 00     Attribute         0000000000000000 'No Date Time'
                     00 00 00 00
27A80A 27A80B 000002 14 00         Tag# 0006           0014 'ATR$C_BAKDATE'
27A80C 27A80D 000002 08 00           Size              0008
27A80E 27A815 000008 00 00 00 00     Attribute         0000000000000000 'No Date Time'
                     00 00 00 00
27A816 27A817 000002 0D 00         Tag# 0007           000D 'ATR$C_ASCDATES'
27A818 27A819 000002 02 00           Size              0002
27A81A 27A81B 000002 0E 00           Attribute         000E'Revision Count 000E'
27A81C 27A81D 000002 15 00         Tag# 0008           0015 'ATR$C_UIC'
27A81E 27A81F 000002 04 00           Size              0004
27A820 27A823 000004 04 00 01 00     Attribute         00010004
27A824 27A825 000002 16 00         Tag# 0009           0016 'ATR$C_FPRO'
27A826 27A827 000002 02 00           Size              0002
27A828 27A829 000002 AA AA           Attribute         AA AA
27A82A 27A82B 000002 17 00         Tag# 000A           0017 'ATR$C_RPRO'
27A82C 27A82D 000002 02 00           Size              0002
27A82E 27A82F 000002 00 00           Attribute         0000
27A830 27A831 000002 1D 00         Tag# 000B           001D 'ATR$C_JOURNAL'
27A832 27A833 000002 01 00           Size              0001
27A834 27A834 000001 00              Attribute         00

27A835 27A838 000004 50 4B 01 02 CENTRAL HEADER #E     02014B50
27A839 27A839 000001 17          Created Zip Spec      17 '2.3'
27A83A 27A83A 000001 02          Created OS            02 'OpenVMS'
27A83B 27A83B 000001 14          Extract Zip Spec      14 '2.0'
27A83C 27A83C 000001 00          Extract OS            00 'MS-DOS'
27A83D 27A83E 000002 00 00       General Purpose Flag  0000
                                 [Bits 1-2]            0 'Normal Compression'
27A83F 27A840 000002 08 00       Compression Method    0008 'Deflated'
27A841 27A844 000004 D2 50 F2 34 Last Mod Time         34F250D2 'Tue Jul 18 10:06:36 2006'
27A845 27A848 000004 56 E3 A0 0E CRC                   0EA0E356
27A849 27A84C 000004 E9 2E 00 00 Compressed Length     00002EE9
27A84D 27A850 000004 00 66 00 00 Uncompressed Length   00006600
27A851 27A852 000002 19 00       Filename Length       0019
27A853 27A854 000002 83 00       Extra Length          0083
27A855 27A856 000002 00 00       Comment Length        0000
27A857 27A858 000002 00 00       Disk Start            0000
27A859 27A85A 000002 00 00       Int File Attributes   0000
                                 [Bit 0]               0 'Binary Data'
27A85B 27A85E 000004 01 00 6D 81 Ext File Attributes   816D0001
                                 [Bit 0]               Read-Only
27A85F 27A862 000004 AD 50 24 00 Local Header Offset   002450AD
27A863 27A87B 000019 7A 69 70 2F Filename              'zip/zipsplit.vax_vaxc_exe'
                     7A 69 70 73
                     70 6C 69 74
                     2E 76 61 78
                     5F 76 61 78
                     63 5F 65 78
                     65
27A87C 27A87D 000002 0C 00       Extra ID #0001        000C 'OpenVMS'
27A87E 27A87F 000002 7F 00         Length              007F
27A880 27A883 000004 D6 E9 E4 DC   CRC                 DCE4E9D6
27A884 27A885 000002 04 00         Tag# 0001           0004 'ATR$C_RECATTR'
27A886 27A887 000002 20 00           Size              0020
27A888 27A8A7 000020 01 00 00 02     Attribute         01 00 00 02 00 00 38 00 00 00 34 00
                     00 00 38 00                       00 00 00 00 00 02 00 00 00 00 00 00
                     00 00 34 00                       00 00 00 00 00 00 00 00
                     00 00 00 00
                     00 02 00 00
                     00 00 00 00
                     00 00 00 00
                     00 00 00 00
27A8A8 27A8A9 000002 03 00         Tag# 0002           0003 'ATR$C_UCHAR'
27A8AA 27A8AB 000002 04 00           Size              0004
27A8AC 27A8AF 000004 20 00 00 00     Attribute         00000020
                                       [Bit 5]         FCH$M_CONTIGB
27A8B0 27A8B1 000002 11 00         Tag# 0003           0011 'ATR$C_CREDATE'
27A8B2 27A8B3 000002 08 00           Size              0008
27A8B4 27A8BB 000008 B7 CB E7 50     Attribute         00A58DDA50E7CBB7 'Tue Jul 18 10:06:35
                     DA 8D A5 00                       2006 161343100ns'
27A8BC 27A8BD 000002 12 00         Tag# 0004           0012 'ATR$C_REVDATE'
27A8BE 27A8BF 000002 08 00           Size              0008
27A8C0 27A8C7 000008 59 6D AD CF     Attribute         00A59D9BCFAD6D59 'Mon Aug  7 11:19:28
                     9B 9D A5 00                       2006 159938500ns'
27A8C8 27A8C9 000002 13 00         Tag# 0005           0013 'ATR$C_EXPDATE'
27A8CA 27A8CB 000002 08 00           Size              0008
27A8CC 27A8D3 000008 00 00 00 00     Attribute         0000000000000000 'No Date Time'
                     00 00 00 00
27A8D4 27A8D5 000002 14 00         Tag# 0006           0014 'ATR$C_BAKDATE'
27A8D6 27A8D7 000002 08 00           Size              0008
27A8D8 27A8DF 000008 00 00 00 00     Attribute         0000000000000000 'No Date Time'
                     00 00 00 00
27A8E0 27A8E1 000002 0D 00         Tag# 0007           000D 'ATR$C_ASCDATES'
27A8E2 27A8E3 000002 02 00           Size              0002
27A8E4 27A8E5 000002 0D 00           Attribute         000D'Revision Count 000D'
27A8E6 27A8E7 000002 15 00         Tag# 0008           0015 'ATR$C_UIC'
27A8E8 27A8E9 000002 04 00           Size              0004
27A8EA 27A8ED 000004 04 00 01 00     Attribute         00010004
27A8EE 27A8EF 000002 16 00         Tag# 0009           0016 'ATR$C_FPRO'
27A8F0 27A8F1 000002 02 00           Size              0002
27A8F2 27A8F3 000002 AA AA           Attribute         AA AA
27A8F4 27A8F5 000002 17 00         Tag# 000A           0017 'ATR$C_RPRO'
27A8F6 27A8F7 000002 02 00           Size              0002
27A8F8 27A8F9 000002 00 00           Attribute         0000
27A8FA 27A8FB 000002 1D 00         Tag# 000B           001D 'ATR$C_JOURNAL'
27A8FC 27A8FD 000002 01 00           Size              0001
27A8FE 27A8FE 000001 00              Attribute         00

27A8FF 27A902 000004 50 4B 01 02 CENTRAL HEADER #F     02014B50
27A903 27A903 000001 17          Created Zip Spec      17 '2.3'
27A904 27A904 000001 02          Created OS            02 'OpenVMS'
27A905 27A905 000001 14          Extract Zip Spec      14 '2.0'
27A906 27A906 000001 00          Extract OS            00 'MS-DOS'
27A907 27A908 000002 00 00       General Purpose Flag  0000
                                 [Bits 1-2]            0 'Normal Compression'
27A909 27A90A 000002 08 00       Compression Method    0008 'Deflated'
27A90B 27A90E 000004 B8 50 F2 34 Last Mod Time         34F250B8 'Tue Jul 18 10:05:48 2006'
27A90F 27A912 000004 9D 15 78 16 CRC                   1678159D
27A913 27A916 000004 5E 08 01 00 Compressed Length     0001085E
27A917 27A91A 000004 00 F6 01 00 Uncompressed Length   0001F600
27A91B 27A91C 000002 13 00       Filename Length       0013
27A91D 27A91E 000002 83 00       Extra Length          0083
27A91F 27A920 000002 00 00       Comment Length        0000
27A921 27A922 000002 00 00       Disk Start            0000
27A923 27A924 000002 00 00       Int File Attributes   0000
                                 [Bit 0]               0 'Binary Data'
27A925 27A928 000004 01 00 6D 81 Ext File Attributes   816D0001
                                 [Bit 0]               Read-Only
27A929 27A92C 000004 50 80 24 00 Local Header Offset   00248050
27A92D 27A93F 000013 7A 69 70 2F Filename              'zip/zip_cli.axp_exe'
                     7A 69 70 5F
                     63 6C 69 2E
                     61 78 70 5F
                     65 78 65
27A940 27A941 000002 0C 00       Extra ID #0001        000C 'OpenVMS'
27A942 27A943 000002 7F 00         Length              007F
27A944 27A947 000004 BF 57 2F B5   CRC                 B52F57BF
27A948 27A949 000002 04 00         Tag# 0001           0004 'ATR$C_RECATTR'
27A94A 27A94B 000002 20 00           Size              0020
27A94C 27A96B 000020 01 00 00 02     Attribute         01 00 00 02 00 00 00 01 00 00 FC 00
                     00 00 00 01                       00 00 00 00 00 02 00 00 00 00 00 00
                     00 00 FC 00                       00 00 00 00 00 00 00 00
                     00 00 00 00
                     00 02 00 00
                     00 00 00 00
                     00 00 00 00
                     00 00 00 00
27A96C 27A96D 000002 03 00         Tag# 0002           0003 'ATR$C_UCHAR'
27A96E 27A96F 000002 04 00           Size              0004
27A970 27A973 000004 20 00 00 00     Attribute         00000020
                                       [Bit 5]         FCH$M_CONTIGB
27A974 27A975 000002 11 00         Tag# 0003           0011 'ATR$C_CREDATE'
27A976 27A977 000002 08 00           Size              0008
27A978 27A97F 000008 68 DE 6B 34     Attribute         00A58DDA346BDE68 'Tue Jul 18 10:05:47
                     DA 8D A5 00                       2006 372970400ns'
27A980 27A981 000002 12 00         Tag# 0004           0012 'ATR$C_REVDATE'
27A982 27A983 000002 08 00           Size              0008
27A984 27A98B 000008 C7 3D BA CF     Attribute         00A59D9BCFBA3DC7 'Mon Aug  7 11:19:28
                     9B 9D A5 00                       2006 243917500ns'
27A98C 27A98D 000002 13 00         Tag# 0005           0013 'ATR$C_EXPDATE'
27A98E 27A98F 000002 08 00           Size              0008
27A990 27A997 000008 00 00 00 00     Attribute         0000000000000000 'No Date Time'
                     00 00 00 00
27A998 27A999 000002 14 00         Tag# 0006           0014 'ATR$C_BAKDATE'
27A99A 27A99B 000002 08 00           Size              0008
27A99C 27A9A3 000008 00 00 00 00     Attribute         0000000000000000 'No Date Time'
                     00 00 00 00
27A9A4 27A9A5 000002 0D 00         Tag# 0007           000D 'ATR$C_ASCDATES'
27A9A6 27A9A7 000002 02 00           Size              0002
27A9A8 27A9A9 000002 0D 00           Attribute         000D'Revision Count 000D'
27A9AA 27A9AB 000002 15 00         Tag# 0008           0015 'ATR$C_UIC'
27A9AC 27A9AD 000002 04 00           Size              0004
27A9AE 27A9B1 000004 04 00 01 00     Attribute         00010004
27A9B2 27A9B3 000002 16 00         Tag# 0009           0016 'ATR$C_FPRO'
27A9B4 27A9B5 000002 02 00           Size              0002
27A9B6 27A9B7 000002 AA AA           Attribute         AA AA
27A9B8 27A9B9 000002 17 00         Tag# 000A           0017 'ATR$C_RPRO'
27A9BA 27A9BB 000002 02 00           Size              0002
27A9BC 27A9BD 000002 00 00           Attribute         0000
27A9BE 27A9BF 000002 1D 00         Tag# 000B           001D 'ATR$C_JOURNAL'
27A9C0 27A9C1 000002 01 00           Size              0001
27A9C2 27A9C2 000001 00              Attribute         00

27A9C3 27A9C6 000004 50 4B 01 02 CENTRAL HEADER #10    02014B50
27A9C7 27A9C7 000001 17          Created Zip Spec      17 '2.3'
27A9C8 27A9C8 000001 02          Created OS            02 'OpenVMS'
27A9C9 27A9C9 000001 14          Extract Zip Spec      14 '2.0'
27A9CA 27A9CA 000001 00          Extract OS            00 'MS-DOS'
27A9CB 27A9CC 000002 00 00       General Purpose Flag  0000
                                 [Bits 1-2]            0 'Normal Compression'
27A9CD 27A9CE 000002 08 00       Compression Method    0008 'Deflated'
27A9CF 27A9D2 000004 C0 49 F2 34 Last Mod Time         34F249C0 'Tue Jul 18 09:14:00 2006'
27A9D3 27A9D6 000004 8E C9 81 F0 CRC                   F081C98E
27A9D7 27A9DA 000004 78 7C 01 00 Compressed Length     00017C78
27A9DB 27A9DE 000004 00 C6 04 00 Uncompressed Length   0004C600
27A9DF 27A9E0 000002 13 00       Filename Length       0013
27A9E1 27A9E2 000002 83 00       Extra Length          0083
27A9E3 27A9E4 000002 00 00       Comment Length        0000
27A9E5 27A9E6 000002 00 00       Disk Start            0000
27A9E7 27A9E8 000002 00 00       Int File Attributes   0000
                                 [Bit 0]               0 'Binary Data'
27A9E9 27A9EC 000004 01 00 6D 81 Ext File Attributes   816D0001
                                 [Bit 0]               Read-Only
27A9ED 27A9F0 000004 62 89 25 00 Local Header Offset   00258962
27A9F1 27AA03 000013 7A 69 70 2F Filename              'zip/zip_cli.i64_exe'
                     7A 69 70 5F
                     63 6C 69 2E
                     69 36 34 5F
                     65 78 65
27AA04 27AA05 000002 0C 00       Extra ID #0001        000C 'OpenVMS'
27AA06 27AA07 000002 7F 00         Length              007F
27AA08 27AA0B 000004 D8 AC 10 04   CRC                 0410ACD8
27AA0C 27AA0D 000002 04 00         Tag# 0001           0004 'ATR$C_RECATTR'
27AA0E 27AA0F 000002 20 00           Size              0020
27AA10 27AA2F 000020 01 00 00 02     Attribute         01 00 00 02 00 00 68 02 00 00 64 02
                     00 00 68 02                       00 00 00 00 00 02 00 00 00 00 00 00
                     00 00 64 02                       00 00 00 00 00 00 00 00
                     00 00 00 00
                     00 02 00 00
                     00 00 00 00
                     00 00 00 00
                     00 00 00 00
27AA30 27AA31 000002 03 00         Tag# 0002           0003 'ATR$C_UCHAR'
27AA32 27AA33 000002 04 00           Size              0004
27AA34 27AA37 000004 20 00 00 00     Attribute         00000020
                                       [Bit 5]         FCH$M_CONTIGB
27AA38 27AA39 000002 11 00         Tag# 0003           0011 'ATR$C_CREDATE'
27AA3A 27AA3B 000002 08 00           Size              0008
27AA3C 27AA43 000008 00 5B 7E F7     Attribute         00A58DD2F77E5B00 'Tue Jul 18 09:13:58
                     D2 8D A5 00                       2006 676000000ns'
27AA44 27AA45 000002 12 00         Tag# 0004           0012 'ATR$C_REVDATE'
27AA46 27AA47 000002 08 00           Size              0008
27AA48 27AA4F 000008 E8 B6 C5 CF     Attribute         00A59D9BCFC5B6E8 'Mon Aug  7 11:19:28
                     9B 9D A5 00                       2006 319108000ns'
27AA50 27AA51 000002 13 00         Tag# 0005           0013 'ATR$C_EXPDATE'
27AA52 27AA53 000002 08 00           Size              0008
27AA54 27AA5B 000008 00 00 00 00     Attribute         0000000000000000 'No Date Time'
                     00 00 00 00
27AA5C 27AA5D 000002 14 00         Tag# 0006           0014 'ATR$C_BAKDATE'
27AA5E 27AA5F 000002 08 00           Size              0008
27AA60 27AA67 000008 00 00 00 00     Attribute         0000000000000000 'No Date Time'
                     00 00 00 00
27AA68 27AA69 000002 0D 00         Tag# 0007           000D 'ATR$C_ASCDATES'
27AA6A 27AA6B 000002 02 00           Size              0002
27AA6C 27AA6D 000002 0E 00           Attribute         000E'Revision Count 000E'
27AA6E 27AA6F 000002 15 00         Tag# 0008           0015 'ATR$C_UIC'
27AA70 27AA71 000002 04 00           Size              0004
27AA72 27AA75 000004 04 00 01 00     Attribute         00010004
27AA76 27AA77 000002 16 00         Tag# 0009           0016 'ATR$C_FPRO'
27AA78 27AA79 000002 02 00           Size              0002
27AA7A 27AA7B 000002 AA AA           Attribute         AA AA
27AA7C 27AA7D 000002 17 00         Tag# 000A           0017 'ATR$C_RPRO'
27AA7E 27AA7F 000002 02 00           Size              0002
27AA80 27AA81 000002 00 00           Attribute         0000
27AA82 27AA83 000002 1D 00         Tag# 000B           001D 'ATR$C_JOURNAL'
27AA84 27AA85 000002 01 00           Size              0001
27AA86 27AA86 000001 00              Attribute         00

27AA87 27AA8A 000004 50 4B 01 02 CENTRAL HEADER #11    02014B50
27AA8B 27AA8B 000001 17          Created Zip Spec      17 '2.3'
27AA8C 27AA8C 000001 02          Created OS            02 'OpenVMS'
27AA8D 27AA8D 000001 14          Extract Zip Spec      14 '2.0'
27AA8E 27AA8E 000001 00          Extract OS            00 'MS-DOS'
27AA8F 27AA90 000002 00 00       General Purpose Flag  0000
                                 [Bits 1-2]            0 'Normal Compression'
27AA91 27AA92 000002 08 00       Compression Method    0008 'Deflated'
27AA93 27AA96 000004 D1 50 F2 34 Last Mod Time         34F250D1 'Tue Jul 18 10:06:34 2006'
27AA97 27AA9A 000004 3A EE 33 00 CRC                   0033EE3A
27AA9B 27AA9E 000004 F6 96 00 00 Compressed Length     000096F6
27AA9F 27AAA2 000004 00 36 01 00 Uncompressed Length   00013600
27AAA3 27AAA4 000002 18 00       Filename Length       0018
27AAA5 27AAA6 000002 83 00       Extra Length          0083
27AAA7 27AAA8 000002 00 00       Comment Length        0000
27AAA9 27AAAA 000002 00 00       Disk Start            0000
27AAAB 27AAAC 000002 00 00       Int File Attributes   0000
                                 [Bit 0]               0 'Binary Data'
27AAAD 27AAB0 000004 01 00 6D 81 Ext File Attributes   816D0001
                                 [Bit 0]               Read-Only
27AAB1 27AAB4 000004 8E 06 27 00 Local Header Offset   0027068E
27AAB5 27AACC 000018 7A 69 70 2F Filename              'zip/zip_cli.vax_vaxc_exe'
                     7A 69 70 5F
                     63 6C 69 2E
                     76 61 78 5F
                     76 61 78 63
                     5F 65 78 65
27AACD 27AACE 000002 0C 00       Extra ID #0001        000C 'OpenVMS'
27AACF 27AAD0 000002 7F 00         Length              007F
27AAD1 27AAD4 000004 DF AB 98 8F   CRC                 8F98ABDF
27AAD5 27AAD6 000002 04 00         Tag# 0001           0004 'ATR$C_RECATTR'
27AAD7 27AAD8 000002 20 00           Size              0020
27AAD9 27AAF8 000020 01 00 00 02     Attribute         01 00 00 02 00 00 A0 00 00 00 9C 00
                     00 00 A0 00                       00 00 00 00 00 02 00 00 00 00 00 00
                     00 00 9C 00                       00 00 00 00 00 00 00 00
                     00 00 00 00
                     00 02 00 00
                     00 00 00 00
                     00 00 00 00
                     00 00 00 00
27AAF9 27AAFA 000002 03 00         Tag# 0002           0003 'ATR$C_UCHAR'
27AAFB 27AAFC 000002 04 00           Size              0004
27AAFD 27AB00 000004 20 00 00 00     Attribute         00000020
                                       [Bit 5]         FCH$M_CONTIGB
27AB01 27AB02 000002 11 00         Tag# 0003           0011 'ATR$C_CREDATE'
27AB03 27AB04 000002 08 00           Size              0008
27AB05 27AB0C 000008 77 53 6A 4F     Attribute         00A58DDA4F6A5377 'Tue Jul 18 10:06:32
                     DA 8D A5 00                       2006 661343100ns'
27AB0D 27AB0E 000002 12 00         Tag# 0004           0012 'ATR$C_REVDATE'
27AB0F 27AB10 000002 08 00           Size              0008
27AB11 27AB18 000008 31 61 D2 CF     Attribute         00A59D9BCFD26131 'Mon Aug  7 11:19:28
                     9B 9D A5 00                       2006 402110500ns'
27AB19 27AB1A 000002 13 00         Tag# 0005           0013 'ATR$C_EXPDATE'
27AB1B 27AB1C 000002 08 00           Size              0008
27AB1D 27AB24 000008 00 00 00 00     Attribute         0000000000000000 'No Date Time'
                     00 00 00 00
27AB25 27AB26 000002 14 00         Tag# 0006           0014 'ATR$C_BAKDATE'
27AB27 27AB28 000002 08 00           Size              0008
27AB29 27AB30 000008 00 00 00 00     Attribute         0000000000000000 'No Date Time'
                     00 00 00 00
27AB31 27AB32 000002 0D 00         Tag# 0007           000D 'ATR$C_ASCDATES'
27AB33 27AB34 000002 02 00           Size              0002
27AB35 27AB36 000002 0D 00           Attribute         000D'Revision Count 000D'
27AB37 27AB38 000002 15 00         Tag# 0008           0015 'ATR$C_UIC'
27AB39 27AB3A 000002 04 00           Size              0004
27AB3B 27AB3E 000004 04 00 01 00     Attribute         00010004
27AB3F 27AB40 000002 16 00         Tag# 0009           0016 'ATR$C_FPRO'
27AB41 27AB42 000002 02 00           Size              0002
27AB43 27AB44 000002 AA AA           Attribute         AA AA
27AB45 27AB46 000002 17 00         Tag# 000A           0017 'ATR$C_RPRO'
27AB47 27AB48 000002 02 00           Size              0002
27AB49 27AB4A 000002 00 00           Attribute         0000
27AB4B 27AB4C 000002 1D 00         Tag# 000B           001D 'ATR$C_JOURNAL'
27AB4D 27AB4E 000002 01 00           Size              0001
27AB4F 27AB4F 000001 00              Attribute         00

27AB50 27AB53 000004 50 4B 05 06 END CENTRAL HEADER    06054B50
27AB54 27AB55 000002 00 00       Number of this disk   0000
27AB56 27AB57 000002 00 00       Central Dir Disk no   0000
27AB58 27AB59 000002 11 00       Entries in this disk  0011
27AB5A 27AB5B 000002 11 00       Total Entries         0011
27AB5C 27AB5F 000004 13 0D 00 00 Size of Central Dir   00000D13
27AB60 27AB63 000004 3D 9E 27 00 Offset to Central Dir 00279E3D
27AB64 27AB65 000002 00 00       Comment Length        0000
#
# Done
