
0000 0003 0004 50 4B 03 04 LOCAL HEADER #1       04034B50 (67324752)
0004 0004 0001 14          Extract Zip Spec      14 (20) '2.0'
0005 0005 0001 00          Extract OS            00 (0) 'MS-DOS'
0006 0007 0002 00 00       General Purpose Flag  0000 (0)
0008 0009 0002 00 00       Compression Method    0000 (0) 'Stored'
000A 000D 0004 C9 A6 8E 58 Modification Time     588EA6C9 (1485743817) 'Sun Apr 14 20:54:18 2024'
000E 0011 0004 00 00 00 00 CRC                   00000000 (0)
0012 0015 0004 00 00 00 00 Compressed Size       00000000 (0)
0016 0019 0004 00 00 00 00 Uncompressed Size     00000000 (0)
001A 001B 0002 04 00       Filename Length       0004 (4)
001C 001D 0002 20 00       Extra Length          0020 (32)
001E 0021 0004 64 69 72 2F Filename              'dir/'
0022 0023 0002 55 54       Extra ID #1           5455 (21589) 'Extended Timestamp [UT]'
0024 0025 0002 0D 00         Length              000D (13)
0026 0026 0001 07            Flags               07 (7) 'Modification Access Creation'
0027 002A 0004 6B 34 1C 66   Modification Time   661C346B (1713124459) 'Sun Apr 14 19:54:19 2024'
002B 002E 0004 6C 34 1C 66   Access Time         661C346C (1713124460) 'Sun Apr 14 19:54:20 2024'
002F 0032 0004 6B 34 1C 66   Creation Time       661C346B (1713124459) 'Sun Apr 14 19:54:19 2024'
0033 0034 0002 75 78       Extra ID #2           7875 (30837) 'Unix Extra type 3 [ux]'
0035 0036 0002 0B 00         Length              000B (11)
0037 0037 0001 01            Version             01 (1)
0038 0038 0001 04            UID Size            04 (4)
0039 003C 0004 E8 03 00 00   UID                 000003E8 (1000)
003D 003D 0001 04            GID Size            04 (4)
003E 0041 0004 E8 03 00 00   GID                 000003E8 (1000)

0042 0045 0004 50 4B 01 02 CENTRAL HEADER #1     02014B50 (33639248)
0046 0046 0001 14          Created Zip Spec      14 (20) '2.0'
0047 0047 0001 03          Created OS            03 (3) 'Unix'
0048 0048 0001 14          Extract Zip Spec      14 (20) '2.0'
0049 0049 0001 00          Extract OS            00 (0) 'MS-DOS'
004A 004B 0002 00 00       General Purpose Flag  0000 (0)
004C 004D 0002 00 00       Compression Method    0000 (0) 'Stored'
004E 0051 0004 C9 A6 8E 58 Modification Time     588EA6C9 (1485743817) 'Sun Apr 14 20:54:18 2024'
0052 0055 0004 00 00 00 00 CRC                   00000000 (0)
0056 0059 0004 00 00 00 00 Compressed Size       00000000 (0)
005A 005D 0004 00 00 00 00 Uncompressed Size     00000000 (0)
005E 005F 0002 04 00       Filename Length       0004 (4)
0060 0061 0002 20 00       Extra Length          0020 (32)
0062 0063 0002 00 00       Comment Length        0000 (0)
0064 0065 0002 00 00       Disk Start            0000 (0)
0066 0067 0002 00 00       Int File Attributes   0000 (0)
                           [Bit 0]               0 'Binary Data'
0068 006B 0004 00 00 FD 41 Ext File Attributes   41FD0000 (1107099648)
                           [Bits 16-24]          01FD (509) 'Unix attrib: rwxrwxr-x'
                           [Bits 28-31]          04 (4) 'Directory'
006C 006F 0004 00 00 00 00 Local Header Offset   00000000 (0)
0070 0073 0004 64 69 72 2F Filename              'dir/'
0074 0075 0002 55 54       Extra ID #1           5455 (21589) 'Extended Timestamp [UT]'
0076 0077 0002 0D 00         Length              000D (13)
0078 0078 0001 07            Flags               07 (7) 'Modification Access Creation'
0079 007C 0004 6B 34 1C 66   Modification Time   661C346B (1713124459) 'Sun Apr 14 19:54:19 2024'
#
# INFO: Offset 0x7D: Extra Field 'Extended Timestamp [UT]' (ID 0x5455): Unexpected 'Access Time' present
#
007D 0080 0004 6C 34 1C 66   Access Time         661C346C (1713124460) 'Sun Apr 14 19:54:20 2024'
#
# INFO: Offset 0x81: Extra Field 'Extended Timestamp [UT]' (ID 0x5455): Unexpected 'Creation Time' present
#
0081 0084 0004 6B 34 1C 66   Creation Time       661C346B (1713124459) 'Sun Apr 14 19:54:19 2024'
0085 0086 0002 75 78       Extra ID #2           7875 (30837) 'Unix Extra type 3 [ux]'
0087 0088 0002 0B 00         Length              000B (11)
0089 0089 0001 01            Version             01 (1)
008A 008A 0001 04            UID Size            04 (4)
008B 008E 0004 E8 03 00 00   UID                 000003E8 (1000)
008F 008F 0001 04            GID Size            04 (4)
0090 0093 0004 E8 03 00 00   GID                 000003E8 (1000)

0094 0097 0004 50 4B 05 06 END CENTRAL HEADER    06054B50 (101010256)
0098 0099 0002 00 00       Number of this disk   0000 (0)
009A 009B 0002 00 00       Central Dir Disk no   0000 (0)
009C 009D 0002 01 00       Entries in this disk  0001 (1)
009E 009F 0002 01 00       Total Entries         0001 (1)
00A0 00A3 0004 52 00 00 00 Size of Central Dir   00000052 (82)
00A4 00A7 0004 42 00 00 00 Offset to Central Dir 00000042 (66)
00A8 00A9 0002 00 00       Comment Length        0000 (0)
#
# Info Count: 2
#
# Done
