
0000 0003 0004 50 4B 03 04 LOCAL HEADER #1       0x04034B50 [67324752]
0004 0004 0001 2E          Extract Zip Spec      0x2E [46] '4.6'
0005 0005 0001 03          Extract OS            0x03 [3] 'Unix'
0006 0007 0002 00 00       General Purpose Flag  0x0000 [0]
0008 0009 0002 0C 00       Compression Method    0x000C [12] 'BZIP2'
000A 000D 0004 15 9E 89 52 Last Mod Time         0x52899E15 [1384750613] 'Fri Apr  9 19:48:42 2021'
000E 0011 0004 FF E7 0E F9 CRC                   0xF90EE7FF [4178503679]
0012 0015 0004 34 01 00 00 Compressed Length     0x00000134 [308]
0016 0019 0004 BE 01 00 00 Uncompressed Length   0x000001BE [446]
001A 001B 0002 09 00       Filename Length       0x0009 [9]
001C 001D 0002 00 00       Extra Length          0x0000 [0]
001E 0026 0009 6C 6F 72 65 Filename              'lorem.txt'
               6D 2E 74 78
               74
0027 015A 0134 ...         PAYLOAD

015B 015E 0004 50 4B 01 02 CENTRAL HEADER #1     0x02014B50 [33639248]
015F 015F 0001 3F          Created Zip Spec      0x3F [63] '6.3'
0160 0160 0001 03          Created OS            0x03 [3] 'Unix'
0161 0161 0001 2E          Extract Zip Spec      0x2E [46] '4.6'
0162 0162 0001 03          Extract OS            0x03 [3] 'Unix'
0163 0164 0002 00 00       General Purpose Flag  0x0000 [0]
0165 0166 0002 0C 00       Compression Method    0x000C [12] 'BZIP2'
0167 016A 0004 15 9E 89 52 Last Mod Time         0x52899E15 [1384750613] 'Fri Apr  9 19:48:42 2021'
016B 016E 0004 FF E7 0E F9 CRC                   0xF90EE7FF [4178503679]
016F 0172 0004 34 01 00 00 Compressed Length     0x00000134 [308]
0173 0176 0004 BE 01 00 00 Uncompressed Length   0x000001BE [446]
0177 0178 0002 09 00       Filename Length       0x0009 [9]
0179 017A 0002 24 00       Extra Length          0x0024 [36]
017B 017C 0002 00 00       Comment Length        0x0000 [0]
017D 017E 0002 00 00       Disk Start            0x0000 [0]
017F 0180 0002 00 00       Int File Attributes   0x0000 [0]
                           [Bit 0]               0 'Binary Data'
0181 0184 0004 20 80 ED 81 Ext File Attributes   0x81ED8020 [2179825696]
                           [Bit 5]               Archive
                           [Bits 11-15]          0x8000 [32768] 'Unknown DOS attrib'
                           [Bits 16-24]          0x01ED [493] 'Unix attrib: rwxr-xr-x'
                           [Bits 28-31]          0x08 [8] 'Regular File'
0185 0188 0004 00 00 00 00 Local Header Offset   0x00000000 [0]
0189 0191 0009 6C 6F 72 65 Filename              'lorem.txt'
               6D 2E 74 78
               74
0192 0193 0002 0A 00       Extra ID #1           0x000A [10] 'NTFS FileTimes'
0194 0195 0002 20 00         Length              0x0020 [32]
0196 0199 0004 00 00 00 00   Reserved            0x00000000 [0]
019A 019B 0002 01 00         Tag1                0x0001 [1]
019C 019D 0002 18 00         Size1               0x0018 [24]
019E 01A5 0008 80 8A 8D F5   Mtime               0x01D72D70F58D8A80 [132624677210000000] 'Fri Apr  9 18:48:41 2021 0ns'
               70 2D D7 01
01A6 01AD 0008 00 F1 38 09   Atime               0x01D72D710938F100 [132624677540000000] 'Fri Apr  9 18:49:14 2021 0ns'
               71 2D D7 01
01AE 01B5 0008 80 8A 8D F5   Ctime               0x01D72D70F58D8A80 [132624677210000000] 'Fri Apr  9 18:48:41 2021 0ns'
               70 2D D7 01

01B6 01B9 0004 50 4B 05 06 END CENTRAL HEADER    0x06054B50 [101010256]
01BA 01BB 0002 00 00       Number of this disk   0x0000 [0]
01BC 01BD 0002 00 00       Central Dir Disk no   0x0000 [0]
01BE 01BF 0002 01 00       Entries in this disk  0x0001 [1]
01C0 01C1 0002 01 00       Total Entries         0x0001 [1]
01C2 01C5 0004 5B 00 00 00 Size of Central Dir   0x0000005B [91]
01C6 01C9 0004 5B 01 00 00 Offset to Central Dir 0x0000015B [347]
01CA 01CB 0002 00 00       Comment Length        0x0000 [0]
#
# Done
