
0000 0003 0004 50 4B 03 04 LOCAL HEADER #1       67324752 (0x4034B50)
0004 0004 0001 2E          Extract Zip Spec      46 (0x2E) '4.6'
0005 0005 0001 03          Extract OS            3 (0x3) 'Unix'
0006 0007 0002 00 00       General Purpose Flag  0 (0x0)
0008 0009 0002 0C 00       Compression Method    12 (0xC) 'BZIP2'
000A 000D 0004 15 9E 89 52 Last Mod Time         1384750613 (0x52899E15) 'Fri Apr  9 19:48:42 2021'
000E 0011 0004 FF E7 0E F9 CRC                   4178503679 (0xF90EE7FF)
0012 0015 0004 34 01 00 00 Compressed Length     308 (0x134)
0016 0019 0004 BE 01 00 00 Uncompressed Length   446 (0x1BE)
001A 001B 0002 09 00       Filename Length       9 (0x9)
001C 001D 0002 00 00       Extra Length          0 (0x0)
001E 0026 0009 6C 6F 72 65 Filename              'lorem.txt'
               6D 2E 74 78
               74
0027 015A 0134 ...         PAYLOAD

015B 015E 0004 50 4B 01 02 CENTRAL HEADER #1     33639248 (0x2014B50)
015F 015F 0001 3F          Created Zip Spec      63 (0x3F) '6.3'
0160 0160 0001 03          Created OS            3 (0x3) 'Unix'
0161 0161 0001 2E          Extract Zip Spec      46 (0x2E) '4.6'
0162 0162 0001 03          Extract OS            3 (0x3) 'Unix'
0163 0164 0002 00 00       General Purpose Flag  0 (0x0)
0165 0166 0002 0C 00       Compression Method    12 (0xC) 'BZIP2'
0167 016A 0004 15 9E 89 52 Last Mod Time         1384750613 (0x52899E15) 'Fri Apr  9 19:48:42 2021'
016B 016E 0004 FF E7 0E F9 CRC                   4178503679 (0xF90EE7FF)
016F 0172 0004 34 01 00 00 Compressed Length     308 (0x134)
0173 0176 0004 BE 01 00 00 Uncompressed Length   446 (0x1BE)
0177 0178 0002 09 00       Filename Length       9 (0x9)
0179 017A 0002 24 00       Extra Length          36 (0x24)
017B 017C 0002 00 00       Comment Length        0 (0x0)
017D 017E 0002 00 00       Disk Start            0 (0x0)
017F 0180 0002 00 00       Int File Attributes   0 (0x0)
                           [Bit 0]               0 'Binary Data'
0181 0184 0004 20 80 ED 81 Ext File Attributes   2179825696 (0x81ED8020)
                           [Bit 5]               Archive
                           [Bits 11-15]          32768 (0x8000) 'Unknown DOS attrib'
                           [Bits 16-24]          493 (0x1ED) 'Unix attrib: rwxr-xr-x'
                           [Bits 28-31]          8 (0x8) 'Regular File'
0185 0188 0004 00 00 00 00 Local Header Offset   0 (0x0)
0189 0191 0009 6C 6F 72 65 Filename              'lorem.txt'
               6D 2E 74 78
               74
0192 0193 0002 0A 00       Extra ID #1           10 (0xA) 'NTFS FileTimes'
0194 0195 0002 20 00         Length              32 (0x20)
0196 0199 0004 00 00 00 00   Reserved            0 (0x0)
019A 019B 0002 01 00         Tag1                1 (0x1)
019C 019D 0002 18 00         Size1               24 (0x18)
019E 01A5 0008 80 8A 8D F5   Mtime               132624677210000000 (0x1D72D70F58D8A80) 'Fri Apr  9 18:48:41 2021 0ns'
               70 2D D7 01
01A6 01AD 0008 00 F1 38 09   Atime               132624677540000000 (0x1D72D710938F100) 'Fri Apr  9 18:49:14 2021 0ns'
               71 2D D7 01
01AE 01B5 0008 80 8A 8D F5   Ctime               132624677210000000 (0x1D72D70F58D8A80) 'Fri Apr  9 18:48:41 2021 0ns'
               70 2D D7 01

01B6 01B9 0004 50 4B 05 06 END CENTRAL HEADER    101010256 (0x6054B50)
01BA 01BB 0002 00 00       Number of this disk   0 (0x0)
01BC 01BD 0002 00 00       Central Dir Disk no   0 (0x0)
01BE 01BF 0002 01 00       Entries in this disk  1 (0x1)
01C0 01C1 0002 01 00       Total Entries         1 (0x1)
01C2 01C5 0004 5B 00 00 00 Size of Central Dir   91 (0x5B)
01C6 01C9 0004 5B 01 00 00 Offset to Central Dir 347 (0x15B)
01CA 01CB 0002 00 00       Comment Length        0 (0x0)
#
# Done
