
0000 0004 50 4B 03 04 LOCAL HEADER #1       04034B50
0004 0001 33          Extract Zip Spec      33 '5.1'
0005 0001 00          Extract OS            00 'MS-DOS'
0006 0002 41 28       General Purpose Flag  2841
                      [Bit  0]              1 'Encryption'
                      [Bits 1-2]            0 'Normal Compression'
                      [Bit  6]              1 'Strong Encryption'
                      [Bit 11]              1 'Language Encoding'
                      [Bit 13]              1 'Encrypted Central Dir'
0008 0002 08 00       Compression Method    0008 'Deflated'
000A 0004 00 00 00 00 Last Mod Time         00000000 'No Date/Time'
000E 0004 00 00 00 00 CRC                   00000000
0012 0004 46 02 00 00 Compressed Length     00000246
0016 0004 00 00 00 00 Uncompressed Length   00000000
001A 0002 01 00       Filename Length       0001
001C 0002 00 00       Extra Length          0000
001E 0001 31          Filename              '1'

DECRYPTION HEADER RECORD
001F 0002 10 00       IVSize                0010
0021 0010 88 F1 6A 37 IVData                88 F1 6A 37 C9 87 41 3F 45 C5 A1 73
          C9 87 41 3F                       5F 83 78 FD
          45 C5 A1 73
          5F 83 78 FD
0031 0004 20 01 00 00 Size                  00000120
0035 0002 03 00       Format                0003
0037 0002 10 66       AlgId                 6610 'AES 256'
0039 0002 00 01       BitLen                0100
003B 0002 01 00       Flags                 0001 'Password required to decrypt'
003D 0002 90 00       ErdSize               0090
003F 0090 C4 09 41 04 ErdData               C4 09 41 04 F4 B6 06 27 AF 84 CD 5B
          F4 B6 06 27                       DA 7D F6 79 37 40 95 6F 7E F0 09 25
          AF 84 CD 5B                       CB 80 93 50 A2 0C 00 17 42 20 4A 91
          DA 7D F6 79                       5A 4B 7B FD 6C 08 01 0D 06 18 75 D1
          37 40 95 6F                       07 2A 6D A3 DA AC E3 7C 5D 01 0E 3B
          7E F0 09 25                       5B 11 A3 F2 34 D6 28 B0 1E 08 B4 B9
          CB 80 93 50                       A4 42 AB 18 16 74 92 EC BC 8A ED 94
          A2 0C 00 17                       10 45 5E FE 55 70 EF 75 51 A8 6F 60
          42 20 4A 91                       00 2F 98 EB 0D AB 6F 26 FA A7 B6 65
          5A 4B 7B FD                       82 7F 0C 88 C7 BF 12 C8 39 D2 36 87
          6C 08 01 0D                       D7 E4 C4 15 8F E1 6C 7C 0E 64 EA 80
          06 18 75 D1                       28 72 27 58 58 59 33 31 E7 53 A3 4F
          07 2A 6D A3
          DA AC E3 7C
          5D 01 0E 3B
          5B 11 A3 F2
          34 D6 28 B0
          1E 08 B4 B9
          A4 42 AB 18
          16 74 92 EC
          BC 8A ED 94
          10 45 5E FE
          55 70 EF 75
          51 A8 6F 60
          00 2F 98 EB
          0D AB 6F 26
          FA A7 B6 65
          82 7F 0C 88
          C7 BF 12 C8
          39 D2 36 87
          D7 E4 C4 15
          8F E1 6C 7C
          0E 64 EA 80
          28 72 27 58
          58 59 33 31
          E7 53 A3 4F
00CF 0004 00 00 00 00 RCount                00000000
00D3 0002 80 00       VSize                 0080
00D5 007C 69 08 F0 D7 VData                 69 08 F0 D7 85 C2 23 76 75 1A A5 AB
          85 C2 23 76                       75 5C 8E C2 68 CA CD DC 02 BF 8C 98
          75 1A A5 AB                       0A 5F AF 90 EB 95 C3 48 98 56 06 D6
          75 5C 8E C2                       1C 0E AE 32 6B 61 AA D2 D4 1C F5 38
          68 CA CD DC                       ED 36 BB 09 5D E5 27 7D B5 84 4B 09
          02 BF 8C 98                       D4 30 59 58 33 45 E1 76 AE 6F 03 9A
          0A 5F AF 90                       C3 F5 69 A0 45 16 50 4C 11 9D 80 AF
          EB 95 C3 48                       78 B1 31 81 87 48 8D 8A D8 62 CF 42
          98 56 06 D6                       67 86 90 53 DC 3A BE FD D3 46 65 65
          1C 0E AE 32                       D6 F6 47 61 4B 5F 21 2B AB 94 70 90
          6B 61 AA D2                       42 4A 37 E2
          D4 1C F5 38
          ED 36 BB 09
          5D E5 27 7D
          B5 84 4B 09
          D4 30 59 58
          33 45 E1 76
          AE 6F 03 9A
          C3 F5 69 A0
          45 16 50 4C
          11 9D 80 AF
          78 B1 31 81
          87 48 8D 8A
          D8 62 CF 42
          67 86 90 53
          DC 3A BE FD
          D3 46 65 65
          D6 F6 47 61
          4B 5F 21 2B
          AB 94 70 90
          42 4A 37 E2
0151 0004 47 F9 AF 88 VCRC32                88AFF947
0155 0110 ...         PAYLOAD

0265 0004 50 4B 03 04 LOCAL HEADER #2       04034B50
0269 0001 33          Extract Zip Spec      33 '5.1'
026A 0001 00          Extract OS            00 'MS-DOS'
026B 0002 41 28       General Purpose Flag  2841
                      [Bit  0]              1 'Encryption'
                      [Bits 1-2]            0 'Normal Compression'
                      [Bit  6]              1 'Strong Encryption'
                      [Bit 11]              1 'Language Encoding'
                      [Bit 13]              1 'Encrypted Central Dir'
026D 0002 08 00       Compression Method    0008 'Deflated'
026F 0004 00 00 00 00 Last Mod Time         00000000 'No Date/Time'
0273 0004 00 00 00 00 CRC                   00000000
0277 0004 56 02 00 00 Compressed Length     00000256
027B 0004 00 00 00 00 Uncompressed Length   00000000
027F 0002 01 00       Filename Length       0001
0281 0002 00 00       Extra Length          0000
0283 0001 32          Filename              '2'

DECRYPTION HEADER RECORD
0284 0002 10 00       IVSize                0010
0286 0010 80 C7 4B 4B IVData                80 C7 4B 4B 2D 0A BD 7A 23 85 A8 80
          2D 0A BD 7A                       CD B0 FB FC
          23 85 A8 80
          CD B0 FB FC
0296 0004 20 01 00 00 Size                  00000120
029A 0002 03 00       Format                0003
029C 0002 10 66       AlgId                 6610 'AES 256'
029E 0002 00 01       BitLen                0100
02A0 0002 01 00       Flags                 0001 'Password required to decrypt'
02A2 0002 90 00       ErdSize               0090
02A4 0090 C4 09 41 04 ErdData               C4 09 41 04 F4 B6 06 27 AF 84 CD 5B
          F4 B6 06 27                       DA 7D F6 79 37 40 95 6F 7E F0 09 25
          AF 84 CD 5B                       CB 80 93 50 A2 0C 00 17 42 20 4A 91
          DA 7D F6 79                       5A 4B 7B FD 6C 08 01 0D 06 18 75 D1
          37 40 95 6F                       07 2A 6D A3 DA AC E3 7C 5D 01 0E 3B
          7E F0 09 25                       5B 11 A3 F2 34 D6 28 B0 1E 08 B4 B9
          CB 80 93 50                       A4 42 AB 18 16 74 92 EC BC 8A ED 94
          A2 0C 00 17                       10 45 5E FE 55 70 EF 75 51 A8 6F 60
          42 20 4A 91                       00 2F 98 EB 0D AB 6F 26 FA A7 B6 65
          5A 4B 7B FD                       82 7F 0C 88 C7 BF 12 C8 39 D2 36 87
          6C 08 01 0D                       D7 E4 C4 15 8F E1 6C 7C 0E 64 EA 80
          06 18 75 D1                       28 72 27 58 58 59 33 31 E7 53 A3 4F
          07 2A 6D A3
          DA AC E3 7C
          5D 01 0E 3B
          5B 11 A3 F2
          34 D6 28 B0
          1E 08 B4 B9
          A4 42 AB 18
          16 74 92 EC
          BC 8A ED 94
          10 45 5E FE
          55 70 EF 75
          51 A8 6F 60
          00 2F 98 EB
          0D AB 6F 26
          FA A7 B6 65
          82 7F 0C 88
          C7 BF 12 C8
          39 D2 36 87
          D7 E4 C4 15
          8F E1 6C 7C
          0E 64 EA 80
          28 72 27 58
          58 59 33 31
          E7 53 A3 4F
0334 0004 00 00 00 00 RCount                00000000
0338 0002 80 00       VSize                 0080
033A 007C 34 79 6B E8 VData                 34 79 6B E8 44 15 16 7E DA 6B 48 8E
          44 15 16 7E                       93 72 69 57 42 07 0D C7 AC D8 4D E8
          DA 6B 48 8E                       43 05 FC 4F 74 8E A8 74 2A 9D 77 1B
          93 72 69 57                       B2 4E 17 10 C3 3D 7E 25 DD 30 0F 82
          42 07 0D C7                       AC 04 6B 7A 65 76 C0 BE 43 E8 51 5B
          AC D8 4D E8                       6C B7 B6 89 29 E2 31 A5 26 02 F3 62
          43 05 FC 4F                       71 08 1C 9E E5 73 9F 02 DA 8E 8D AE
          74 8E A8 74                       CC B0 0D 74 C7 CE E9 F0 C4 60 01 B9
          2A 9D 77 1B                       22 13 90 18 C9 2E 1D 2D C9 38 AD 99
          B2 4E 17 10                       E4 66 5F A5 77 5D 21 93 97 18 DC 55
          C3 3D 7E 25                       C0 11 7F A6
          DD 30 0F 82
          AC 04 6B 7A
          65 76 C0 BE
          43 E8 51 5B
          6C B7 B6 89
          29 E2 31 A5
          26 02 F3 62
          71 08 1C 9E
          E5 73 9F 02
          DA 8E 8D AE
          CC B0 0D 74
          C7 CE E9 F0
          C4 60 01 B9
          22 13 90 18
          C9 2E 1D 2D
          C9 38 AD 99
          E4 66 5F A5
          77 5D 21 93
          97 18 DC 55
          C0 11 7F A6
03B6 0004 8F DA A5 21 VCRC32                21A5DA8F
03BA 0120 ...         PAYLOAD

06A0 0004 50 4B 06 06 ZIP64 END CENTRAL DIR 06064B50
                      RECORD
06A4 0008 4C 00 00 00 Size of record        000000000000004C
          00 00 00 00
06AC 0001 41          Created Zip Spec      41 '6.5'
06AD 0001 00          Created OS            00 'MS-DOS'
06AE 0001 3E          Extract Zip Spec      3E '6.2'
06AF 0001 00          Extract OS            00 'MS-DOS'
06B0 0004 00 00 00 00 Number of this disk   00000000
06B4 0004 00 00 00 00 Central Dir Disk no   00000000
06B8 0008 00 00 00 00 Entries in this disk  0000000000000000
          00 00 00 00
06C0 0008 02 00 00 00 Total Entries         0000000000000002
          00 00 00 00
06C8 0008 C6 01 00 00 Size of Central Dir   00000000000001C6
          00 00 00 00
06D0 0008 DA 04 00 00 Offset to Central dir 00000000000004DA
          00 00 00 00
06D8 0002 08 00       Compression Method    0008 'Deflated'
06DA 0008 C6 01 00 00 Compressed Length     00000000000001C6
          00 00 00 00
06E2 0008 D7 00 00 00 Uncompressed Length   00000000000000D7
          00 00 00 00
06EA 0002 10 66       AlgId                 6610 'AES 256'
06EC 0002 00 01       BitLen                0100
06EE 0002 01 00       Flags                 0001 'Password required to decrypt'
06F0 0002 01 00       HashID                0001 'CRC32'
06F2 0002 04 00       Hash Length           0004
06F4 0004 E2 8B 39 AE Hash Data             E2 8B 39 AE

06F8 0004 50 4B 06 07 ZIP64 END CENTRAL DIR 07064B50
                      LOCATOR
06FC 0004 00 00 00 00 Central Dir Disk no   00000000
0700 0008 A0 06 00 00 Offset to Central dir 00000000000006A0
          00 00 00 00
0708 0004 01 00 00 00 Total no of Disks     00000001

070C 0004 50 4B 05 06 END CENTRAL HEADER    06054B50
0710 0002 00 00       Number of this disk   0000
0712 0002 00 00       Central Dir Disk no   0000
0714 0002 00 00       Entries in this disk  0000
0716 0002 FF FF       Total Entries         FFFF
0718 0004 C6 01 00 00 Size of Central Dir   000001C6
071C 0004 DA 04 00 00 Offset to Central Dir 000004DA
0720 0002 00 00       Comment Length        0000
Done
