
0000 0003 0004 50 4B 03 04 LOCAL HEADER #1       04034B50 (67324752)
0004 0004 0001 0A          Extract Zip Spec      0A (10) '1.0'
0005 0005 0001 00          Extract OS            00 (0) 'MS-DOS'
0006 0007 0002 00 00       General Purpose Flag  0000 (0)
0008 0009 0002 00 00       Compression Method    0000 (0) 'Stored'
000A 000D 0004 19 94 9C 57 Last Mod Date/Time    579C9419 (1469879321) 'Thu Dec 28 18:32:50 2023'
000E 0011 0004 00 00 00 00 CRC                   00000000 (0)
0012 0015 0004 00 00 00 00 Compressed Size       00000000 (0)
0016 0019 0004 00 00 00 00 Uncompressed Size     00000000 (0)
001A 001B 0002 08 00       Filename Length       0008 (8)
001C 001D 0002 1C 00       Extra Length          001C (28)
001E 0025 0008 73 6F 6D 65 Filename              'somedir/'
               64 69 72 2F
0026 0027 0002 55 54       Extra ID #1           5455 (21589) 'Extended Timestamp [UT]'
0028 0029 0002 09 00         Length              0009 (9)
002A 002A 0001 03            Flags               03 (3) 'mod access'
002B 002E 0004 51 BF 8D 65   Mod Time            658DBF51 (1703788369) 'Thu Dec 28 18:32:49 2023'
002F 0032 0004 51 BF 8D 65   Access Time         658DBF51 (1703788369) 'Thu Dec 28 18:32:49 2023'
0033 0034 0002 75 78       Extra ID #2           7875 (30837) 'Unix Extra type 3 [ux]'
0035 0036 0002 0B 00         Length              000B (11)
0037 0037 0001 01            Version             01 (1)
0038 0038 0001 04            UID Size            04 (4)
0039 003C 0004 E8 03 00 00   UID                 000003E8 (1000)
003D 003D 0001 04            GID Size            04 (4)
003E 0041 0004 E8 03 00 00   GID                 000003E8 (1000)

0042 0045 0004 50 4B 01 02 CENTRAL HEADER #1     02014B50 (33639248)
0046 0046 0001 1E          Created Zip Spec      1E (30) '3.0'
0047 0047 0001 03          Created OS            03 (3) 'Unix'
0048 0048 0001 0A          Extract Zip Spec      0A (10) '1.0'
0049 0049 0001 00          Extract OS            00 (0) 'MS-DOS'
004A 004B 0002 00 00       General Purpose Flag  0000 (0)
004C 004D 0002 00 00       Compression Method    0000 (0) 'Stored'
004E 0051 0004 19 94 9C 57 Last Mod Date/Time    579C9419 (1469879321) 'Thu Dec 28 18:32:50 2023'
0052 0055 0004 00 00 00 00 CRC                   00000000 (0)
0056 0059 0004 00 00 00 00 Compressed Size       00000000 (0)
005A 005D 0004 00 00 00 00 Uncompressed Size     00000000 (0)
005E 005F 0002 08 00       Filename Length       0008 (8)
0060 0061 0002 18 00       Extra Length          0018 (24)
0062 0063 0002 00 00       Comment Length        0000 (0)
0064 0065 0002 00 00       Disk Start            0000 (0)
0066 0067 0002 00 00       Int File Attributes   0000 (0)
                           [Bit 0]               0 'Binary Data'
0068 006B 0004 10 00 FD 41 Ext File Attributes   41FD0010 (1107099664)
                           [Bit 4]               Directory
                           [Bits 16-24]          01FD (509) 'Unix attrib: rwxrwxr-x'
                           [Bits 28-31]          04 (4) 'Directory'
006C 006F 0004 00 00 00 00 Local Header Offset   00000000 (0)
0070 0077 0008 73 6F 6D 65 Filename              'somedir/'
               64 69 72 2F
0078 0079 0002 55 54       Extra ID #1           5455 (21589) 'Extended Timestamp [UT]'
007A 007B 0002 05 00         Length              0005 (5)
007C 007C 0001 03            Flags               03 (3) 'mod access'
007D 0080 0004 51 BF 8D 65   Mod Time            658DBF51 (1703788369) 'Thu Dec 28 18:32:49 2023'
0081 0082 0002 75 78       Extra ID #2           7875 (30837) 'Unix Extra type 3 [ux]'
0083 0084 0002 0B 00         Length              000B (11)
0085 0085 0001 01            Version             01 (1)
0086 0086 0001 04            UID Size            04 (4)
0087 008A 0004 E8 03 00 00   UID                 000003E8 (1000)
008B 008B 0001 04            GID Size            04 (4)
008C 008F 0004 E8 03 00 00   GID                 000003E8 (1000)

0090 0093 0004 50 4B 05 06 END CENTRAL HEADER    06054B50 (101010256)
0094 0095 0002 00 00       Number of this disk   0000 (0)
0096 0097 0002 00 00       Central Dir Disk no   0000 (0)
0098 0099 0002 01 00       Entries in this disk  0001 (1)
009A 009B 0002 01 00       Total Entries         0001 (1)
009C 009F 0004 4E 00 00 00 Size of Central Dir   0000004E (78)
00A0 00A3 0004 42 00 00 00 Offset to Central Dir 00000042 (66)
00A4 00A5 0002 00 00       Comment Length        0000 (0)
#
# Done
