
0000 0003 0004 50 4B 03 04 LOCAL HEADER #1       04034B50 (67324752)
0004 0004 0001 14          Extract Zip Spec      14 (20) '2.0'
0005 0005 0001 00          Extract OS            00 (0) 'MS-DOS'
0006 0007 0002 08 00       General Purpose Flag  0008 (8)
                           [Bit  3]              1 'Streamed'
0008 0009 0002 00 00       Compression Method    0000 (0) 'Stored'
000A 000D 0004 6F 08 67 56 Last Mod Time         5667086F (1449592943) 'Tue Mar  7 01:03:30 2023'
000E 0011 0004 00 00 00 00 CRC                   00000000 (0)
0012 0015 0004 00 00 00 00 Compressed Length     00000000 (0)
0016 0019 0004 00 00 00 00 Uncompressed Length   00000000 (0)
001A 001B 0002 00 00       Filename Length       0000 (0)
#
# INFO: Offset 0x1A: Zero Length filename
#
001C 001D 0002 00 00       Extra Length          0000 (0)
001E 0021 0004 61 62 63 64 PAYLOAD               abcd

0022 0025 0004 50 4B 07 08 DATA DESCRIPTOR       08074B50 (134695760)
0026 0029 0004 11 CD 82 ED CRC                   ED82CD11 (3984772369)
002A 002D 0004 04 00 00 00 Compressed Length     00000004 (4)
002E 0031 0004 04 00 00 00 Uncompressed Length   00000004 (4)

0032 0035 0004 50 4B 01 02 CENTRAL HEADER #1     02014B50 (33639248)
0036 0036 0001 14          Created Zip Spec      14 (20) '2.0'
0037 0037 0001 03          Created OS            03 (3) 'Unix'
0038 0038 0001 14          Extract Zip Spec      14 (20) '2.0'
0039 0039 0001 00          Extract OS            00 (0) 'MS-DOS'
003A 003B 0002 08 00       General Purpose Flag  0008 (8)
                           [Bit  3]              1 'Streamed'
003C 003D 0002 00 00       Compression Method    0000 (0) 'Stored'
003E 0041 0004 6F 08 67 56 Last Mod Time         5667086F (1449592943) 'Tue Mar  7 01:03:30 2023'
0042 0045 0004 11 CD 82 ED CRC                   ED82CD11 (3984772369)
0046 0049 0004 04 00 00 00 Compressed Length     00000004 (4)
004A 004D 0004 04 00 00 00 Uncompressed Length   00000004 (4)
004E 004F 0002 00 00       Filename Length       0000 (0)
#
# INFO: Offset 0x4E: Zero Length filename
#
0050 0051 0002 00 00       Extra Length          0000 (0)
0052 0053 0002 00 00       Comment Length        0000 (0)
0054 0055 0002 00 00       Disk Start            0000 (0)
0056 0057 0002 00 00       Int File Attributes   0000 (0)
                           [Bit 0]               0 'Binary Data'
0058 005B 0004 00 00 A4 81 Ext File Attributes   81A40000 (2175008768)
                           [Bits 16-24]          01A4 (420) 'Unix attrib: rw-r--r--'
                           [Bits 28-31]          08 (8) 'Regular File'
005C 005F 0004 00 00 00 00 Local Header Offset   00000000 (0)

0060 0063 0004 50 4B 05 06 END CENTRAL HEADER    06054B50 (101010256)
0064 0065 0002 00 00       Number of this disk   0000 (0)
0066 0067 0002 00 00       Central Dir Disk no   0000 (0)
0068 0069 0002 01 00       Entries in this disk  0001 (1)
006A 006B 0002 01 00       Total Entries         0001 (1)
006C 006F 0004 2E 00 00 00 Size of Central Dir   0000002E (46)
0070 0073 0004 32 00 00 00 Offset to Central Dir 00000032 (50)
0074 0075 0002 00 00       Comment Length        0000 (0)
#
# Info Count: 2
#
# Done
