
0000 0003 0004 50 4B 03 04 LOCAL HEADER #1       67324752 (0x4034B50)
0004 0004 0001 14          Extract Zip Spec      20 (0x14) '2.0'
0005 0005 0001 00          Extract OS            0 (0x0) 'MS-DOS'
0006 0007 0002 00 08       General Purpose Flag  2048 (0x800)
                           [Bits 1-2]            0 'Normal Compression'
                           [Bit 11]              1 'Language Encoding'
0008 0009 0002 08 00       Compression Method    8 (0x8) 'Deflated'
000A 000D 0004 A0 6B 99 52 Last Mod Time         1385786272 (0x52996BA0) 'Sun Apr 25 13:29:00 2021'
000E 0011 0004 31 1B CD 8C CRC                   2362252081 (0x8CCD1B31)
0012 0015 0004 11 00 00 00 Compressed Length     17 (0x11)
0016 0019 0004 0F 00 00 00 Uncompressed Length   15 (0xF)
001A 001B 0002 0C 00       Filename Length       12 (0xC)
001C 001D 0002 56 00       Extra Length          86 (0x56)
001E 0029 000C 69 6E 66 6C Filename              'inflated.txt'
               61 74 65 64
               2E 74 78 74
002A 002B 0002 01 00       Extra ID #1           1 (0x1) 'ZIP64'
002C 002D 0002 10 00         Length              16 (0x10)
002E 0035 0008 0F 00 00 00   Uncompressed Size   15 (0xF)
               00 00 00 00
0036 003D 0008 11 00 00 00   Compressed Size     17 (0x11)
               00 00 00 00
003E 003F 0002 1E A1       Extra ID #2           41246 (0xA11E) 'Data Stream Alignment'
0040 0041 0002 3E 00         Length              62 (0x3E)
0042 0043 0002 40 00         Alignment           64 (0x40)
                             [Bit   15]          0    'Recompress False'
                             [Bits 0-14]         40 'Minimal Alignment 64'
0044 007F 003C 00 00 00 00   Padding             00 00 00 00 00 00 00 00 00 00 00 00 00 00 00 00
               00 00 00 00                       00 00 00 00 00 00 00 00 00 00 00 00 00 00 00 00
               00 00 00 00                       00 00 00 00 00 00 00 00 00 00 00 00 00 00 00 00
               00 00 00 00                       00 00 00 00 00 00 00 00 00 00 00 00
               00 00 00 00
               00 00 00 00
               00 00 00 00
               00 00 00 00
               00 00 00 00
               00 00 00 00
               00 00 00 00
               00 00 00 00
               00 00 00 00
               00 00 00 00
               00 00 00 00
0080 0090 0011 F3 48 CD C9 PAYLOAD               .H...WpIM.I,IM...
               C9 57 70 49
               4D CB 49 2C
               49 4D E1 02
               00

0091 0094 0004 50 4B 03 04 LOCAL HEADER #2       67324752 (0x4034B50)
0095 0095 0001 0A          Extract Zip Spec      10 (0xA) '1.0'
0096 0096 0001 00          Extract OS            0 (0x0) 'MS-DOS'
0097 0098 0002 00 08       General Purpose Flag  2048 (0x800)
                           [Bit 11]              1 'Language Encoding'
0099 009A 0002 00 00       Compression Method    0 (0x0) 'Stored'
009B 009E 0004 A0 6B 99 52 Last Mod Time         1385786272 (0x52996BA0) 'Sun Apr 25 13:29:00 2021'
009F 00A2 0004 7E A9 30 44 CRC                   1144039806 (0x4430A97E)
00A3 00A6 0004 0D 00 00 00 Compressed Length     13 (0xD)
00A7 00AA 0004 0D 00 00 00 Uncompressed Length   13 (0xD)
00AB 00AC 0002 0A 00       Filename Length       10 (0xA)
00AD 00AE 0002 27 00       Extra Length          39 (0x27)
00AF 00B8 000A 73 74 6F 72 Filename              'stored.txt'
               65 64 2E 74
               78 74
00B9 00BA 0002 01 00       Extra ID #1           1 (0x1) 'ZIP64'
00BB 00BC 0002 10 00         Length              16 (0x10)
00BD 00C4 0008 0D 00 00 00   Uncompressed Size   13 (0xD)
               00 00 00 00
00C5 00CC 0008 0D 00 00 00   Compressed Size     13 (0xD)
               00 00 00 00
00CD 00CE 0002 1E A1       Extra ID #2           41246 (0xA11E) 'Data Stream Alignment'
00CF 00D0 0002 0F 00         Length              15 (0xF)
00D1 00D2 0002 20 80         Alignment           32800 (0x8020)
                             [Bit   15]          1    'Recompress True'
                             [Bits 0-14]         20 'Minimal Alignment 32'
00D3 00DF 000D 00 00 00 00   Padding             00 00 00 00 00 00 00 00 00 00 00 00 00
               00 00 00 00
               00 00 00 00
               00
00E0 00EC 000D 48 65 6C 6C PAYLOAD               Hello Stored.
               6F 20 53 74
               6F 72 65 64
               0A

00ED 00F0 0004 50 4B 01 02 CENTRAL HEADER #1     33639248 (0x2014B50)
00F1 00F1 0001 14          Created Zip Spec      20 (0x14) '2.0'
00F2 00F2 0001 00          Created OS            0 (0x0) 'MS-DOS'
00F3 00F3 0001 14          Extract Zip Spec      20 (0x14) '2.0'
00F4 00F4 0001 00          Extract OS            0 (0x0) 'MS-DOS'
00F5 00F6 0002 00 08       General Purpose Flag  2048 (0x800)
                           [Bits 1-2]            0 'Normal Compression'
                           [Bit 11]              1 'Language Encoding'
00F7 00F8 0002 08 00       Compression Method    8 (0x8) 'Deflated'
00F9 00FC 0004 A0 6B 99 52 Last Mod Time         1385786272 (0x52996BA0) 'Sun Apr 25 13:29:00 2021'
00FD 0100 0004 31 1B CD 8C CRC                   2362252081 (0x8CCD1B31)
0101 0104 0004 11 00 00 00 Compressed Length     17 (0x11)
0105 0108 0004 0F 00 00 00 Uncompressed Length   15 (0xF)
0109 010A 0002 0C 00       Filename Length       12 (0xC)
010B 010C 0002 06 00       Extra Length          6 (0x6)
010D 010E 0002 00 00       Comment Length        0 (0x0)
010F 0110 0002 00 00       Disk Start            0 (0x0)
0111 0112 0002 00 00       Int File Attributes   0 (0x0)
                           [Bit 0]               0 'Binary Data'
0113 0116 0004 00 00 00 00 Ext File Attributes   0 (0x0)
0117 011A 0004 00 00 00 00 Local Header Offset   0 (0x0)
011B 0126 000C 69 6E 66 6C Filename              'inflated.txt'
               61 74 65 64
               2E 74 78 74
0127 0128 0002 1E A1       Extra ID #1           41246 (0xA11E) 'Data Stream Alignment'
0129 012A 0002 02 00         Length              2 (0x2)
012B 012C 0002 40 00         Alignment           64 (0x40)
                             [Bit   15]          0    'Recompress False'
                             [Bits 0-14]         40 'Minimal Alignment 64'

012D 0130 0004 50 4B 01 02 CENTRAL HEADER #2     33639248 (0x2014B50)
0131 0131 0001 14          Created Zip Spec      20 (0x14) '2.0'
0132 0132 0001 00          Created OS            0 (0x0) 'MS-DOS'
0133 0133 0001 0A          Extract Zip Spec      10 (0xA) '1.0'
0134 0134 0001 00          Extract OS            0 (0x0) 'MS-DOS'
0135 0136 0002 00 08       General Purpose Flag  2048 (0x800)
                           [Bit 11]              1 'Language Encoding'
0137 0138 0002 00 00       Compression Method    0 (0x0) 'Stored'
0139 013C 0004 A0 6B 99 52 Last Mod Time         1385786272 (0x52996BA0) 'Sun Apr 25 13:29:00 2021'
013D 0140 0004 7E A9 30 44 CRC                   1144039806 (0x4430A97E)
0141 0144 0004 0D 00 00 00 Compressed Length     13 (0xD)
0145 0148 0004 0D 00 00 00 Uncompressed Length   13 (0xD)
0149 014A 0002 0A 00       Filename Length       10 (0xA)
014B 014C 0002 06 00       Extra Length          6 (0x6)
014D 014E 0002 00 00       Comment Length        0 (0x0)
014F 0150 0002 00 00       Disk Start            0 (0x0)
0151 0152 0002 00 00       Int File Attributes   0 (0x0)
                           [Bit 0]               0 'Binary Data'
0153 0156 0004 00 00 00 00 Ext File Attributes   0 (0x0)
0157 015A 0004 91 00 00 00 Local Header Offset   145 (0x91)
015B 0164 000A 73 74 6F 72 Filename              'stored.txt'
               65 64 2E 74
               78 74
0165 0166 0002 1E A1       Extra ID #1           41246 (0xA11E) 'Data Stream Alignment'
0167 0168 0002 02 00         Length              2 (0x2)
0169 016A 0002 20 80         Alignment           32800 (0x8020)
                             [Bit   15]          1    'Recompress True'
                             [Bits 0-14]         20 'Minimal Alignment 32'

016B 016E 0004 50 4B 05 06 END CENTRAL HEADER    101010256 (0x6054B50)
016F 0170 0002 00 00       Number of this disk   0 (0x0)
0171 0172 0002 00 00       Central Dir Disk no   0 (0x0)
0173 0174 0002 02 00       Entries in this disk  2 (0x2)
0175 0176 0002 02 00       Total Entries         2 (0x2)
0177 017A 0004 7E 00 00 00 Size of Central Dir   126 (0x7E)
017B 017E 0004 ED 00 00 00 Offset to Central Dir 237 (0xED)
017F 0180 0002 00 00       Comment Length        0 (0x0)
#
# Done
