
0000 0004 50 4B 03 04 LOCAL HEADER #1       04034B50
0004 0001 14          Extract Zip Spec      14 '2.0'
0005 0001 00          Extract OS            00 'MS-DOS'
0006 0002 00 08       General Purpose Flag  0800
                      [Bits 1-2]            0 'Normal Compression'
                      [Bit 11]              1 'Language Encoding'
0008 0002 08 00       Compression Method    0008 'Deflated'
000A 0004 A0 6B 99 52 Last Mod Time         52996BA0 'Sun Apr 25 13:29:00 2021'
000E 0004 31 1B CD 8C CRC                   8CCD1B31
0012 0004 11 00 00 00 Compressed Length     00000011
0016 0004 0F 00 00 00 Uncompressed Length   0000000F
001A 0002 0C 00       Filename Length       000C
001C 0002 56 00       Extra Length          0056
001E 000C 69 6E 66 6C Filename              'inflated.txt'
          61 74 65 64
          2E 74 78 74
002A 0002 01 00       Extra ID #0001        0001 'ZIP64'
002C 0002 10 00         Length              0010
002E 0008 0F 00 00 00   Uncompressed Size   000000000000000F
          00 00 00 00
0036 0008 11 00 00 00   Compressed Size     0000000000000011
          00 00 00 00
003E 0002 1E A1       Extra ID #0002        A11E 'Data Stream Alignment'
0040 0002 3E 00         Length              003E
0042 0002 40 00         Alignment           0040
                        [Bit   15]          0    'Recompress False'
                        [Bits 0-14]         40 'Minimal Alignment 64'
0044 003C 00 00 00 00   Padding             00 00 00 00 00 00 00 00 00 00 00 00
          00 00 00 00                       00 00 00 00 00 00 00 00 00 00 00 00
          00 00 00 00                       00 00 00 00 00 00 00 00 00 00 00 00
          00 00 00 00                       00 00 00 00 00 00 00 00 00 00 00 00
          00 00 00 00                       00 00 00 00 00 00 00 00 00 00 00 00
          00 00 00 00
          00 00 00 00
          00 00 00 00
          00 00 00 00
          00 00 00 00
          00 00 00 00
          00 00 00 00
          00 00 00 00
          00 00 00 00
          00 00 00 00
0080 0011 F3 48 CD C9 PAYLOAD               .H...WpIM.I,IM...
          C9 57 70 49
          4D CB 49 2C
          49 4D E1 02
          00

0091 0004 50 4B 03 04 LOCAL HEADER #2       04034B50
0095 0001 0A          Extract Zip Spec      0A '1.0'
0096 0001 00          Extract OS            00 'MS-DOS'
0097 0002 00 08       General Purpose Flag  0800
                      [Bit 11]              1 'Language Encoding'
0099 0002 00 00       Compression Method    0000 'Stored'
009B 0004 A0 6B 99 52 Last Mod Time         52996BA0 'Sun Apr 25 13:29:00 2021'
009F 0004 7E A9 30 44 CRC                   4430A97E
00A3 0004 0D 00 00 00 Compressed Length     0000000D
00A7 0004 0D 00 00 00 Uncompressed Length   0000000D
00AB 0002 0A 00       Filename Length       000A
00AD 0002 27 00       Extra Length          0027
00AF 000A 73 74 6F 72 Filename              'stored.txt'
          65 64 2E 74
          78 74
00B9 0002 01 00       Extra ID #0001        0001 'ZIP64'
00BB 0002 10 00         Length              0010
00BD 0008 0D 00 00 00   Uncompressed Size   000000000000000D
          00 00 00 00
00C5 0008 0D 00 00 00   Compressed Size     000000000000000D
          00 00 00 00
00CD 0002 1E A1       Extra ID #0002        A11E 'Data Stream Alignment'
00CF 0002 0F 00         Length              000F
00D1 0002 20 80         Alignment           8020
                        [Bit   15]          1    'Recompress True'
                        [Bits 0-14]         20 'Minimal Alignment 32'
00D3 000D 00 00 00 00   Padding             00 00 00 00 00 00 00 00 00 00 00 00
          00 00 00 00                       00
          00 00 00 00
          00
00E0 000D 48 65 6C 6C PAYLOAD               Hello Stored.
          6F 20 53 74
          6F 72 65 64
          0A

00ED 0004 50 4B 01 02 CENTRAL HEADER #1     02014B50
00F1 0001 14          Created Zip Spec      14 '2.0'
00F2 0001 00          Created OS            00 'MS-DOS'
00F3 0001 14          Extract Zip Spec      14 '2.0'
00F4 0001 00          Extract OS            00 'MS-DOS'
00F5 0002 00 08       General Purpose Flag  0800
                      [Bits 1-2]            0 'Normal Compression'
                      [Bit 11]              1 'Language Encoding'
00F7 0002 08 00       Compression Method    0008 'Deflated'
00F9 0004 A0 6B 99 52 Last Mod Time         52996BA0 'Sun Apr 25 13:29:00 2021'
00FD 0004 31 1B CD 8C CRC                   8CCD1B31
0101 0004 11 00 00 00 Compressed Length     00000011
0105 0004 0F 00 00 00 Uncompressed Length   0000000F
0109 0002 0C 00       Filename Length       000C
010B 0002 06 00       Extra Length          0006
010D 0002 00 00       Comment Length        0000
010F 0002 00 00       Disk Start            0000
0111 0002 00 00       Int File Attributes   0000
                      [Bit 0]               0 'Binary Data'
0113 0004 00 00 00 00 Ext File Attributes   00000000
0117 0004 00 00 00 00 Local Header Offset   00000000
011B 000C 69 6E 66 6C Filename              'inflated.txt'
          61 74 65 64
          2E 74 78 74
0127 0002 1E A1       Extra ID #0001        A11E 'Data Stream Alignment'
0129 0002 02 00         Length              0002
012B 0002 40 00         Alignment           0040
                        [Bit   15]          0    'Recompress False'
                        [Bits 0-14]         40 'Minimal Alignment 64'

012D 0004 50 4B 01 02 CENTRAL HEADER #2     02014B50
0131 0001 14          Created Zip Spec      14 '2.0'
0132 0001 00          Created OS            00 'MS-DOS'
0133 0001 0A          Extract Zip Spec      0A '1.0'
0134 0001 00          Extract OS            00 'MS-DOS'
0135 0002 00 08       General Purpose Flag  0800
                      [Bit 11]              1 'Language Encoding'
0137 0002 00 00       Compression Method    0000 'Stored'
0139 0004 A0 6B 99 52 Last Mod Time         52996BA0 'Sun Apr 25 13:29:00 2021'
013D 0004 7E A9 30 44 CRC                   4430A97E
0141 0004 0D 00 00 00 Compressed Length     0000000D
0145 0004 0D 00 00 00 Uncompressed Length   0000000D
0149 0002 0A 00       Filename Length       000A
014B 0002 06 00       Extra Length          0006
014D 0002 00 00       Comment Length        0000
014F 0002 00 00       Disk Start            0000
0151 0002 00 00       Int File Attributes   0000
                      [Bit 0]               0 'Binary Data'
0153 0004 00 00 00 00 Ext File Attributes   00000000
0157 0004 91 00 00 00 Local Header Offset   00000091
015B 000A 73 74 6F 72 Filename              'stored.txt'
          65 64 2E 74
          78 74
0165 0002 1E A1       Extra ID #0001        A11E 'Data Stream Alignment'
0167 0002 02 00         Length              0002
0169 0002 20 80         Alignment           8020
                        [Bit   15]          1    'Recompress True'
                        [Bits 0-14]         20 'Minimal Alignment 32'

016B 0004 50 4B 05 06 END CENTRAL HEADER    06054B50
016F 0002 00 00       Number of this disk   0000
0171 0002 00 00       Central Dir Disk no   0000
0173 0002 02 00       Entries in this disk  0002
0175 0002 02 00       Total Entries         0002
0177 0004 7E 00 00 00 Size of Central Dir   0000007E
017B 0004 ED 00 00 00 Offset to Central Dir 000000ED
017F 0002 00 00       Comment Length        0000
Done
