
0000 0003 0004 50 4B 03 04 LOCAL HEADER #1       04034B50 (67324752)
0004 0004 0001 14          Extract Zip Spec      14 (20) '2.0'
0005 0005 0001 00          Extract OS            00 (0) 'MS-DOS'
0006 0007 0002 00 00       General Purpose Flag  0000 (0)
                           [Bits 1-2]            0 'Normal Compression'
0008 0009 0002 08 00       Compression Method    0008 (8) 'Deflated'
000A 000D 0004 67 5F B0 5C Modification Time     5CB05F67 (1555062631) 'Sat May 16 11:59:14 2026'
000E 0011 0004 11 CD 82 ED CRC                   ED82CD11 (3984772369)
0012 0015 0004 06 00 00 00 Compressed Size       00000006 (6)
0016 0019 0004 04 00 00 00 Uncompressed Size     00000004 (4)
001A 001B 0002 04 00       Filename Length       0004 (4)
001C 001D 0002 15 00       Extra Length          0015 (21)
001E 0021 0004 74 65 73 74 Filename              'test'
0022 0023 0002 75 78       Extra ID #1           7875 (30837) 'Unix Extra type 3 [ux]'
0024 0025 0002 11 00         Length              0011 (17)
0026 0026 0001 01            Version             01 (1)
0027 0027 0001 07            UID Size            07 (7)
0028 002E 0007 07 07 07 07   UID                 Invalid UID Value: 07 07 07 07 07 07 07
               07 07 07
#
# INFO: Offset 0x28: Extra Field 'Unix Extra type 3 [ux]' (ID 0x7875): UID value is not a valid value
#
002F 002F 0001 07            GID Size            07 (7)
0030 0036 0007 07 07 07 07   GID                 Invalid GID Value: 07 07 07 07 07 07 07
               07 07 07
#
# INFO: Offset 0x30: Extra Field 'Unix Extra type 3 [ux]' (ID 0x7875):  GID value is not a valid value
#
0037 003C 0006 4B 4C 4A 4E PAYLOAD               KLJN..
               01 00

003D 0040 0004 50 4B 01 02 CENTRAL HEADER #1     02014B50 (33639248)
0041 0041 0001 14          Created Zip Spec      14 (20) '2.0'
0042 0042 0001 03          Created OS            03 (3) 'Unix'
0043 0043 0001 14          Extract Zip Spec      14 (20) '2.0'
0044 0044 0001 00          Extract OS            00 (0) 'MS-DOS'
0045 0046 0002 00 00       General Purpose Flag  0000 (0)
                           [Bits 1-2]            0 'Normal Compression'
0047 0048 0002 08 00       Compression Method    0008 (8) 'Deflated'
0049 004C 0004 67 5F B0 5C Modification Time     5CB05F67 (1555062631) 'Sat May 16 11:59:14 2026'
004D 0050 0004 11 CD 82 ED CRC                   ED82CD11 (3984772369)
0051 0054 0004 06 00 00 00 Compressed Size       00000006 (6)
0055 0058 0004 04 00 00 00 Uncompressed Size     00000004 (4)
0059 005A 0002 04 00       Filename Length       0004 (4)
005B 005C 0002 15 00       Extra Length          0015 (21)
005D 005E 0002 00 00       Comment Length        0000 (0)
005F 0060 0002 00 00       Disk Start            0000 (0)
0061 0062 0002 00 00       Int File Attributes   0000 (0)
                           [Bit 0]               0 'Binary Data'
0063 0066 0004 00 00 A4 81 Ext File Attributes   81A40000 (2175008768)
                           [Bits 16-24]          01A4 (420) 'Unix attrib: rw-r--r--'
                           [Bits 28-31]          08 (8) 'Regular File'
0067 006A 0004 00 00 00 00 Local Header Offset   00000000 (0)
006B 006E 0004 74 65 73 74 Filename              'test'
006F 0070 0002 75 78       Extra ID #1           7875 (30837) 'Unix Extra type 3 [ux]'
0071 0072 0002 11 00         Length              0011 (17)
0073 0073 0001 01            Version             01 (1)
0074 0074 0001 07            UID Size            07 (7)
0075 007B 0007 07 07 07 07   UID                 Invalid UID Value: 07 07 07 07 07 07 07
               07 07 07
#
# INFO: Offset 0x75: Extra Field 'Unix Extra type 3 [ux]' (ID 0x7875): UID value is not a valid value
#
007C 007C 0001 07            GID Size            07 (7)
007D 0083 0007 07 07 07 07   GID                 Invalid GID Value: 07 07 07 07 07 07 07
               07 07 07
#
# INFO: Offset 0x7D: Extra Field 'Unix Extra type 3 [ux]' (ID 0x7875):  GID value is not a valid value
#

0084 0087 0004 50 4B 05 06 END CENTRAL HEADER    06054B50 (101010256)
0088 0089 0002 00 00       Number of this disk   0000 (0)
008A 008B 0002 00 00       Central Dir Disk no   0000 (0)
008C 008D 0002 01 00       Entries in this disk  0001 (1)
008E 008F 0002 01 00       Total Entries         0001 (1)
0090 0093 0004 47 00 00 00 Size of Central Dir   00000047 (71)
0094 0097 0004 3D 00 00 00 Offset to Central Dir 0000003D (61)
0098 0099 0002 00 00       Comment Length        0000 (0)
#
# Info Count: 4
#
# Done
