
000000000 000000003 000000004 50 4B 03 04 LOCAL HEADER #1       67324752 (0x4034B50)
000000004 000000004 000000001 0A          Extract Zip Spec      10 (0xA) '1.0'
000000005 000000005 000000001 00          Extract OS            0 (0x0) 'MS-DOS'
000000006 000000007 000000002 00 00       General Purpose Flag  0 (0x0)
000000008 000000009 000000002 00 00       Compression Method    0 (0x0) 'Stored'
00000000A 00000000D 000000004 1B 74 07 55 Last Mod Time         1426551835 (0x5507741B) 'Sun Aug  7 14:32:54 2022'
00000000E 000000011 000000004 00 00 00 00 CRC                   0 (0x0)
000000012 000000015 000000004 FF FF FF FF Compressed Length     4294967295 (0xFFFFFFFF)
000000016 000000019 000000004 FF FF FF FF Uncompressed Length   4294967295 (0xFFFFFFFF)
00000001A 00000001B 000000002 04 00       Filename Length       4 (0x4)
00000001C 00000001D 000000002 00 00       Extra Length          0 (0x0)
00000001E 000000021 000000004 34 67 69 67 Filename              '4gig'
000000022 100000020 0FFFFFFFF ...         PAYLOAD

100000021 100000024 000000004 50 4B 01 02 CENTRAL HEADER #1     33639248 (0x2014B50)
100000025 100000025 000000001 14          Created Zip Spec      20 (0x14) '2.0'
100000026 100000026 000000001 00          Created OS            0 (0x0) 'MS-DOS'
100000027 100000027 000000001 0A          Extract Zip Spec      10 (0xA) '1.0'
100000028 100000028 000000001 00          Extract OS            0 (0x0) 'MS-DOS'
100000029 10000002A 000000002 00 00       General Purpose Flag  0 (0x0)
10000002B 10000002C 000000002 00 00       Compression Method    0 (0x0) 'Stored'
10000002D 100000030 000000004 1B 74 07 55 Last Mod Time         1426551835 (0x5507741B) 'Sun Aug  7 14:32:54 2022'
100000031 100000034 000000004 00 00 00 00 CRC                   0 (0x0)
100000035 100000038 000000004 FF FF FF FF Compressed Length     4294967295 (0xFFFFFFFF)
100000039 10000003C 000000004 FF FF FF FF Uncompressed Length   4294967295 (0xFFFFFFFF)
10000003D 10000003E 000000002 04 00       Filename Length       4 (0x4)
10000003F 100000040 000000002 00 00       Extra Length          0 (0x0)
100000041 100000042 000000002 00 00       Comment Length        0 (0x0)
100000043 100000044 000000002 00 00       Disk Start            0 (0x0)
100000045 100000046 000000002 00 00       Int File Attributes   0 (0x0)
                                          [Bit 0]               0 'Binary Data'
100000047 10000004A 000000004 20 00 00 00 Ext File Attributes   32 (0x20)
                                          [Bit 5]               Archive
10000004B 10000004E 000000004 00 00 00 00 Local Header Offset   0 (0x0)
10000004F 100000052 000000004 34 67 69 67 Filename              '4gig'

100000053 100000056 000000004 50 4B 06 06 ZIP64 END CENTRAL DIR 101075792 (0x6064B50)
                                          RECORD
100000057 10000005E 000000008 2C 00 00 00 Size of record        44 (0x2C)
                              00 00 00 00
10000005F 10000005F 000000001 2D          Created Zip Spec      45 (0x2D) '4.5'
100000060 100000060 000000001 00          Created OS            0 (0x0) 'MS-DOS'
100000061 100000061 000000001 2D          Extract Zip Spec      45 (0x2D) '4.5'
100000062 100000062 000000001 00          Extract OS            0 (0x0) 'MS-DOS'
100000063 100000066 000000004 00 00 00 00 Number of this disk   0 (0x0)
100000067 10000006A 000000004 00 00 00 00 Central Dir Disk no   0 (0x0)
10000006B 100000072 000000008 01 00 00 00 Entries in this disk  1 (0x1)
                              00 00 00 00
100000073 10000007A 000000008 01 00 00 00 Total Entries         1 (0x1)
                              00 00 00 00
10000007B 100000082 000000008 32 00 00 00 Size of Central Dir   50 (0x32)
                              00 00 00 00
100000083 10000008A 000000008 21 00 00 00 Offset to Central dir 4294967329 (0x100000021)
                              01 00 00 00

10000008B 10000008E 000000004 50 4B 06 07 ZIP64 END CENTRAL DIR 117853008 (0x7064B50)
                                          LOCATOR
10000008F 100000092 000000004 00 00 00 00 Central Dir Disk no   0 (0x0)
100000093 10000009A 000000008 53 00 00 00 Offset to Zip64 EOCD  4294967379 (0x100000053)
                              01 00 00 00
10000009B 10000009E 000000004 01 00 00 00 Total no of Disks     1 (0x1)

10000009F 1000000A2 000000004 50 4B 05 06 END CENTRAL HEADER    101010256 (0x6054B50)
1000000A3 1000000A4 000000002 00 00       Number of this disk   0 (0x0)
1000000A5 1000000A6 000000002 00 00       Central Dir Disk no   0 (0x0)
1000000A7 1000000A8 000000002 01 00       Entries in this disk  1 (0x1)
1000000A9 1000000AA 000000002 01 00       Total Entries         1 (0x1)
1000000AB 1000000AE 000000004 32 00 00 00 Size of Central Dir   50 (0x32)
1000000AF 1000000B2 000000004 FF FF FF FF Offset to Central Dir 4294967295 (0xFFFFFFFF)
1000000B3 1000000B4 000000002 00 00       Comment Length        0 (0x0)
#
# Done
