
0000 0004 50 4B 03 04 LOCAL HEADER #1       04034B50
0004 0001 2D          Extract Zip Spec      2D '4.5'
0005 0001 00          Extract OS            00 'MS-DOS'
0006 0002 00 00       General Purpose Flag  0000
                      [Bits 1-2]            0 'Normal Compression'
0008 0002 08 00       Compression Method    0008 'Deflated'
000A 0004 71 85 98 52 Last Mod Time         52988571 'Sat Apr 24 16:43:34 2021'
000E 0004 FF E7 0E F9 CRC                   F90EE7FF
0012 0004 FF FF FF FF Compressed Length     FFFFFFFF
0016 0004 FF FF FF FF Uncompressed Length   FFFFFFFF
001A 0002 09 00       Filename Length       0009
001C 0002 30 00       Extra Length          0030
001E 0009 6C 6F 72 65 Filename              'lorem.txt'
          6D 2E 74 78
          74
0027 0002 55 54       Extra ID #0001        5455 'UT: Extended Timestamp'
0029 0002 09 00         Length              0009
002B 0001 03            Flags               '03 mod access'
002C 0004 A6 3C 84 60   Mod Time            60843CA6 'Sat Apr 24 15:43:34 2021'
0030 0004 E7 3D 84 60   Access Time         60843DE7 'Sat Apr 24 15:48:55 2021'
0034 0002 75 78       Extra ID #0002        7875 'ux: Unix Extra type 3'
0036 0002 0B 00         Length              000B
0038 0001 01            Version             01
0039 0001 04            UID Size            04
003A 0004 E8 03 00 00   UID                 000003E8
003E 0001 04            GID Size            04
003F 0004 E8 03 00 00   GID                 000003E8
0043 0002 01 00       Extra ID #0003        0001 'ZIP64'
0045 0002 10 00         Length              0010
0047 0008 BE 01 00 00   Uncompressed Size   00000000000001BE
          00 00 00 00
004F 0008 0E 01 00 00   Compressed Size     000000000000010E
          00 00 00 00
0057 010E ...         PAYLOAD

0165 0004 50 4B 01 02 CENTRAL HEADER #1     02014B50
0169 0001 1E          Created Zip Spec      1E '3.0'
016A 0001 03          Created OS            03 'Unix'
016B 0001 2D          Extract Zip Spec      2D '4.5'
016C 0001 00          Extract OS            00 'MS-DOS'
016D 0002 00 00       General Purpose Flag  0000
                      [Bits 1-2]            0 'Normal Compression'
016F 0002 08 00       Compression Method    0008 'Deflated'
0171 0004 71 85 98 52 Last Mod Time         52988571 'Sat Apr 24 16:43:34 2021'
0175 0004 FF E7 0E F9 CRC                   F90EE7FF
0179 0004 0E 01 00 00 Compressed Length     0000010E
017D 0004 FF FF FF FF Uncompressed Length   FFFFFFFF
0181 0002 09 00       Filename Length       0009
0183 0002 24 00       Extra Length          0024
0185 0002 00 00       Comment Length        0000
0187 0002 00 00       Disk Start            0000
0189 0002 01 00       Int File Attributes   0001
                      [Bit 0]               1 Text Data
018B 0004 00 00 ED 81 Ext File Attributes   81ED0000
018F 0004 00 00 00 00 Local Header Offset   00000000
0193 0009 6C 6F 72 65 Filename              'lorem.txt'
          6D 2E 74 78
          74
019C 0002 55 54       Extra ID #0001        5455 'UT: Extended Timestamp'
019E 0002 05 00         Length              0005
01A0 0001 03            Flags               '03 mod access'
01A1 0004 A6 3C 84 60   Mod Time            60843CA6 'Sat Apr 24 15:43:34 2021'
01A5 0002 75 78       Extra ID #0002        7875 'ux: Unix Extra type 3'
01A7 0002 0B 00         Length              000B
01A9 0001 01            Version             01
01AA 0001 04            UID Size            04
01AB 0004 E8 03 00 00   UID                 000003E8
01AF 0001 04            GID Size            04
01B0 0004 E8 03 00 00   GID                 000003E8
01B4 0002 01 00       Extra ID #0003        0001 'ZIP64'
01B6 0002 08 00         Length              0008
01B8 0008 BE 01 00 00   Uncompressed Size   00000000000001BE
          00 00 00 00

01C0 0004 50 4B 06 06 ZIP64 END CENTRAL DIR 06064B50
                      RECORD
01C4 0008 37 00 00 00 Size of record        0000000000000037
          00 00 00 00
01CC 0001 1E          Created Zip Spec      1E '3.0'
01CD 0001 03          Created OS            03 'Unix'
01CE 0001 2D          Extract Zip Spec      2D '4.5'
01CF 0001 00          Extract OS            00 'MS-DOS'
01D0 0004 00 00 00 00 Number of this disk   00000000
01D4 0004 00 00 00 00 Central Dir Disk no   00000000
01D8 0008 01 00 00 00 Entries in this disk  0000000000000001
          00 00 00 00
01E0 0008 01 00 00 00 Total Entries         0000000000000001
          00 00 00 00
01E8 0008 5B 00 00 00 Size of Central Dir   000000000000005B
          00 00 00 00
01F0 0008 65 01 00 00 Offset to Central dir 0000000000000165
          00 00 00 00
01F8 0002 41 42       Extra ID #0001        4241
# INFO: Offset 0x1F8: Unknown Extra ID 0x4241
01FA 0002 03 00         Length              0003
01FC 0003 78 78 78      Extra Payload       78 78 78
01FF 0002 43 44       Extra ID #0002        4443
# INFO: Offset 0x1FF: Unknown Extra ID 0x4443
0201 0002 00 00         Length              0000

0203 0004 50 4B 06 07 ZIP64 END CENTRAL DIR 07064B50
                      LOCATOR
0207 0004 00 00 00 00 Central Dir Disk no   00000000
020B 0008 C0 01 00 00 Offset to Zip64 EOCD  00000000000001C0
          00 00 00 00
0213 0004 01 00 00 00 Total no of Disks     00000001

0217 0004 50 4B 05 06 END CENTRAL HEADER    06054B50
021B 0002 00 00       Number of this disk   0000
021D 0002 00 00       Central Dir Disk no   0000
021F 0002 01 00       Entries in this disk  0001
0221 0002 01 00       Total Entries         0001
0223 0004 5B 00 00 00 Size of Central Dir   0000005B
0227 0004 FF FF FF FF Offset to Central Dir FFFFFFFF
022B 0002 00 00       Comment Length        0000

Info Count: 2
Done
