
0000 0003 0004 50 4B 03 04 LOCAL HEADER #1       67324752 (0x4034B50)
0004 0004 0001 14          Extract Zip Spec      20 (0x14) '2.0'
0005 0005 0001 00          Extract OS            0 (0x0) 'MS-DOS'
0006 0007 0002 00 00       General Purpose Flag  0 (0x0)
0008 0009 0002 00 00       Compression Method    0 (0x0) 'Stored'
000A 000D 0004 EB 5E 61 56 Last Mod Time         1449221867 (0x56615EEB) 'Wed Mar  1 11:55:22 2023'
000E 0011 0004 C2 41 24 35 CRC                   891568578 (0x352441C2)
0012 0015 0004 03 00 00 00 Compressed Length     3 (0x3)
0016 0019 0004 03 00 00 00 Uncompressed Length   3 (0x3)
001A 001B 0002 08 00       Filename Length       8 (0x8)
001C 001D 0002 08 00       Extra Length          8 (0x8)
001E 0025 0008 66 69 6C 65 Filename              'filename'
               6E 61 6D 65
0026 0027 0002 51 1A       Extra ID #1           6737 (0x1A51) 'Minizip Hash'
0028 0029 0002 04 00         Length              4 (0x4)
002A 002B 0002 44 00         Algorithm           68 (0x44) 'Unknown'
#
# INFO: Offset 0x2A: Extra Field 'Minizip Hash' (ID 0x1A51): Unknown algorithm ID 68 (0x44)
#
002C 002D 0002 00 00         Digest Size         0 (0x0)
#
# INFO: Offset 0x2C: Extra Field 'Minizip Hash' (ID 0x1A51): Zero length Digest
#
002E 0030 0003 61 62 63    PAYLOAD               abc

0031 0034 0004 50 4B 01 02 CENTRAL HEADER #1     33639248 (0x2014B50)
0035 0035 0001 14          Created Zip Spec      20 (0x14) '2.0'
0036 0036 0001 03          Created OS            3 (0x3) 'Unix'
0037 0037 0001 14          Extract Zip Spec      20 (0x14) '2.0'
0038 0038 0001 00          Extract OS            0 (0x0) 'MS-DOS'
0039 003A 0002 00 00       General Purpose Flag  0 (0x0)
003B 003C 0002 00 00       Compression Method    0 (0x0) 'Stored'
003D 0040 0004 EB 5E 61 56 Last Mod Time         1449221867 (0x56615EEB) 'Wed Mar  1 11:55:22 2023'
0041 0044 0004 C2 41 24 35 CRC                   891568578 (0x352441C2)
0045 0048 0004 03 00 00 00 Compressed Length     3 (0x3)
0049 004C 0004 03 00 00 00 Uncompressed Length   3 (0x3)
004D 004E 0002 08 00       Filename Length       8 (0x8)
004F 0050 0002 08 00       Extra Length          8 (0x8)
0051 0052 0002 00 00       Comment Length        0 (0x0)
0053 0054 0002 00 00       Disk Start            0 (0x0)
0055 0056 0002 00 00       Int File Attributes   0 (0x0)
                           [Bit 0]               0 'Binary Data'
0057 005A 0004 00 00 A4 81 Ext File Attributes   2175008768 (0x81A40000)
                           [Bits 16-24]          420 (0x1A4) 'Unix attrib: rw-r--r--'
                           [Bits 28-31]          8 (0x8) 'Regular File'
005B 005E 0004 00 00 00 00 Local Header Offset   0 (0x0)
005F 0066 0008 66 69 6C 65 Filename              'filename'
               6E 61 6D 65
0067 0068 0002 51 1A       Extra ID #1           6737 (0x1A51) 'Minizip Hash'
0069 006A 0002 04 00         Length              4 (0x4)
006B 006C 0002 44 00         Algorithm           68 (0x44) 'Unknown'
#
# INFO: Offset 0x6B: Extra Field 'Minizip Hash' (ID 0x1A51): Unknown algorithm ID 68 (0x44)
#
006D 006E 0002 00 00         Digest Size         0 (0x0)
#
# INFO: Offset 0x6D: Extra Field 'Minizip Hash' (ID 0x1A51): Zero length Digest
#

006F 0072 0004 50 4B 05 06 END CENTRAL HEADER    101010256 (0x6054B50)
0073 0074 0002 00 00       Number of this disk   0 (0x0)
0075 0076 0002 00 00       Central Dir Disk no   0 (0x0)
0077 0078 0002 01 00       Entries in this disk  1 (0x1)
0079 007A 0002 01 00       Total Entries         1 (0x1)
007B 007E 0004 3E 00 00 00 Size of Central Dir   62 (0x3E)
007F 0082 0004 31 00 00 00 Offset to Central Dir 49 (0x31)
0083 0084 0002 00 00       Comment Length        0 (0x0)
#
# Info Count: 4
#
# Done
