#
# INFO: Offset 0x0: found 0x5 (5) bytes before beginning of zipfile
#

0000 0004 0005 61 62 63 64 UNEXPECTED PADDING    abcd.
               0A

0005 0008 0004 50 4B 03 04 LOCAL HEADER #1       04034B50 (67324752)
0009 0009 0001 14          Extract Zip Spec      14 (20) '2.0'
000A 000A 0001 00          Extract OS            00 (0) 'MS-DOS'
000B 000C 0002 08 00       General Purpose Flag  0008 (8)
                           [Bits 1-2]            0 'Normal Compression'
                           [Bit  3]              1 'Streamed'
000D 000E 0002 08 00       Compression Method    0008 (8) 'Deflated'
000F 0012 0004 77 68 56 58 Last Mod Date/Time    58566877 (1482057847) 'Thu Feb 22 13:03:46 2024'
0013 0016 0004 00 00 00 00 CRC                   00000000 (0)
0017 001A 0004 00 00 00 00 Compressed Size       00000000 (0)
001B 001E 0004 00 00 00 00 Uncompressed Size     00000000 (0)
001F 0020 0002 04 00       Filename Length       0004 (4)
0021 0022 0002 00 00       Extra Length          0000 (0)
0023 0026 0004 66 72 65 64 Filename              'fred'
0027 002D 0007 4B 4C 4A 4E PAYLOAD               KLJNI..
               49 05 00

002E 0031 0004 50 4B 07 08 DATA DESCRIPTOR       08074B50 (134695760)
0032 0035 0004 65 D8 87 85 CRC                   8587D865 (2240272485)
0036 0039 0004 07 00 00 00 Compressed Size       00000007 (7)
003A 003D 0004 05 00 00 00 Uncompressed Size     00000005 (5)

003E 0041 0004 50 4B 01 02 CENTRAL HEADER #1     02014B50 (33639248)
0042 0042 0001 14          Created Zip Spec      14 (20) '2.0'
0043 0043 0001 03          Created OS            03 (3) 'Unix'
0044 0044 0001 14          Extract Zip Spec      14 (20) '2.0'
0045 0045 0001 00          Extract OS            00 (0) 'MS-DOS'
0046 0047 0002 08 00       General Purpose Flag  0008 (8)
                           [Bits 1-2]            0 'Normal Compression'
                           [Bit  3]              1 'Streamed'
0048 0049 0002 08 00       Compression Method    0008 (8) 'Deflated'
004A 004D 0004 77 68 56 58 Last Mod Date/Time    58566877 (1482057847) 'Thu Feb 22 13:03:46 2024'
004E 0051 0004 65 D8 87 85 CRC                   8587D865 (2240272485)
0052 0055 0004 07 00 00 00 Compressed Size       00000007 (7)
0056 0059 0004 05 00 00 00 Uncompressed Size     00000005 (5)
005A 005B 0002 04 00       Filename Length       0004 (4)
005C 005D 0002 00 00       Extra Length          0000 (0)
005E 005F 0002 00 00       Comment Length        0000 (0)
0060 0061 0002 00 00       Disk Start            0000 (0)
0062 0063 0002 00 00       Int File Attributes   0000 (0)
                           [Bit 0]               0 'Binary Data'
0064 0067 0004 00 00 A4 81 Ext File Attributes   81A40000 (2175008768)
                           [Bits 16-24]          01A4 (420) 'Unix attrib: rw-r--r--'
                           [Bits 28-31]          08 (8) 'Regular File'
0068 006B 0004 05 00 00 00 Local Header Offset   00000005 (5)
006C 006F 0004 66 72 65 64 Filename              'fred'

0070 0073 0004 50 4B 05 06 END CENTRAL HEADER    06054B50 (101010256)
0074 0075 0002 00 00       Number of this disk   0000 (0)
0076 0077 0002 00 00       Central Dir Disk no   0000 (0)
0078 0079 0002 01 00       Entries in this disk  0001 (1)
007A 007B 0002 01 00       Total Entries         0001 (1)
007C 007F 0004 32 00 00 00 Size of Central Dir   00000032 (50)
0080 0083 0004 3E 00 00 00 Offset to Central Dir 0000003E (62)
0084 0085 0002 00 00       Comment Length        0000 (0)
#
# Info Count: 1
#
# Done
