
0000 0003 0004 50 4B 03 04 LOCAL HEADER #1       04034B50 (67324752)
0004 0004 0001 14          Extract Zip Spec      14 (20) '2.0'
0005 0005 0001 00          Extract OS            00 (0) 'MS-DOS'
0006 0007 0002 00 00       General Purpose Flag  0000 (0)
0008 0009 0002 00 00       Compression Method    0000 (0) 'Stored'
000A 000D 0004 0C B7 47 5C Modification Time     5C47B70C (1548203788) 'Sat Feb  7 22:56:24 2026'
000E 0011 0004 FC 2F 6F 46 CRC                   466F2FFC (1181691900)
0012 0015 0004 06 00 00 00 Compressed Size       00000006 (6)
0016 0019 0004 06 00 00 00 Uncompressed Size     00000006 (6)
001A 001B 0002 05 00       Filename Length       0005 (5)
001C 001D 0002 20 00       Extra Length          0020 (32)
001E 0022 0005 6C 69 6E 6B Filename              'linkd'
               64
0023 0024 0002 75 78       Extra ID #1           7875 (30837) 'Unix Extra type 3 [ux]'
0025 0026 0002 0B 00         Length              000B (11)
0027 0027 0001 01            Version             01 (1)
0028 0028 0001 04            UID Size            04 (4)
0029 002C 0004 00 00 00 00   UID                 00000000 (0)
002D 002D 0001 04            GID Size            04 (4)
002E 0031 0004 00 00 00 00   GID                 00000000 (0)
0032 0033 0002 55 54       Extra ID #2           5455 (21589) 'Extended Timestamp [UT]'
0034 0035 0002 0D 00         Length              000D (13)
0036 0036 0001 07            Flags               07 (7) 'Modification & Access & Creation'
0037 003A 0004 19 C3 87 69   Modification Time   6987C319 (1770504985) 'Sat Feb  7 22:56:25 2026'
003B 003E 0004 19 C3 87 69   Access Time         6987C319 (1770504985) 'Sat Feb  7 22:56:25 2026'
003F 0042 0004 19 C3 87 69   Creation Time       6987C319 (1770504985) 'Sat Feb  7 22:56:25 2026'
0043 0048 0006 74 61 72 67 PAYLOAD               target
               65 74

0049 004C 0004 50 4B 03 04 LOCAL HEADER #2       04034B50 (67324752)
004D 004D 0001 14          Extract Zip Spec      14 (20) '2.0'
004E 004E 0001 00          Extract OS            00 (0) 'MS-DOS'
004F 0050 0002 00 00       General Purpose Flag  0000 (0)
0051 0052 0002 00 00       Compression Method    0000 (0) 'Stored'
0053 0056 0004 ED 74 47 5C Modification Time     5C4774ED (1548186861) 'Sat Feb  7 14:39:26 2026'
0057 005A 0004 FC 2F 6F 46 CRC                   466F2FFC (1181691900)
005B 005E 0004 06 00 00 00 Compressed Size       00000006 (6)
005F 0062 0004 06 00 00 00 Uncompressed Size     00000006 (6)
0063 0064 0002 05 00       Filename Length       0005 (5)
0065 0066 0002 20 00       Extra Length          0020 (32)
0067 006B 0005 73 6C 69 6E Filename              'slink'
               6B
006C 006D 0002 75 78       Extra ID #1           7875 (30837) 'Unix Extra type 3 [ux]'
006E 006F 0002 0B 00         Length              000B (11)
0070 0070 0001 01            Version             01 (1)
0071 0071 0001 04            UID Size            04 (4)
0072 0075 0004 00 00 00 00   UID                 00000000 (0)
0076 0076 0001 04            GID Size            04 (4)
0077 007A 0004 00 00 00 00   GID                 00000000 (0)
007B 007C 0002 55 54       Extra ID #2           5455 (21589) 'Extended Timestamp [UT]'
007D 007E 0002 0D 00         Length              000D (13)
007F 007F 0001 07            Flags               07 (7) 'Modification & Access & Creation'
0080 0083 0004 9E 4E 87 69   Modification Time   69874E9E (1770475166) 'Sat Feb  7 14:39:26 2026'
0084 0087 0004 9E 4E 87 69   Access Time         69874E9E (1770475166) 'Sat Feb  7 14:39:26 2026'
0088 008B 0004 9E 4E 87 69   Creation Time       69874E9E (1770475166) 'Sat Feb  7 14:39:26 2026'
008C 0091 0006 74 61 72 67 PAYLOAD               target
               65 74

0092 0095 0004 50 4B 03 04 LOCAL HEADER #3       04034B50 (67324752)
0096 0096 0001 14          Extract Zip Spec      14 (20) '2.0'
0097 0097 0001 00          Extract OS            00 (0) 'MS-DOS'
0098 0099 0002 00 00       General Purpose Flag  0000 (0)
009A 009B 0002 00 00       Compression Method    0000 (0) 'Stored'
009C 009F 0004 F2 74 47 5C Modification Time     5C4774F2 (1548186866) 'Sat Feb  7 14:39:36 2026'
00A0 00A3 0004 00 00 00 00 CRC                   00000000 (0)
00A4 00A7 0004 00 00 00 00 Compressed Size       00000000 (0)
00A8 00AB 0004 00 00 00 00 Uncompressed Size     00000000 (0)
00AC 00AD 0002 09 00       Filename Length       0009 (9)
00AE 00AF 0002 20 00       Extra Length          0020 (32)
00B0 00B8 0009 73 6C 69 6E Filename              'slinkdir/'
               6B 64 69 72
               2F
00B9 00BA 0002 75 78       Extra ID #1           7875 (30837) 'Unix Extra type 3 [ux]'
00BB 00BC 0002 0B 00         Length              000B (11)
00BD 00BD 0001 01            Version             01 (1)
00BE 00BE 0001 04            UID Size            04 (4)
00BF 00C2 0004 00 00 00 00   UID                 00000000 (0)
00C3 00C3 0001 04            GID Size            04 (4)
00C4 00C7 0004 00 00 00 00   GID                 00000000 (0)
00C8 00C9 0002 55 54       Extra ID #2           5455 (21589) 'Extended Timestamp [UT]'
00CA 00CB 0002 0D 00         Length              000D (13)
00CC 00CC 0001 07            Flags               07 (7) 'Modification & Access & Creation'
00CD 00D0 0004 A9 4E 87 69   Modification Time   69874EA9 (1770475177) 'Sat Feb  7 14:39:37 2026'
00D1 00D4 0004 A9 4E 87 69   Access Time         69874EA9 (1770475177) 'Sat Feb  7 14:39:37 2026'
00D5 00D8 0004 A9 4E 87 69   Creation Time       69874EA9 (1770475177) 'Sat Feb  7 14:39:37 2026'

00D9 00DC 0004 50 4B 01 02 CENTRAL HEADER #1     02014B50 (33639248)
00DD 00DD 0001 14          Created Zip Spec      14 (20) '2.0'
00DE 00DE 0001 03          Created OS            03 (3) 'Unix'
00DF 00DF 0001 14          Extract Zip Spec      14 (20) '2.0'
00E0 00E0 0001 00          Extract OS            00 (0) 'MS-DOS'
00E1 00E2 0002 00 00       General Purpose Flag  0000 (0)
00E3 00E4 0002 00 00       Compression Method    0000 (0) 'Stored'
00E5 00E8 0004 0C B7 47 5C Modification Time     5C47B70C (1548203788) 'Sat Feb  7 22:56:24 2026'
00E9 00EC 0004 FC 2F 6F 46 CRC                   466F2FFC (1181691900)
00ED 00F0 0004 06 00 00 00 Compressed Size       00000006 (6)
00F1 00F4 0004 06 00 00 00 Uncompressed Size     00000006 (6)
00F5 00F6 0002 05 00       Filename Length       0005 (5)
00F7 00F8 0002 18 00       Extra Length          0018 (24)
00F9 00FA 0002 00 00       Comment Length        0000 (0)
00FB 00FC 0002 00 00       Disk Start            0000 (0)
00FD 00FE 0002 00 00       Int File Attributes   0000 (0)
                           [Bit 0]               0 'Binary Data'
00FF 0102 0004 00 00 B6 A1 Ext File Attributes   A1B60000 (2713059328)
                           [Bits 16-24]          01B6 (438) 'Unix attrib: rw-rw-rw-'
                           [Bits 28-31]          0A (10) 'Symbolic Link'
0103 0106 0004 00 00 00 00 Local Header Offset   00000000 (0)
0107 010B 0005 6C 69 6E 6B Filename              'linkd'
               64
010C 010D 0002 75 78       Extra ID #1           7875 (30837) 'Unix Extra type 3 [ux]'
010E 010F 0002 0B 00         Length              000B (11)
0110 0110 0001 01            Version             01 (1)
0111 0111 0001 04            UID Size            04 (4)
0112 0115 0004 00 00 00 00   UID                 00000000 (0)
0116 0116 0001 04            GID Size            04 (4)
0117 011A 0004 00 00 00 00   GID                 00000000 (0)
011B 011C 0002 55 54       Extra ID #2           5455 (21589) 'Extended Timestamp [UT]'
011D 011E 0002 05 00         Length              0005 (5)
011F 011F 0001 01            Flags               01 (1) 'Modification'
0120 0123 0004 19 C3 87 69   Modification Time   6987C319 (1770504985) 'Sat Feb  7 22:56:25 2026'

0124 0127 0004 50 4B 01 02 CENTRAL HEADER #2     02014B50 (33639248)
0128 0128 0001 14          Created Zip Spec      14 (20) '2.0'
0129 0129 0001 03          Created OS            03 (3) 'Unix'
012A 012A 0001 14          Extract Zip Spec      14 (20) '2.0'
012B 012B 0001 00          Extract OS            00 (0) 'MS-DOS'
012C 012D 0002 00 00       General Purpose Flag  0000 (0)
012E 012F 0002 00 00       Compression Method    0000 (0) 'Stored'
0130 0133 0004 ED 74 47 5C Modification Time     5C4774ED (1548186861) 'Sat Feb  7 14:39:26 2026'
0134 0137 0004 FC 2F 6F 46 CRC                   466F2FFC (1181691900)
0138 013B 0004 06 00 00 00 Compressed Size       00000006 (6)
013C 013F 0004 06 00 00 00 Uncompressed Size     00000006 (6)
0140 0141 0002 05 00       Filename Length       0005 (5)
0142 0143 0002 18 00       Extra Length          0018 (24)
0144 0145 0002 00 00       Comment Length        0000 (0)
0146 0147 0002 00 00       Disk Start            0000 (0)
0148 0149 0002 00 00       Int File Attributes   0000 (0)
                           [Bit 0]               0 'Binary Data'
014A 014D 0004 00 00 B6 A1 Ext File Attributes   A1B60000 (2713059328)
                           [Bits 16-24]          01B6 (438) 'Unix attrib: rw-rw-rw-'
                           [Bits 28-31]          0A (10) 'Symbolic Link'
014E 0151 0004 49 00 00 00 Local Header Offset   00000049 (73)
0152 0156 0005 73 6C 69 6E Filename              'slink'
               6B
0157 0158 0002 75 78       Extra ID #1           7875 (30837) 'Unix Extra type 3 [ux]'
0159 015A 0002 0B 00         Length              000B (11)
015B 015B 0001 01            Version             01 (1)
015C 015C 0001 04            UID Size            04 (4)
015D 0160 0004 00 00 00 00   UID                 00000000 (0)
0161 0161 0001 04            GID Size            04 (4)
0162 0165 0004 00 00 00 00   GID                 00000000 (0)
0166 0167 0002 55 54       Extra ID #2           5455 (21589) 'Extended Timestamp [UT]'
0168 0169 0002 05 00         Length              0005 (5)
016A 016A 0001 01            Flags               01 (1) 'Modification'
016B 016E 0004 9E 4E 87 69   Modification Time   69874E9E (1770475166) 'Sat Feb  7 14:39:26 2026'

016F 0172 0004 50 4B 01 02 CENTRAL HEADER #3     02014B50 (33639248)
0173 0173 0001 14          Created Zip Spec      14 (20) '2.0'
0174 0174 0001 03          Created OS            03 (3) 'Unix'
0175 0175 0001 14          Extract Zip Spec      14 (20) '2.0'
0176 0176 0001 00          Extract OS            00 (0) 'MS-DOS'
0177 0178 0002 00 00       General Purpose Flag  0000 (0)
0179 017A 0002 00 00       Compression Method    0000 (0) 'Stored'
017B 017E 0004 F2 74 47 5C Modification Time     5C4774F2 (1548186866) 'Sat Feb  7 14:39:36 2026'
017F 0182 0004 00 00 00 00 CRC                   00000000 (0)
0183 0186 0004 00 00 00 00 Compressed Size       00000000 (0)
0187 018A 0004 00 00 00 00 Uncompressed Size     00000000 (0)
018B 018C 0002 09 00       Filename Length       0009 (9)
018D 018E 0002 18 00       Extra Length          0018 (24)
018F 0190 0002 00 00       Comment Length        0000 (0)
0191 0192 0002 00 00       Disk Start            0000 (0)
0193 0194 0002 00 00       Int File Attributes   0000 (0)
                           [Bit 0]               0 'Binary Data'
0195 0198 0004 00 00 FF 41 Ext File Attributes   41FF0000 (1107230720)
                           [Bits 16-24]          01FF (511) 'Unix attrib: rwxrwxrwx'
                           [Bits 28-31]          04 (4) 'Directory'
0199 019C 0004 92 00 00 00 Local Header Offset   00000092 (146)
019D 01A5 0009 73 6C 69 6E Filename              'slinkdir/'
               6B 64 69 72
               2F
01A6 01A7 0002 75 78       Extra ID #1           7875 (30837) 'Unix Extra type 3 [ux]'
01A8 01A9 0002 0B 00         Length              000B (11)
01AA 01AA 0001 01            Version             01 (1)
01AB 01AB 0001 04            UID Size            04 (4)
01AC 01AF 0004 00 00 00 00   UID                 00000000 (0)
01B0 01B0 0001 04            GID Size            04 (4)
01B1 01B4 0004 00 00 00 00   GID                 00000000 (0)
01B5 01B6 0002 55 54       Extra ID #2           5455 (21589) 'Extended Timestamp [UT]'
01B7 01B8 0002 05 00         Length              0005 (5)
01B9 01B9 0001 01            Flags               01 (1) 'Modification'
01BA 01BD 0004 A9 4E 87 69   Modification Time   69874EA9 (1770475177) 'Sat Feb  7 14:39:37 2026'
#
# INFO: Offset 0x195: DOS Directory flag not set in 'External Attributes' for Directory 'slinkdir/'
#

01BE 01C1 0004 50 4B 05 06 END CENTRAL HEADER    06054B50 (101010256)
01C2 01C3 0002 00 00       Number of this disk   0000 (0)
01C4 01C5 0002 00 00       Central Dir Disk no   0000 (0)
01C6 01C7 0002 03 00       Entries in this disk  0003 (3)
01C8 01C9 0002 03 00       Total Entries         0003 (3)
01CA 01CD 0004 E5 00 00 00 Size of Central Dir   000000E5 (229)
01CE 01D1 0004 D9 00 00 00 Offset to Central Dir 000000D9 (217)
01D2 01D3 0002 00 00       Comment Length        0000 (0)
#
# Info Count: 1
#
# Done
