
0000 0003 0004 50 4B 03 04 LOCAL HEADER #1       04034B50 (67324752)
0004 0004 0001 33          Extract Zip Spec      33 (51) '5.1'
0005 0005 0001 00          Extract OS            00 (0) 'MS-DOS'
0006 0007 0002 41 28       General Purpose Flag  2841 (10305)
                           [Bit  0]              1 'Encryption'
                           [Bits 1-2]            0 'Normal Compression'
                           [Bit  6]              1 'Strong Encryption'
                           [Bit 11]              1 'Language Encoding'
                           [Bit 13]              1 'Encrypted Central Dir'
0008 0009 0002 08 00       Compression Method    0008 (8) 'Deflated'
000A 000D 0004 00 00 00 00 Modification Time     00000000 (0) 'No Date/Time'
000E 0011 0004 00 00 00 00 CRC                   00000000 (0)
0012 0015 0004 46 02 00 00 Compressed Size       00000246 (582)
0016 0019 0004 00 00 00 00 Uncompressed Size     00000000 (0)
001A 001B 0002 01 00       Filename Length       0001 (1)
001C 001D 0002 00 00       Extra Length          0000 (0)
001E 001E 0001 31          Filename              '1'

001F 001F 0000             DECRYPTION HEADER
                           RECORD
001F 0020 0002 10 00       IVSize                0010 (16)
0021 0030 0010 09 BD 6E A6 IVData                09 BD 6E A6 21 11 74 F5 B4 4E 5F 55 8C 7C FE C9
               21 11 74 F5
               B4 4E 5F 55
               8C 7C FE C9
0031 0034 0004 20 01 00 00 Size                  00000120 (288)
0035 0036 0002 03 00       Format                0003 (3)
0037 0038 0002 10 66       AlgId                 6610 (26128) 'AES 256'
0039 003A 0002 00 01       BitLen                0100 (256)
003B 003C 0002 01 00       Flags                 0001 (1) 'Password required to decrypt'
003D 003E 0002 90 00       ErdSize               0090 (144)
003F 00CE 0090 3A 98 D8 58 ErdData               3A 98 D8 58 AE E8 95 1B 91 A2 38 A6 D4 2D 5F 96
               AE E8 95 1B                       E4 93 04 5E 6A 0F C7 3C 41 C3 89 10 57 57 78 C8
               91 A2 38 A6                       09 DC DF B9 37 46 BD 2E 81 D7 DB E9 95 72 08 A9
               D4 2D 5F 96                       9E FC FE 4B 31 8B BB 3C AC DD 67 C7 C7 AC BF F4
               E4 93 04 5E                       CD B2 D9 0D 9C 3C D8 50 CD 7D 44 5E 82 D1 30 2F
               6A 0F C7 3C                       E5 BE 23 DF E5 D1 E8 FA F2 FE D9 1F 93 B1 CF 24
               41 C3 89 10                       A2 B4 DB 93 CF C2 6D 98 4C FE 92 C9 82 04 EB 64
               57 57 78 C8                       46 06 DD 8D 64 7A 4E 28 E4 78 3C 45 D7 55 FD B5
               09 DC DF B9                       8E 4D 5C 8B 20 51 99 6B 64 2C C5 8A E0 79 C8 B7
               37 46 BD 2E
               81 D7 DB E9
               95 72 08 A9
               9E FC FE 4B
               31 8B BB 3C
               AC DD 67 C7
               C7 AC BF F4
               CD B2 D9 0D
               9C 3C D8 50
               CD 7D 44 5E
               82 D1 30 2F
               E5 BE 23 DF
               E5 D1 E8 FA
               F2 FE D9 1F
               93 B1 CF 24
               A2 B4 DB 93
               CF C2 6D 98
               4C FE 92 C9
               82 04 EB 64
               46 06 DD 8D
               64 7A 4E 28
               E4 78 3C 45
               D7 55 FD B5
               8E 4D 5C 8B
               20 51 99 6B
               64 2C C5 8A
               E0 79 C8 B7
00CF 00D2 0004 00 00 00 00 RCount                00000000 (0)
00D3 00D4 0002 80 00       VSize                 0080 (128)
00D5 0150 007C D0 59 BC 0A VData                 D0 59 BC 0A CB 8A 49 42 2C 98 5B C6 BA 10 37 08
               CB 8A 49 42                       BE A8 91 09 45 96 E5 71 78 15 07 32 C8 DA 90 8B
               2C 98 5B C6                       5E 48 23 D8 A2 20 E6 8B 29 0C 85 A4 D8 DA DA 4D
               BA 10 37 08                       26 B9 07 AB 6F 5E 2E 8B B4 72 AA A2 58 5D 0B 02
               BE A8 91 09                       BB 52 7A 76 D2 21 C3 E7 FE 3D 0A 3B 5B 5C 60 50
               45 96 E5 71                       4D 15 1C 59 38 B1 28 9D 35 05 1B 36 29 6A 20 CC
               78 15 07 32                       30 3B 1B B0 8F 67 2A 96 E8 1B C4 60 28 51 67 91
               C8 DA 90 8B                       F3 46 C3 AF 7B 31 E7 3E FA DF F7 88
               5E 48 23 D8
               A2 20 E6 8B
               29 0C 85 A4
               D8 DA DA 4D
               26 B9 07 AB
               6F 5E 2E 8B
               B4 72 AA A2
               58 5D 0B 02
               BB 52 7A 76
               D2 21 C3 E7
               FE 3D 0A 3B
               5B 5C 60 50
               4D 15 1C 59
               38 B1 28 9D
               35 05 1B 36
               29 6A 20 CC
               30 3B 1B B0
               8F 67 2A 96
               E8 1B C4 60
               28 51 67 91
               F3 46 C3 AF
               7B 31 E7 3E
               FA DF F7 88
0151 0154 0004 85 08 04 D1 VCRC32                D1040885 (3506702469)
0155 0264 0110 ...         PAYLOAD

0265 0268 0004 50 4B 03 04 LOCAL HEADER #2       04034B50 (67324752)
0269 0269 0001 33          Extract Zip Spec      33 (51) '5.1'
026A 026A 0001 00          Extract OS            00 (0) 'MS-DOS'
026B 026C 0002 41 28       General Purpose Flag  2841 (10305)
                           [Bit  0]              1 'Encryption'
                           [Bits 1-2]            0 'Normal Compression'
                           [Bit  6]              1 'Strong Encryption'
                           [Bit 11]              1 'Language Encoding'
                           [Bit 13]              1 'Encrypted Central Dir'
026D 026E 0002 08 00       Compression Method    0008 (8) 'Deflated'
026F 0272 0004 00 00 00 00 Modification Time     00000000 (0) 'No Date/Time'
0273 0276 0004 00 00 00 00 CRC                   00000000 (0)
0277 027A 0004 56 02 00 00 Compressed Size       00000256 (598)
027B 027E 0004 00 00 00 00 Uncompressed Size     00000000 (0)
027F 0280 0002 01 00       Filename Length       0001 (1)
0281 0282 0002 00 00       Extra Length          0000 (0)
0283 0283 0001 32          Filename              '2'

0284 0284 0000             DECRYPTION HEADER
                           RECORD
0284 0285 0002 10 00       IVSize                0010 (16)
0286 0295 0010 77 E6 FF 4D IVData                77 E6 FF 4D 4B 9E 9A BF D0 78 D8 43 19 01 7C 93
               4B 9E 9A BF
               D0 78 D8 43
               19 01 7C 93
0296 0299 0004 20 01 00 00 Size                  00000120 (288)
029A 029B 0002 03 00       Format                0003 (3)
029C 029D 0002 10 66       AlgId                 6610 (26128) 'AES 256'
029E 029F 0002 00 01       BitLen                0100 (256)
02A0 02A1 0002 01 00       Flags                 0001 (1) 'Password required to decrypt'
02A2 02A3 0002 90 00       ErdSize               0090 (144)
02A4 0333 0090 3A 98 D8 58 ErdData               3A 98 D8 58 AE E8 95 1B 91 A2 38 A6 D4 2D 5F 96
               AE E8 95 1B                       E4 93 04 5E 6A 0F C7 3C 41 C3 89 10 57 57 78 C8
               91 A2 38 A6                       09 DC DF B9 37 46 BD 2E 81 D7 DB E9 95 72 08 A9
               D4 2D 5F 96                       9E FC FE 4B 31 8B BB 3C AC DD 67 C7 C7 AC BF F4
               E4 93 04 5E                       CD B2 D9 0D 9C 3C D8 50 CD 7D 44 5E 82 D1 30 2F
               6A 0F C7 3C                       E5 BE 23 DF E5 D1 E8 FA F2 FE D9 1F 93 B1 CF 24
               41 C3 89 10                       A2 B4 DB 93 CF C2 6D 98 4C FE 92 C9 82 04 EB 64
               57 57 78 C8                       46 06 DD 8D 64 7A 4E 28 E4 78 3C 45 D7 55 FD B5
               09 DC DF B9                       8E 4D 5C 8B 20 51 99 6B 64 2C C5 8A E0 79 C8 B7
               37 46 BD 2E
               81 D7 DB E9
               95 72 08 A9
               9E FC FE 4B
               31 8B BB 3C
               AC DD 67 C7
               C7 AC BF F4
               CD B2 D9 0D
               9C 3C D8 50
               CD 7D 44 5E
               82 D1 30 2F
               E5 BE 23 DF
               E5 D1 E8 FA
               F2 FE D9 1F
               93 B1 CF 24
               A2 B4 DB 93
               CF C2 6D 98
               4C FE 92 C9
               82 04 EB 64
               46 06 DD 8D
               64 7A 4E 28
               E4 78 3C 45
               D7 55 FD B5
               8E 4D 5C 8B
               20 51 99 6B
               64 2C C5 8A
               E0 79 C8 B7
0334 0337 0004 00 00 00 00 RCount                00000000 (0)
0338 0339 0002 80 00       VSize                 0080 (128)
033A 03B5 007C 74 13 75 3C VData                 74 13 75 3C 66 C6 56 A4 13 FA 40 65 4F 48 97 AC
               66 C6 56 A4                       48 E2 43 5D 60 94 96 D6 0F 9E 50 41 9F 63 D1 5E
               13 FA 40 65                       45 94 AE 5F 12 0F C1 C5 F0 A5 73 5E C6 3F 05 09
               4F 48 97 AC                       8F 30 CC 84 6E DB 0C F5 16 3F C4 D6 8E C7 93 68
               48 E2 43 5D                       51 CA BC CF 6A 00 EC 21 AD C9 78 CC 61 28 01 67
               60 94 96 D6                       52 84 9D 6A B8 E8 18 B1 16 4F FC 98 CD D7 B0 ED
               0F 9E 50 41                       2B 54 C3 95 37 08 A4 EF DC A4 9E 97 D6 8F BE 4F
               9F 63 D1 5E                       F7 1F E2 50 6A 4B 31 FF 7F F6 E5 E8
               45 94 AE 5F
               12 0F C1 C5
               F0 A5 73 5E
               C6 3F 05 09
               8F 30 CC 84
               6E DB 0C F5
               16 3F C4 D6
               8E C7 93 68
               51 CA BC CF
               6A 00 EC 21
               AD C9 78 CC
               61 28 01 67
               52 84 9D 6A
               B8 E8 18 B1
               16 4F FC 98
               CD D7 B0 ED
               2B 54 C3 95
               37 08 A4 EF
               DC A4 9E 97
               D6 8F BE 4F
               F7 1F E2 50
               6A 4B 31 FF
               7F F6 E5 E8
03B6 03B9 0004 A8 3E EF 85 VCRC32                85EF3EA8 (2247048872)
03BA 04D9 0120 ...         PAYLOAD

04DA 04DA 0000             CENTRAL HEADER
                           DECRYPTION RECORD
04DA 04DB 0002 10 00       IVSize                0010 (16)
04DC 04EB 0010 FD FC 91 C6 IVData                FD FC 91 C6 6C 0E 05 59 E3 C8 C7 AB F9 74 C1 B3
               6C 0E 05 59
               E3 C8 C7 AB
               F9 74 C1 B3
04EC 04EF 0004 20 01 00 00 Size                  00000120 (288)
04F0 04F1 0002 03 00       Format                0003 (3)
04F2 04F3 0002 10 66       AlgId                 6610 (26128) 'AES 256'
04F4 04F5 0002 00 01       BitLen                0100 (256)
04F6 04F7 0002 01 00       Flags                 0001 (1) 'Password required to decrypt'
04F8 04F9 0002 90 00       ErdSize               0090 (144)
04FA 0589 0090 3A 98 D8 58 ErdData               3A 98 D8 58 AE E8 95 1B 91 A2 38 A6 D4 2D 5F 96
               AE E8 95 1B                       E4 93 04 5E 6A 0F C7 3C 41 C3 89 10 57 57 78 C8
               91 A2 38 A6                       09 DC DF B9 37 46 BD 2E 81 D7 DB E9 95 72 08 A9
               D4 2D 5F 96                       9E FC FE 4B 31 8B BB 3C AC DD 67 C7 C7 AC BF F4
               E4 93 04 5E                       CD B2 D9 0D 9C 3C D8 50 CD 7D 44 5E 82 D1 30 2F
               6A 0F C7 3C                       E5 BE 23 DF E5 D1 E8 FA F2 FE D9 1F 93 B1 CF 24
               41 C3 89 10                       A2 B4 DB 93 CF C2 6D 98 4C FE 92 C9 82 04 EB 64
               57 57 78 C8                       46 06 DD 8D 64 7A 4E 28 E4 78 3C 45 D7 55 FD B5
               09 DC DF B9                       8E 4D 5C 8B 20 51 99 6B 64 2C C5 8A E0 79 C8 B7
               37 46 BD 2E
               81 D7 DB E9
               95 72 08 A9
               9E FC FE 4B
               31 8B BB 3C
               AC DD 67 C7
               C7 AC BF F4
               CD B2 D9 0D
               9C 3C D8 50
               CD 7D 44 5E
               82 D1 30 2F
               E5 BE 23 DF
               E5 D1 E8 FA
               F2 FE D9 1F
               93 B1 CF 24
               A2 B4 DB 93
               CF C2 6D 98
               4C FE 92 C9
               82 04 EB 64
               46 06 DD 8D
               64 7A 4E 28
               E4 78 3C 45
               D7 55 FD B5
               8E 4D 5C 8B
               20 51 99 6B
               64 2C C5 8A
               E0 79 C8 B7
058A 058D 0004 00 00 00 00 RCount                00000000 (0)
058E 058F 0002 80 00       VSize                 0080 (128)
0590 060B 007C 25 1F 9D 87 VData                 25 1F 9D 87 E8 3D BC 93 8E 43 57 E2 44 DF 9D 9A
               E8 3D BC 93                       47 61 12 E8 AE 3C E1 BA A6 3E 89 A7 FF BE D9 58
               8E 43 57 E2                       47 9D 23 65 1D 5B BD 32 7E C6 43 83 04 31 E1 C8
               44 DF 9D 9A                       0C E4 2A FD 8F 00 0F A4 83 DF 4F 50 1A 5F DB E9
               47 61 12 E8                       F4 43 E2 C4 36 A8 36 9D 38 09 C3 D4 57 1B F9 61
               AE 3C E1 BA                       26 9C 1B 9F 44 D6 05 BA 83 12 39 B7 1A EF 11 09
               A6 3E 89 A7                       27 8D 9F ED 4E CE B2 00 41 08 2C FC 9F 70 88 08
               FF BE D9 58                       AB 36 CC D0 D2 11 CA E3 08 21 E9 50
               47 9D 23 65
               1D 5B BD 32
               7E C6 43 83
               04 31 E1 C8
               0C E4 2A FD
               8F 00 0F A4
               83 DF 4F 50
               1A 5F DB E9
               F4 43 E2 C4
               36 A8 36 9D
               38 09 C3 D4
               57 1B F9 61
               26 9C 1B 9F
               44 D6 05 BA
               83 12 39 B7
               1A EF 11 09
               27 8D 9F ED
               4E CE B2 00
               41 08 2C FC
               9F 70 88 08
               AB 36 CC D0
               D2 11 CA E3
               08 21 E9 50
060C 060F 0004 33 33 A3 B4 VCRC32                B4A33333 (3030594355)

0610 06AF 00A0 22 1D 97 3C ENCRYPTED CENTRAL     "..<....E....w..y. .....z~..>K.$..r.P.h....O..u{...}..|..&..b....O.r'....q.....x...O...P..^..
               04 15 1C BD DIRECTORY             .C..S.t.........V...W5n.../...=.Ky...h7DLd.{...........H..........
               45 E4 E7 E4
               90 77 1B 07
               79 1A 20 06
               C0 C3 1D 09
               7A 7E 8E 04
               3E 4B AF 24
               0C 92 72 D8
               50 93 68 FC
               B8 B7 8B 4F
               9D BD 75 7B
               87 A8 D5 7D
               0F 19 7C 13
               D9 26 AA 0B
               62 C3 8B AF
               DE 4F 17 72
               27 13 B2 D1
               F7 71 F3 9B
               87 F5 F2 78
               93 BC B1 4F
               19 A4 E6 50
               1F DE 5E 9B
               DC 20 0C 43
               17 04 53 BE
               74 F7 1D 19
               A0 02 03 C5
               98 C1 56 BA
               D2 10 57 35
               6E B8 15 E7
               2F C6 1E 98
               3D F8 4B 79
               06 14 13 68
               37 44 4C 64
               85 7B B1 F7
               B0 05 9E F8
               A0 0C 09 DE
               81 48 90 E4
               F5 CB AB B8
               F8 94 02 EB

06B0 06B3 0004 50 4B 06 06 ZIP64 END CENTRAL DIR 06064B50 (101075792)
                           RECORD
06B4 06BB 0008 4C 00 00 00 Size of record        000000000000004C (76)
               00 00 00 00
06BC 06BC 0001 41          Created Zip Spec      41 (65) '6.5'
06BD 06BD 0001 00          Created OS            00 (0) 'MS-DOS'
06BE 06BE 0001 3E          Extract Zip Spec      3E (62) '6.2'
06BF 06BF 0001 00          Extract OS            00 (0) 'MS-DOS'
06C0 06C3 0004 00 00 00 00 Number of this disk   00000000 (0)
06C4 06C7 0004 00 00 00 00 Central Dir Disk no   00000000 (0)
06C8 06CF 0008 00 00 00 00 Entries in this disk  0000000000000000 (0)
               00 00 00 00
06D0 06D7 0008 02 00 00 00 Total Entries         0000000000000002 (2)
               00 00 00 00
06D8 06DF 0008 D6 01 00 00 Size of Central Dir   00000000000001D6 (470)
               00 00 00 00
06E0 06E7 0008 DA 04 00 00 Offset to Central dir 00000000000004DA (1242)
               00 00 00 00
06E8 06E9 0002 08 00       Compression Method    0008 (8) 'Deflated'
06EA 06F1 0008 D6 01 00 00 Compressed Size       00000000000001D6 (470)
               00 00 00 00
06F2 06F9 0008 D7 00 00 00 Uncompressed Size     00000000000000D7 (215)
               00 00 00 00
06FA 06FB 0002 10 66       AlgId                 6610 (26128) 'AES 256'
06FC 06FD 0002 00 01       BitLen                0100 (256)
06FE 06FF 0002 01 00       Flags                 0001 (1) 'Password required to decrypt'
0700 0701 0002 01 00       HashID                0001 (1) 'CRC32'
0702 0703 0002 04 00       Hash Length           0004 (4)
0704 0707 0004 16 E2 7A 82 Hash Data             16 E2 7A 82

0708 070B 0004 50 4B 06 07 ZIP64 END CENTRAL DIR 07064B50 (117853008)
                           LOCATOR
070C 070F 0004 00 00 00 00 Central Dir Disk no   00000000 (0)
0710 0717 0008 B0 06 00 00 Offset to Zip64 EOCD  00000000000006B0 (1712)
               00 00 00 00
0718 071B 0004 01 00 00 00 Total no of Disks     00000001 (1)

071C 071F 0004 50 4B 05 06 END CENTRAL HEADER    06054B50 (101010256)
0720 0721 0002 00 00       Number of this disk   0000 (0)
0722 0723 0002 00 00       Central Dir Disk no   0000 (0)
0724 0725 0002 00 00       Entries in this disk  0000 (0)
0726 0727 0002 FF FF       Total Entries         FFFF (65535)
0728 072B 0004 D6 01 00 00 Size of Central Dir   000001D6 (470)
072C 072F 0004 DA 04 00 00 Offset to Central Dir 000004DA (1242)
0730 0731 0002 11 00       Comment Length        0011 (17)
0732 0742 0011 54 68 69 73 Comment               'This is a comment'
               20 69 73 20
               61 20 63 6F
               6D 6D 65 6E
               74
#
# WARNING: Local Directory exists, but Central Directory is encrypted
#
# Warning Count: 1
#
# Done
