
0000 0004 50 4B 03 04 LOCAL HEADER #1       04034B50
0004 0001 33          Extract Zip Spec      33 '5.1'
0005 0001 00          Extract OS            00 'MS-DOS'
0006 0002 41 28       General Purpose Flag  2841
                      [Bit  0]              1 'Encryption'
                      [Bits 1-2]            0 'Normal Compression'
                      [Bit  6]              1 'Strong Encryption'
                      [Bit 11]              1 'Language Encoding'
                      [Bit 13]              1 'Encrypted Central Dir'
0008 0002 08 00       Compression Method    0008 'Deflated'
000A 0004 00 00 00 00 Last Mod Time         00000000 'No Date/Time'
000E 0004 00 00 00 00 CRC                   00000000
0012 0004 46 02 00 00 Compressed Length     00000246
0016 0004 00 00 00 00 Uncompressed Length   00000000
001A 0002 01 00       Filename Length       0001
001C 0002 00 00       Extra Length          0000
001E 0001 31          Filename              '1'

DECRYPTION HEADER RECORD
001F 0002 10 00       IVSize                0010
0021 0010 09 BD 6E A6 IVData                09 BD 6E A6 21 11 74 F5 B4 4E 5F 55
          21 11 74 F5                       8C 7C FE C9
          B4 4E 5F 55
          8C 7C FE C9
0031 0004 20 01 00 00 Size                  00000120
0035 0002 03 00       Format                0003
0037 0002 10 66       AlgId                 6610 'AES 256'
0039 0002 00 01       BitLen                0100
003B 0002 01 00       Flags                 0001 'Password required to decrypt'
003D 0002 90 00       ErdSize               0090
003F 0090 3A 98 D8 58 ErdData               3A 98 D8 58 AE E8 95 1B 91 A2 38 A6
          AE E8 95 1B                       D4 2D 5F 96 E4 93 04 5E 6A 0F C7 3C
          91 A2 38 A6                       41 C3 89 10 57 57 78 C8 09 DC DF B9
          D4 2D 5F 96                       37 46 BD 2E 81 D7 DB E9 95 72 08 A9
          E4 93 04 5E                       9E FC FE 4B 31 8B BB 3C AC DD 67 C7
          6A 0F C7 3C                       C7 AC BF F4 CD B2 D9 0D 9C 3C D8 50
          41 C3 89 10                       CD 7D 44 5E 82 D1 30 2F E5 BE 23 DF
          57 57 78 C8                       E5 D1 E8 FA F2 FE D9 1F 93 B1 CF 24
          09 DC DF B9                       A2 B4 DB 93 CF C2 6D 98 4C FE 92 C9
          37 46 BD 2E                       82 04 EB 64 46 06 DD 8D 64 7A 4E 28
          81 D7 DB E9                       E4 78 3C 45 D7 55 FD B5 8E 4D 5C 8B
          95 72 08 A9                       20 51 99 6B 64 2C C5 8A E0 79 C8 B7
          9E FC FE 4B
          31 8B BB 3C
          AC DD 67 C7
          C7 AC BF F4
          CD B2 D9 0D
          9C 3C D8 50
          CD 7D 44 5E
          82 D1 30 2F
          E5 BE 23 DF
          E5 D1 E8 FA
          F2 FE D9 1F
          93 B1 CF 24
          A2 B4 DB 93
          CF C2 6D 98
          4C FE 92 C9
          82 04 EB 64
          46 06 DD 8D
          64 7A 4E 28
          E4 78 3C 45
          D7 55 FD B5
          8E 4D 5C 8B
          20 51 99 6B
          64 2C C5 8A
          E0 79 C8 B7
00CF 0004 00 00 00 00 RCount                00000000
00D3 0002 80 00       VSize                 0080
00D5 007C D0 59 BC 0A VData                 D0 59 BC 0A CB 8A 49 42 2C 98 5B C6
          CB 8A 49 42                       BA 10 37 08 BE A8 91 09 45 96 E5 71
          2C 98 5B C6                       78 15 07 32 C8 DA 90 8B 5E 48 23 D8
          BA 10 37 08                       A2 20 E6 8B 29 0C 85 A4 D8 DA DA 4D
          BE A8 91 09                       26 B9 07 AB 6F 5E 2E 8B B4 72 AA A2
          45 96 E5 71                       58 5D 0B 02 BB 52 7A 76 D2 21 C3 E7
          78 15 07 32                       FE 3D 0A 3B 5B 5C 60 50 4D 15 1C 59
          C8 DA 90 8B                       38 B1 28 9D 35 05 1B 36 29 6A 20 CC
          5E 48 23 D8                       30 3B 1B B0 8F 67 2A 96 E8 1B C4 60
          A2 20 E6 8B                       28 51 67 91 F3 46 C3 AF 7B 31 E7 3E
          29 0C 85 A4                       FA DF F7 88
          D8 DA DA 4D
          26 B9 07 AB
          6F 5E 2E 8B
          B4 72 AA A2
          58 5D 0B 02
          BB 52 7A 76
          D2 21 C3 E7
          FE 3D 0A 3B
          5B 5C 60 50
          4D 15 1C 59
          38 B1 28 9D
          35 05 1B 36
          29 6A 20 CC
          30 3B 1B B0
          8F 67 2A 96
          E8 1B C4 60
          28 51 67 91
          F3 46 C3 AF
          7B 31 E7 3E
          FA DF F7 88
0151 0004 85 08 04 D1 VCRC32                D1040885
0155 0110 ...         PAYLOAD

0265 0004 50 4B 03 04 LOCAL HEADER #2       04034B50
0269 0001 33          Extract Zip Spec      33 '5.1'
026A 0001 00          Extract OS            00 'MS-DOS'
026B 0002 41 28       General Purpose Flag  2841
                      [Bit  0]              1 'Encryption'
                      [Bits 1-2]            0 'Normal Compression'
                      [Bit  6]              1 'Strong Encryption'
                      [Bit 11]              1 'Language Encoding'
                      [Bit 13]              1 'Encrypted Central Dir'
026D 0002 08 00       Compression Method    0008 'Deflated'
026F 0004 00 00 00 00 Last Mod Time         00000000 'No Date/Time'
0273 0004 00 00 00 00 CRC                   00000000
0277 0004 56 02 00 00 Compressed Length     00000256
027B 0004 00 00 00 00 Uncompressed Length   00000000
027F 0002 01 00       Filename Length       0001
0281 0002 00 00       Extra Length          0000
0283 0001 32          Filename              '2'

DECRYPTION HEADER RECORD
0284 0002 10 00       IVSize                0010
0286 0010 77 E6 FF 4D IVData                77 E6 FF 4D 4B 9E 9A BF D0 78 D8 43
          4B 9E 9A BF                       19 01 7C 93
          D0 78 D8 43
          19 01 7C 93
0296 0004 20 01 00 00 Size                  00000120
029A 0002 03 00       Format                0003
029C 0002 10 66       AlgId                 6610 'AES 256'
029E 0002 00 01       BitLen                0100
02A0 0002 01 00       Flags                 0001 'Password required to decrypt'
02A2 0002 90 00       ErdSize               0090
02A4 0090 3A 98 D8 58 ErdData               3A 98 D8 58 AE E8 95 1B 91 A2 38 A6
          AE E8 95 1B                       D4 2D 5F 96 E4 93 04 5E 6A 0F C7 3C
          91 A2 38 A6                       41 C3 89 10 57 57 78 C8 09 DC DF B9
          D4 2D 5F 96                       37 46 BD 2E 81 D7 DB E9 95 72 08 A9
          E4 93 04 5E                       9E FC FE 4B 31 8B BB 3C AC DD 67 C7
          6A 0F C7 3C                       C7 AC BF F4 CD B2 D9 0D 9C 3C D8 50
          41 C3 89 10                       CD 7D 44 5E 82 D1 30 2F E5 BE 23 DF
          57 57 78 C8                       E5 D1 E8 FA F2 FE D9 1F 93 B1 CF 24
          09 DC DF B9                       A2 B4 DB 93 CF C2 6D 98 4C FE 92 C9
          37 46 BD 2E                       82 04 EB 64 46 06 DD 8D 64 7A 4E 28
          81 D7 DB E9                       E4 78 3C 45 D7 55 FD B5 8E 4D 5C 8B
          95 72 08 A9                       20 51 99 6B 64 2C C5 8A E0 79 C8 B7
          9E FC FE 4B
          31 8B BB 3C
          AC DD 67 C7
          C7 AC BF F4
          CD B2 D9 0D
          9C 3C D8 50
          CD 7D 44 5E
          82 D1 30 2F
          E5 BE 23 DF
          E5 D1 E8 FA
          F2 FE D9 1F
          93 B1 CF 24
          A2 B4 DB 93
          CF C2 6D 98
          4C FE 92 C9
          82 04 EB 64
          46 06 DD 8D
          64 7A 4E 28
          E4 78 3C 45
          D7 55 FD B5
          8E 4D 5C 8B
          20 51 99 6B
          64 2C C5 8A
          E0 79 C8 B7
0334 0004 00 00 00 00 RCount                00000000
0338 0002 80 00       VSize                 0080
033A 007C 74 13 75 3C VData                 74 13 75 3C 66 C6 56 A4 13 FA 40 65
          66 C6 56 A4                       4F 48 97 AC 48 E2 43 5D 60 94 96 D6
          13 FA 40 65                       0F 9E 50 41 9F 63 D1 5E 45 94 AE 5F
          4F 48 97 AC                       12 0F C1 C5 F0 A5 73 5E C6 3F 05 09
          48 E2 43 5D                       8F 30 CC 84 6E DB 0C F5 16 3F C4 D6
          60 94 96 D6                       8E C7 93 68 51 CA BC CF 6A 00 EC 21
          0F 9E 50 41                       AD C9 78 CC 61 28 01 67 52 84 9D 6A
          9F 63 D1 5E                       B8 E8 18 B1 16 4F FC 98 CD D7 B0 ED
          45 94 AE 5F                       2B 54 C3 95 37 08 A4 EF DC A4 9E 97
          12 0F C1 C5                       D6 8F BE 4F F7 1F E2 50 6A 4B 31 FF
          F0 A5 73 5E                       7F F6 E5 E8
          C6 3F 05 09
          8F 30 CC 84
          6E DB 0C F5
          16 3F C4 D6
          8E C7 93 68
          51 CA BC CF
          6A 00 EC 21
          AD C9 78 CC
          61 28 01 67
          52 84 9D 6A
          B8 E8 18 B1
          16 4F FC 98
          CD D7 B0 ED
          2B 54 C3 95
          37 08 A4 EF
          DC A4 9E 97
          D6 8F BE 4F
          F7 1F E2 50
          6A 4B 31 FF
          7F F6 E5 E8
03B6 0004 A8 3E EF 85 VCRC32                85EF3EA8
03BA 0120 ...         PAYLOAD

CENTRAL HEADER DECRYPTION RECORD
04DA 0002 10 00       IVSize                0010
04DC 0010 FD FC 91 C6 IVData                FD FC 91 C6 6C 0E 05 59 E3 C8 C7 AB
          6C 0E 05 59                       F9 74 C1 B3
          E3 C8 C7 AB
          F9 74 C1 B3
04EC 0004 20 01 00 00 Size                  00000120
04F0 0002 03 00       Format                0003
04F2 0002 10 66       AlgId                 6610 'AES 256'
04F4 0002 00 01       BitLen                0100
04F6 0002 01 00       Flags                 0001 'Password required to decrypt'
04F8 0002 90 00       ErdSize               0090
04FA 0090 3A 98 D8 58 ErdData               3A 98 D8 58 AE E8 95 1B 91 A2 38 A6
          AE E8 95 1B                       D4 2D 5F 96 E4 93 04 5E 6A 0F C7 3C
          91 A2 38 A6                       41 C3 89 10 57 57 78 C8 09 DC DF B9
          D4 2D 5F 96                       37 46 BD 2E 81 D7 DB E9 95 72 08 A9
          E4 93 04 5E                       9E FC FE 4B 31 8B BB 3C AC DD 67 C7
          6A 0F C7 3C                       C7 AC BF F4 CD B2 D9 0D 9C 3C D8 50
          41 C3 89 10                       CD 7D 44 5E 82 D1 30 2F E5 BE 23 DF
          57 57 78 C8                       E5 D1 E8 FA F2 FE D9 1F 93 B1 CF 24
          09 DC DF B9                       A2 B4 DB 93 CF C2 6D 98 4C FE 92 C9
          37 46 BD 2E                       82 04 EB 64 46 06 DD 8D 64 7A 4E 28
          81 D7 DB E9                       E4 78 3C 45 D7 55 FD B5 8E 4D 5C 8B
          95 72 08 A9                       20 51 99 6B 64 2C C5 8A E0 79 C8 B7
          9E FC FE 4B
          31 8B BB 3C
          AC DD 67 C7
          C7 AC BF F4
          CD B2 D9 0D
          9C 3C D8 50
          CD 7D 44 5E
          82 D1 30 2F
          E5 BE 23 DF
          E5 D1 E8 FA
          F2 FE D9 1F
          93 B1 CF 24
          A2 B4 DB 93
          CF C2 6D 98
          4C FE 92 C9
          82 04 EB 64
          46 06 DD 8D
          64 7A 4E 28
          E4 78 3C 45
          D7 55 FD B5
          8E 4D 5C 8B
          20 51 99 6B
          64 2C C5 8A
          E0 79 C8 B7
058A 0004 00 00 00 00 RCount                00000000
058E 0002 80 00       VSize                 0080
0590 007C 25 1F 9D 87 VData                 25 1F 9D 87 E8 3D BC 93 8E 43 57 E2
          E8 3D BC 93                       44 DF 9D 9A 47 61 12 E8 AE 3C E1 BA
          8E 43 57 E2                       A6 3E 89 A7 FF BE D9 58 47 9D 23 65
          44 DF 9D 9A                       1D 5B BD 32 7E C6 43 83 04 31 E1 C8
          47 61 12 E8                       0C E4 2A FD 8F 00 0F A4 83 DF 4F 50
          AE 3C E1 BA                       1A 5F DB E9 F4 43 E2 C4 36 A8 36 9D
          A6 3E 89 A7                       38 09 C3 D4 57 1B F9 61 26 9C 1B 9F
          FF BE D9 58                       44 D6 05 BA 83 12 39 B7 1A EF 11 09
          47 9D 23 65                       27 8D 9F ED 4E CE B2 00 41 08 2C FC
          1D 5B BD 32                       9F 70 88 08 AB 36 CC D0 D2 11 CA E3
          7E C6 43 83                       08 21 E9 50
          04 31 E1 C8
          0C E4 2A FD
          8F 00 0F A4
          83 DF 4F 50
          1A 5F DB E9
          F4 43 E2 C4
          36 A8 36 9D
          38 09 C3 D4
          57 1B F9 61
          26 9C 1B 9F
          44 D6 05 BA
          83 12 39 B7
          1A EF 11 09
          27 8D 9F ED
          4E CE B2 00
          41 08 2C FC
          9F 70 88 08
          AB 36 CC D0
          D2 11 CA E3
          08 21 E9 50
060C 0004 33 33 A3 B4 VCRC32                B4A33333

0610 00A0 22 1D 97 3C ENCRYPTED CENTRAL     "..<....E....w..y.
          04 15 1C BD DIRECTORY             .....z~..>K.$..r.P.h....O..u{...}..|.
          45 E4 E7 E4                       .&..b....O.r'....q.....x...O...P..^..
          90 77 1B 07                       .C..S.t.........V...W5n.../...=.Ky...
          79 1A 20 06                       h7DLd.{...........H..........
          C0 C3 1D 09
          7A 7E 8E 04
          3E 4B AF 24
          0C 92 72 D8
          50 93 68 FC
          B8 B7 8B 4F
          9D BD 75 7B
          87 A8 D5 7D
          0F 19 7C 13
          D9 26 AA 0B
          62 C3 8B AF
          DE 4F 17 72
          27 13 B2 D1
          F7 71 F3 9B
          87 F5 F2 78
          93 BC B1 4F
          19 A4 E6 50
          1F DE 5E 9B
          DC 20 0C 43
          17 04 53 BE
          74 F7 1D 19
          A0 02 03 C5
          98 C1 56 BA
          D2 10 57 35
          6E B8 15 E7
          2F C6 1E 98
          3D F8 4B 79
          06 14 13 68
          37 44 4C 64
          85 7B B1 F7
          B0 05 9E F8
          A0 0C 09 DE
          81 48 90 E4
          F5 CB AB B8
          F8 94 02 EB

06B0 0004 50 4B 06 06 ZIP64 END CENTRAL DIR 06064B50
                      RECORD
06B4 0008 4C 00 00 00 Size of record        000000000000004C
          00 00 00 00
06BC 0001 41          Created Zip Spec      41 '6.5'
06BD 0001 00          Created OS            00 'MS-DOS'
06BE 0001 3E          Extract Zip Spec      3E '6.2'
06BF 0001 00          Extract OS            00 'MS-DOS'
06C0 0004 00 00 00 00 Number of this disk   00000000
06C4 0004 00 00 00 00 Central Dir Disk no   00000000
06C8 0008 00 00 00 00 Entries in this disk  0000000000000000
          00 00 00 00
06D0 0008 02 00 00 00 Total Entries         0000000000000002
          00 00 00 00
06D8 0008 D6 01 00 00 Size of Central Dir   00000000000001D6
          00 00 00 00
06E0 0008 DA 04 00 00 Offset to Central dir 00000000000004DA
          00 00 00 00
06E8 0002 08 00       Compression Method    0008 'Deflated'
06EA 0008 D6 01 00 00 Compressed Length     00000000000001D6
          00 00 00 00
06F2 0008 D7 00 00 00 Uncompressed Length   00000000000000D7
          00 00 00 00
06FA 0002 10 66       AlgId                 6610 'AES 256'
06FC 0002 00 01       BitLen                0100
06FE 0002 01 00       Flags                 0001 'Password required to decrypt'
0700 0002 01 00       HashID                0001 'CRC32'
0702 0002 04 00       Hash Length           0004
0704 0004 16 E2 7A 82 Hash Data             16 E2 7A 82

0708 0004 50 4B 06 07 ZIP64 END CENTRAL DIR 07064B50
                      LOCATOR
070C 0004 00 00 00 00 Central Dir Disk no   00000000
0710 0008 B0 06 00 00 Offset to Zip64 EOCD  00000000000006B0
          00 00 00 00
0718 0004 01 00 00 00 Total no of Disks     00000001

071C 0004 50 4B 05 06 END CENTRAL HEADER    06054B50
0720 0002 00 00       Number of this disk   0000
0722 0002 00 00       Central Dir Disk no   0000
0724 0002 00 00       Entries in this disk  0000
0726 0002 FF FF       Total Entries         FFFF
0728 0004 D6 01 00 00 Size of Central Dir   000001D6
072C 0004 DA 04 00 00 Offset to Central Dir 000004DA
0730 0002 11 00       Comment Length        0011
0732 0011 54 68 69 73 Comment               'This is a comment'
          20 69 73 20
          61 20 63 6F
          6D 6D 65 6E
          74
# WARNING: Local Directory exists, but Central Directory is encrypted

Warning Count: 1
Done
