
0000 0003 0004 50 4B 03 04 LOCAL HEADER #1       04034B50 (67324752)
0004 0004 0001 14          Extract Zip Spec      14 (20) '2.0'
0005 0005 0001 00          Extract OS            00 (0) 'MS-DOS'
0006 0007 0002 00 00       General Purpose Flag  0000 (0)
                           [Bits 1-2]            0 'Normal Compression'
0008 0009 0002 08 00       Compression Method    0008 (8) 'Deflated'
000A 000D 0004 67 5F B0 5C Modification Time     5CB05F67 (1555062631) 'Sat May 16 11:59:14 2026'
000E 0011 0004 11 CD 82 ED CRC                   ED82CD11 (3984772369)
0012 0015 0004 06 00 00 00 Compressed Size       00000006 (6)
0016 0019 0004 04 00 00 00 Uncompressed Size     00000004 (4)
001A 001B 0002 04 00       Filename Length       0004 (4)
001C 001D 0002 0B 00       Extra Length          000B (11)
001E 0021 0004 74 65 73 74 Filename              'test'
0022 0023 0002 75 78       Extra ID #1           7875 (30837) 'Unix Extra type 3 [ux]'
0024 0025 0002 07 00         Length              0007 (7)
0026 0026 0001 01            Version             01 (1)
0027 0027 0001 02            UID Size            02 (2)
0028 0029 0002 34 12         UID                 1234 (4660)
002A 002A 0001 02            GID Size            02 (2)
002B 002C 0002 56 24         GID                 2456 (9302)
002D 0032 0006 4B 4C 4A 4E PAYLOAD               KLJN..
               01 00

0033 0036 0004 50 4B 01 02 CENTRAL HEADER #1     02014B50 (33639248)
0037 0037 0001 14          Created Zip Spec      14 (20) '2.0'
0038 0038 0001 03          Created OS            03 (3) 'Unix'
0039 0039 0001 14          Extract Zip Spec      14 (20) '2.0'
003A 003A 0001 00          Extract OS            00 (0) 'MS-DOS'
003B 003C 0002 00 00       General Purpose Flag  0000 (0)
                           [Bits 1-2]            0 'Normal Compression'
003D 003E 0002 08 00       Compression Method    0008 (8) 'Deflated'
003F 0042 0004 67 5F B0 5C Modification Time     5CB05F67 (1555062631) 'Sat May 16 11:59:14 2026'
0043 0046 0004 11 CD 82 ED CRC                   ED82CD11 (3984772369)
0047 004A 0004 06 00 00 00 Compressed Size       00000006 (6)
004B 004E 0004 04 00 00 00 Uncompressed Size     00000004 (4)
004F 0050 0002 04 00       Filename Length       0004 (4)
0051 0052 0002 0B 00       Extra Length          000B (11)
0053 0054 0002 00 00       Comment Length        0000 (0)
0055 0056 0002 00 00       Disk Start            0000 (0)
0057 0058 0002 00 00       Int File Attributes   0000 (0)
                           [Bit 0]               0 'Binary Data'
0059 005C 0004 00 00 A4 81 Ext File Attributes   81A40000 (2175008768)
                           [Bits 16-24]          01A4 (420) 'Unix attrib: rw-r--r--'
                           [Bits 28-31]          08 (8) 'Regular File'
005D 0060 0004 00 00 00 00 Local Header Offset   00000000 (0)
0061 0064 0004 74 65 73 74 Filename              'test'
0065 0066 0002 75 78       Extra ID #1           7875 (30837) 'Unix Extra type 3 [ux]'
0067 0068 0002 07 00         Length              0007 (7)
0069 0069 0001 01            Version             01 (1)
006A 006A 0001 02            UID Size            02 (2)
006B 006C 0002 34 12         UID                 1234 (4660)
006D 006D 0001 02            GID Size            02 (2)
006E 006F 0002 56 24         GID                 2456 (9302)

0070 0073 0004 50 4B 05 06 END CENTRAL HEADER    06054B50 (101010256)
0074 0075 0002 00 00       Number of this disk   0000 (0)
0076 0077 0002 00 00       Central Dir Disk no   0000 (0)
0078 0079 0002 01 00       Entries in this disk  0001 (1)
007A 007B 0002 01 00       Total Entries         0001 (1)
007C 007F 0004 3D 00 00 00 Size of Central Dir   0000003D (61)
0080 0083 0004 33 00 00 00 Offset to Central Dir 00000033 (51)
0084 0085 0002 00 00       Comment Length        0000 (0)
#
# Done
