
0000 0003 0004 50 4B 03 04 LOCAL HEADER #1       67324752 (0x4034B50)
0004 0004 0001 0A          Extract Zip Spec      10 (0xA) '1.0'
0005 0005 0001 03          Extract OS            3 (0x3) 'Unix'
0006 0007 0002 00 00       General Purpose Flag  0 (0x0)
0008 0009 0002 00 00       Compression Method    0 (0x0) 'Stored'
000A 000D 0004 15 9E 89 52 Last Mod Time         1384750613 (0x52899E15) 'Fri Apr  9 19:48:42 2021'
000E 0011 0004 FF E7 0E F9 CRC                   4178503679 (0xF90EE7FF)
0012 0015 0004 BE 01 00 00 Compressed Length     446 (0x1BE)
0016 0019 0004 BE 01 00 00 Uncompressed Length   446 (0x1BE)
001A 001B 0002 09 00       Filename Length       9 (0x9)
001C 001D 0002 00 00       Extra Length          0 (0x0)
001E 0026 0009 6C 6F 72 65 Filename              'lorem.txt'
               6D 2E 74 78
               74
0027 01E4 01BE ...         PAYLOAD

01E5 01E8 0004 50 4B 01 02 CENTRAL HEADER #1     33639248 (0x2014B50)
01E9 01E9 0001 3F          Created Zip Spec      63 (0x3F) '6.3'
01EA 01EA 0001 03          Created OS            3 (0x3) 'Unix'
01EB 01EB 0001 0A          Extract Zip Spec      10 (0xA) '1.0'
01EC 01EC 0001 03          Extract OS            3 (0x3) 'Unix'
01ED 01EE 0002 00 00       General Purpose Flag  0 (0x0)
01EF 01F0 0002 00 00       Compression Method    0 (0x0) 'Stored'
01F1 01F4 0004 15 9E 89 52 Last Mod Time         1384750613 (0x52899E15) 'Fri Apr  9 19:48:42 2021'
01F5 01F8 0004 FF E7 0E F9 CRC                   4178503679 (0xF90EE7FF)
01F9 01FC 0004 BE 01 00 00 Compressed Length     446 (0x1BE)
01FD 0200 0004 BE 01 00 00 Uncompressed Length   446 (0x1BE)
0201 0202 0002 09 00       Filename Length       9 (0x9)
0203 0204 0002 24 00       Extra Length          36 (0x24)
0205 0206 0002 00 00       Comment Length        0 (0x0)
0207 0208 0002 00 00       Disk Start            0 (0x0)
0209 020A 0002 00 00       Int File Attributes   0 (0x0)
                           [Bit 0]               0 'Binary Data'
020B 020E 0004 20 80 ED 81 Ext File Attributes   2179825696 (0x81ED8020)
                           [Bit 5]               Archive
                           [Bits 11-15]          32768 (0x8000) 'Unknown DOS attrib'
                           [Bits 16-24]          493 (0x1ED) 'Unix attrib: rwxr-xr-x'
                           [Bits 28-31]          8 (0x8) 'Regular File'
020F 0212 0004 00 00 00 00 Local Header Offset   0 (0x0)
0213 021B 0009 6C 6F 72 65 Filename              'lorem.txt'
               6D 2E 74 78
               74
021C 021D 0002 0A 00       Extra ID #1           10 (0xA) 'NTFS FileTimes'
021E 021F 0002 20 00         Length              32 (0x20)
0220 0223 0004 00 00 00 00   Reserved            0 (0x0)
0224 0225 0002 01 00         Tag1                1 (0x1)
0226 0227 0002 18 00         Size1               24 (0x18)
0228 022F 0008 80 8A 8D F5   Mtime               132624677210000000 (0x1D72D70F58D8A80) 'Fri Apr  9 18:48:41 2021 0ns'
               70 2D D7 01
0230 0237 0008 00 F1 38 09   Atime               132624677540000000 (0x1D72D710938F100) 'Fri Apr  9 18:49:14 2021 0ns'
               71 2D D7 01
0238 023F 0008 80 8A 8D F5   Ctime               132624677210000000 (0x1D72D70F58D8A80) 'Fri Apr  9 18:48:41 2021 0ns'
               70 2D D7 01

0240 0243 0004 50 4B 05 06 END CENTRAL HEADER    101010256 (0x6054B50)
0244 0245 0002 00 00       Number of this disk   0 (0x0)
0246 0247 0002 00 00       Central Dir Disk no   0 (0x0)
0248 0249 0002 01 00       Entries in this disk  1 (0x1)
024A 024B 0002 01 00       Total Entries         1 (0x1)
024C 024F 0004 5B 00 00 00 Size of Central Dir   91 (0x5B)
0250 0253 0004 E5 01 00 00 Offset to Central Dir 485 (0x1E5)
0254 0255 0002 00 00       Comment Length        0 (0x0)
#
# Done
