
0000 0003 0004 50 4B 03 04 LOCAL HEADER #1       0x04034B50 [67324752]
0004 0004 0001 0A          Extract Zip Spec      0x0A [10] '1.0'
0005 0005 0001 03          Extract OS            0x03 [3] 'Unix'
0006 0007 0002 00 00       General Purpose Flag  0x0000 [0]
0008 0009 0002 00 00       Compression Method    0x0000 [0] 'Stored'
000A 000D 0004 15 9E 89 52 Last Mod Time         0x52899E15 [1384750613] 'Fri Apr  9 19:48:42 2021'
000E 0011 0004 FF E7 0E F9 CRC                   0xF90EE7FF [4178503679]
0012 0015 0004 BE 01 00 00 Compressed Length     0x000001BE [446]
0016 0019 0004 BE 01 00 00 Uncompressed Length   0x000001BE [446]
001A 001B 0002 09 00       Filename Length       0x0009 [9]
001C 001D 0002 00 00       Extra Length          0x0000 [0]
001E 0026 0009 6C 6F 72 65 Filename              'lorem.txt'
               6D 2E 74 78
               74
0027 01E4 01BE ...         PAYLOAD

01E5 01E8 0004 50 4B 01 02 CENTRAL HEADER #1     0x02014B50 [33639248]
01E9 01E9 0001 3F          Created Zip Spec      0x3F [63] '6.3'
01EA 01EA 0001 03          Created OS            0x03 [3] 'Unix'
01EB 01EB 0001 0A          Extract Zip Spec      0x0A [10] '1.0'
01EC 01EC 0001 03          Extract OS            0x03 [3] 'Unix'
01ED 01EE 0002 00 00       General Purpose Flag  0x0000 [0]
01EF 01F0 0002 00 00       Compression Method    0x0000 [0] 'Stored'
01F1 01F4 0004 15 9E 89 52 Last Mod Time         0x52899E15 [1384750613] 'Fri Apr  9 19:48:42 2021'
01F5 01F8 0004 FF E7 0E F9 CRC                   0xF90EE7FF [4178503679]
01F9 01FC 0004 BE 01 00 00 Compressed Length     0x000001BE [446]
01FD 0200 0004 BE 01 00 00 Uncompressed Length   0x000001BE [446]
0201 0202 0002 09 00       Filename Length       0x0009 [9]
0203 0204 0002 24 00       Extra Length          0x0024 [36]
0205 0206 0002 00 00       Comment Length        0x0000 [0]
0207 0208 0002 00 00       Disk Start            0x0000 [0]
0209 020A 0002 00 00       Int File Attributes   0x0000 [0]
                           [Bit 0]               0 'Binary Data'
020B 020E 0004 20 80 ED 81 Ext File Attributes   0x81ED8020 [2179825696]
                           [Bit 5]               Archive
                           [Bits 11-15]          0x8000 [32768] 'Unknown DOS attrib'
                           [Bits 16-24]          0x01ED [493] 'Unix attrib: rwxr-xr-x'
                           [Bits 28-31]          0x08 [8] 'Regular File'
020F 0212 0004 00 00 00 00 Local Header Offset   0x00000000 [0]
0213 021B 0009 6C 6F 72 65 Filename              'lorem.txt'
               6D 2E 74 78
               74
021C 021D 0002 0A 00       Extra ID #1           0x000A [10] 'NTFS FileTimes'
021E 021F 0002 20 00         Length              0x0020 [32]
0220 0223 0004 00 00 00 00   Reserved            0x00000000 [0]
0224 0225 0002 01 00         Tag1                0x0001 [1]
0226 0227 0002 18 00         Size1               0x0018 [24]
0228 022F 0008 80 8A 8D F5   Mtime               0x01D72D70F58D8A80 [132624677210000000] 'Fri Apr  9 18:48:41 2021 0ns'
               70 2D D7 01
0230 0237 0008 00 F1 38 09   Atime               0x01D72D710938F100 [132624677540000000] 'Fri Apr  9 18:49:14 2021 0ns'
               71 2D D7 01
0238 023F 0008 80 8A 8D F5   Ctime               0x01D72D70F58D8A80 [132624677210000000] 'Fri Apr  9 18:48:41 2021 0ns'
               70 2D D7 01

0240 0243 0004 50 4B 05 06 END CENTRAL HEADER    0x06054B50 [101010256]
0244 0245 0002 00 00       Number of this disk   0x0000 [0]
0246 0247 0002 00 00       Central Dir Disk no   0x0000 [0]
0248 0249 0002 01 00       Entries in this disk  0x0001 [1]
024A 024B 0002 01 00       Total Entries         0x0001 [1]
024C 024F 0004 5B 00 00 00 Size of Central Dir   0x0000005B [91]
0250 0253 0004 E5 01 00 00 Offset to Central Dir 0x000001E5 [485]
0254 0255 0002 00 00       Comment Length        0x0000 [0]
#
# Done
