
0000 0003 0004 50 4B 03 04 LOCAL HEADER #1       04034B50 (67324752)
0004 0004 0001 14          Extract Zip Spec      14 (20) '2.0'
0005 0005 0001 00          Extract OS            00 (0) 'MS-DOS'
0006 0007 0002 00 00       General Purpose Flag  0000 (0)
                           [Bits 1-2]            0 'Normal Compression'
0008 0009 0002 08 00       Compression Method    0008 (8) 'Deflated'
000A 000D 0004 62 56 9D 55 Last Mod Date/Time    559D5662 (1436374626) 'Thu Dec 29 10:51:04 2022'
000E 0011 0004 00 00 00 00 CRC                   00000000 (0)
0012 0015 0004 00 00 00 00 Compressed Length     00000000 (0)
0016 0019 0004 00 00 00 00 Uncompressed Length   00000000 (0)
001A 001B 0002 09 00       Filename Length       0009 (9)
001C 001D 0002 00 00       Extra Length          0000 (0)
001E 0026 0009 6C 6F 72 65 Filename              'lorem.txt'
               6D 2E 74 78
               74

0027 0144 011E ...         UNEXPECTED PADDING
#
# INFO: Offset 0x27: 0x11E (286) Unexpected Padding bytes
#

0145 0148 0004 50 4B 01 02 CENTRAL HEADER #1     02014B50 (33639248)
0149 0149 0001 14          Created Zip Spec      14 (20) '2.0'
014A 014A 0001 03          Created OS            03 (3) 'Unix'
014B 014B 0001 14          Extract Zip Spec      14 (20) '2.0'
014C 014C 0001 00          Extract OS            00 (0) 'MS-DOS'
014D 014E 0002 00 00       General Purpose Flag  0000 (0)
                           [Bits 1-2]            0 'Normal Compression'
014F 0150 0002 08 00       Compression Method    0008 (8) 'Deflated'
0151 0154 0004 62 56 9D 55 Last Mod Date/Time    559D5662 (1436374626) 'Thu Dec 29 10:51:04 2022'
0155 0158 0004 FF E7 0E F9 CRC                   F90EE7FF (4178503679)
0159 015C 0004 0E 01 00 00 Compressed Length     0000010E (270)
015D 0160 0004 BE 01 00 00 Uncompressed Length   000001BE (446)
0161 0162 0002 09 00       Filename Length       0009 (9)
0163 0164 0002 00 00       Extra Length          0000 (0)
0165 0166 0002 00 00       Comment Length        0000 (0)
0167 0168 0002 00 00       Disk Start            0000 (0)
0169 016A 0002 01 00       Int File Attributes   0001 (1)
                           [Bit 0]               1 'Text Data'
016B 016E 0004 00 00 A4 81 Ext File Attributes   81A40000 (2175008768)
                           [Bits 16-24]          01A4 (420) 'Unix attrib: rw-r--r--'
                           [Bits 28-31]          08 (8) 'Regular File'
016F 0172 0004 00 00 00 00 Local Header Offset   00000000 (0)
0173 017B 0009 6C 6F 72 65 Filename              'lorem.txt'
               6D 2E 74 78
               74

017C 017F 0004 50 4B 05 06 END CENTRAL HEADER    06054B50 (101010256)
0180 0181 0002 00 00       Number of this disk   0000 (0)
0182 0183 0002 00 00       Central Dir Disk no   0000 (0)
0184 0185 0002 01 00       Entries in this disk  0001 (1)
0186 0187 0002 01 00       Total Entries         0001 (1)
0188 018B 0004 37 00 00 00 Size of Central Dir   00000037 (55)
018C 018F 0004 45 01 00 00 Offset to Central Dir 00000145 (325)
0190 0191 0002 00 00       Comment Length        0000 (0)
#
# ERROR: Found 3 Field Mismatch for Filename 'lorem.txt'
#
#  -----------------------------------------------------------------------------------
#  | Field             | Central     | Central                 | Local     | Local   | 
#  | Name              | Offset      | Value                   | Offset    | Value   | 
#  -----------------------------------------------------------------------------------
#  | CRC32             | 0x155 (341) | 0xF90EE7FF (4178503679) | 0x10 (16) | 0x0 (0) | 
#  | Compressed Length | 0x159 (345) | 0x10E (270)             | 0x14 (20) | 0x0 (0) | 
#  | Compressed Length | 0x15D (349) | 0x1BE (446)             | 0x18 (24) | 0x0 (0) | 
#  -----------------------------------------------------------------------------------
#
# Error Count: 1
# Info Count: 1
#
# Done
