
0000 0004 50 4B 03 04 LOCAL HEADER #1       04034B50
0004 0001 14          Extract Zip Spec      14 '2.0'
0005 0001 00          Extract OS            00 'MS-DOS'
0006 0002 00 00       General Purpose Flag  0000
                      [Bits 1-2]            0 'Normal Compression'
0008 0002 08 00       Compression Method    0008 'Deflated'
000A 0004 62 56 9D 55 Last Mod Time         559D5662 'Thu Dec 29 10:51:04 2022'
000E 0004 00 00 00 00 CRC                   00000000
0012 0004 00 00 00 00 Compressed Length     00000000
0016 0004 00 00 00 00 Uncompressed Length   00000000
001A 0002 09 00       Filename Length       0009
001C 0002 00 00       Extra Length          0000
001E 0009 6C 6F 72 65 Filename              'lorem.txt'
          6D 2E 74 78
          74

0027 011E ...         UNEXPECTED PADDING
#
# INFO: Offset 0x27: 0x11E Unexpected Padding bytes
#

0145 0004 50 4B 01 02 CENTRAL HEADER #1     02014B50
0149 0001 14          Created Zip Spec      14 '2.0'
014A 0001 03          Created OS            03 'Unix'
014B 0001 14          Extract Zip Spec      14 '2.0'
014C 0001 00          Extract OS            00 'MS-DOS'
014D 0002 00 00       General Purpose Flag  0000
                      [Bits 1-2]            0 'Normal Compression'
014F 0002 08 00       Compression Method    0008 'Deflated'
0151 0004 62 56 9D 55 Last Mod Time         559D5662 'Thu Dec 29 10:51:04 2022'
0155 0004 FF E7 0E F9 CRC                   F90EE7FF
0159 0004 0E 01 00 00 Compressed Length     0000010E
015D 0004 BE 01 00 00 Uncompressed Length   000001BE
0161 0002 09 00       Filename Length       0009
0163 0002 00 00       Extra Length          0000
0165 0002 00 00       Comment Length        0000
0167 0002 00 00       Disk Start            0000
0169 0002 01 00       Int File Attributes   0001
                      [Bit 0]               1 Text Data
016B 0004 00 00 A4 81 Ext File Attributes   81A40000
016F 0004 00 00 00 00 Local Header Offset   00000000
0173 0009 6C 6F 72 65 Filename              'lorem.txt'
          6D 2E 74 78
          74

017C 0004 50 4B 05 06 END CENTRAL HEADER    06054B50
0180 0002 00 00       Number of this disk   0000
0182 0002 00 00       Central Dir Disk no   0000
0184 0002 01 00       Entries in this disk  0001
0186 0002 01 00       Total Entries         0001
0188 0004 37 00 00 00 Size of Central Dir   00000037
018C 0004 45 01 00 00 Offset to Central Dir 00000145
0190 0002 00 00       Comment Length        0000
#
# WARNING: Offset 0x145: Filename 'lorem.txt': 'uncompressedLength' field mismatch': Central Header has '446', Local Directory has '0'
#
#
# WARNING: Offset 0x145: Filename 'lorem.txt': 'compressedLength' field mismatch': Central Header has '270', Local Directory has '0'
#
#
# WARNING: Offset 0x145: Filename 'lorem.txt': 'crc32' field mismatch': Central Header has '4178503679', Local Directory has '0'
#

Warning Count: 3
Info Count: 1
Done
