
0000 0003 0004 50 4B 03 04 LOCAL HEADER #1       04034B50 (67324752)
0004 0004 0001 33          Extract Zip Spec      33 (51) '5.1'
0005 0005 0001 03          Extract OS            03 (3) 'Unix'
0006 0007 0002 01 00       General Purpose Flag  0001 (1)
                           [Bit  0]              1 'Encryption'
0008 0009 0002 63 00       Compression Method    0063 (99) 'AES Encryption'
000A 000D 0004 15 9E 89 52 Last Mod Date/Time    52899E15 (1384750613) 'Fri Apr  9 19:48:42 2021'
000E 0011 0004 00 00 00 00 CRC                   00000000 (0)
0012 0015 0004 26 01 00 00 Compressed Size       00000126 (294)
0016 0019 0004 BE 01 00 00 Uncompressed Size     000001BE (446)
001A 001B 0002 09 00       Filename Length       0009 (9)
001C 001D 0002 0B 00       Extra Length          000B (11)
001E 0026 0009 6C 6F 72 65 Filename              'lorem.txt'
               6D 2E 74 78
               74
0027 0028 0002 01 99       Extra ID #1           9901 (39169) 'AES Encryption'
0029 002A 0002 07 00         Length              0007 (7)
002B 002C 0002 02 00         Vendor Version      0002 (2) 'AE-2'
002D 002E 0002 41 45         Vendor ID           4541 (17729) 'AE'
002F 002F 0001 03            Encryption Strength 03 (3) '256-bit encryption key'
0030 0031 0002 08 00         Compression Method  0008 (8) 'Deflated'
0032 0041 0010 E8 5F 1A 17 AES Salt              E8 5F 1A 17 39 DD 1D 14 57 28 D8 9D C1 66 C8 9C
               39 DD 1D 14
               57 28 D8 9D
               C1 66 C8 9C
0042 0043 0002 D6 F1       AES Pwd Ver           D6 F1
0044 014D 010A ...         PAYLOAD
014E 0157 000A 09 2A FE D9 AES Auth              09 2A FE D9 C7 40 B7 31 C1 F4
               C7 40 B7 31
               C1 F4

0158 015B 0004 50 4B 01 02 CENTRAL HEADER #1     02014B50 (33639248)
015C 015C 0001 3F          Created Zip Spec      3F (63) '6.3'
015D 015D 0001 03          Created OS            03 (3) 'Unix'
015E 015E 0001 33          Extract Zip Spec      33 (51) '5.1'
015F 015F 0001 03          Extract OS            03 (3) 'Unix'
0160 0161 0002 01 00       General Purpose Flag  0001 (1)
                           [Bit  0]              1 'Encryption'
0162 0163 0002 63 00       Compression Method    0063 (99) 'AES Encryption'
0164 0167 0004 15 9E 89 52 Last Mod Date/Time    52899E15 (1384750613) 'Fri Apr  9 19:48:42 2021'
0168 016B 0004 00 00 00 00 CRC                   00000000 (0)
016C 016F 0004 26 01 00 00 Compressed Size       00000126 (294)
0170 0173 0004 BE 01 00 00 Uncompressed Size     000001BE (446)
0174 0175 0002 09 00       Filename Length       0009 (9)
0176 0177 0002 2F 00       Extra Length          002F (47)
0178 0179 0002 00 00       Comment Length        0000 (0)
017A 017B 0002 00 00       Disk Start            0000 (0)
017C 017D 0002 00 00       Int File Attributes   0000 (0)
                           [Bit 0]               0 'Binary Data'
017E 0181 0004 20 80 ED 81 Ext File Attributes   81ED8020 (2179825696)
                           [Bit 5]               Archive
                           [Bits 11-15]          8000 (32768) 'Unknown DOS attrib'
                           [Bits 16-24]          01ED (493) 'Unix attrib: rwxr-xr-x'
                           [Bits 28-31]          08 (8) 'Regular File'
0182 0185 0004 00 00 00 00 Local Header Offset   00000000 (0)
0186 018E 0009 6C 6F 72 65 Filename              'lorem.txt'
               6D 2E 74 78
               74
018F 0190 0002 0A 00       Extra ID #1           000A (10) 'NTFS FileTimes'
0191 0192 0002 20 00         Length              0020 (32)
0193 0196 0004 00 00 00 00   Reserved            00000000 (0)
0197 0198 0002 01 00         Tag1                0001 (1)
0199 019A 0002 18 00         Size1               0018 (24)
019B 01A2 0008 80 8A 8D F5   Mtime               01D72D70F58D8A80 (132624677210000000) 'Fri Apr  9 18:48:41 2021 0ns'
               70 2D D7 01
01A3 01AA 0008 00 F1 38 09   Atime               01D72D710938F100 (132624677540000000) 'Fri Apr  9 18:49:14 2021 0ns'
               71 2D D7 01
01AB 01B2 0008 80 8A 8D F5   Ctime               01D72D70F58D8A80 (132624677210000000) 'Fri Apr  9 18:48:41 2021 0ns'
               70 2D D7 01
01B3 01B4 0002 01 99       Extra ID #2           9901 (39169) 'AES Encryption'
01B5 01B6 0002 07 00         Length              0007 (7)
01B7 01B8 0002 02 00         Vendor Version      0002 (2) 'AE-2'
01B9 01BA 0002 41 45         Vendor ID           4541 (17729) 'AE'
01BB 01BB 0001 03            Encryption Strength 03 (3) '256-bit encryption key'
01BC 01BD 0002 08 00         Compression Method  0008 (8) 'Deflated'

01BE 01C1 0004 50 4B 05 06 END CENTRAL HEADER    06054B50 (101010256)
01C2 01C3 0002 00 00       Number of this disk   0000 (0)
01C4 01C5 0002 00 00       Central Dir Disk no   0000 (0)
01C6 01C7 0002 01 00       Entries in this disk  0001 (1)
01C8 01C9 0002 01 00       Total Entries         0001 (1)
01CA 01CD 0004 66 00 00 00 Size of Central Dir   00000066 (102)
01CE 01D1 0004 58 01 00 00 Offset to Central Dir 00000158 (344)
01D2 01D3 0002 00 00       Comment Length        0000 (0)
#
# Done
