
0000 0003 0004 50 4B 03 04 LOCAL HEADER #1       67324752 (0x4034B50)
0004 0004 0001 3F          Extract Zip Spec      63 (0x3F) '6.3'
0005 0005 0001 03          Extract OS            3 (0x3) 'Unix'
0006 0007 0002 00 00       General Purpose Flag  0 (0x0)
0008 0009 0002 62 00       Compression Method    98 (0x62) 'PPMd version I, Rev 1'
000A 000D 0004 22 A3 89 52 Last Mod Time         1384751906 (0x5289A322) 'Fri Apr  9 20:25:04 2021'
000E 0011 0004 FF E7 0E F9 CRC                   4178503679 (0xF90EE7FF)
0012 0015 0004 06 01 00 00 Compressed Length     262 (0x106)
0016 0019 0004 BE 01 00 00 Uncompressed Length   446 (0x1BE)
001A 001B 0002 09 00       Filename Length       9 (0x9)
001C 001D 0002 00 00       Extra Length          0 (0x0)
001E 0026 0009 6C 6F 72 65 Filename              'lorem.txt'
               6D 2E 74 78
               74
0027 012C 0106 ...         PAYLOAD

012D 0130 0004 50 4B 01 02 CENTRAL HEADER #1     33639248 (0x2014B50)
0131 0131 0001 3F          Created Zip Spec      63 (0x3F) '6.3'
0132 0132 0001 03          Created OS            3 (0x3) 'Unix'
0133 0133 0001 3F          Extract Zip Spec      63 (0x3F) '6.3'
0134 0134 0001 03          Extract OS            3 (0x3) 'Unix'
0135 0136 0002 00 00       General Purpose Flag  0 (0x0)
0137 0138 0002 62 00       Compression Method    98 (0x62) 'PPMd version I, Rev 1'
0139 013C 0004 22 A3 89 52 Last Mod Time         1384751906 (0x5289A322) 'Fri Apr  9 20:25:04 2021'
013D 0140 0004 FF E7 0E F9 CRC                   4178503679 (0xF90EE7FF)
0141 0144 0004 06 01 00 00 Compressed Length     262 (0x106)
0145 0148 0004 BE 01 00 00 Uncompressed Length   446 (0x1BE)
0149 014A 0002 09 00       Filename Length       9 (0x9)
014B 014C 0002 24 00       Extra Length          36 (0x24)
014D 014E 0002 00 00       Comment Length        0 (0x0)
014F 0150 0002 00 00       Disk Start            0 (0x0)
0151 0152 0002 00 00       Int File Attributes   0 (0x0)
                           [Bit 0]               0 'Binary Data'
0153 0156 0004 20 80 ED 81 Ext File Attributes   2179825696 (0x81ED8020)
                           [Bit 5]               Archive
                           [Bits 11-15]          32768 (0x8000) 'Unknown DOS attrib'
                           [Bits 16-24]          493 (0x1ED) 'Unix attrib: rwxr-xr-x'
                           [Bits 28-31]          8 (0x8) 'Regular File'
0157 015A 0004 00 00 00 00 Local Header Offset   0 (0x0)
015B 0163 0009 6C 6F 72 65 Filename              'lorem.txt'
               6D 2E 74 78
               74
0164 0165 0002 0A 00       Extra ID #1           10 (0xA) 'NTFS FileTimes'
0166 0167 0002 20 00         Length              32 (0x20)
0168 016B 0004 00 00 00 00   Reserved            0 (0x0)
016C 016D 0002 01 00         Tag1                1 (0x1)
016E 016F 0002 18 00         Size1               24 (0x18)
0170 0177 0008 00 E8 B8 0A   Mtime               132624699040000000 (0x1D72D760AB8E800) 'Fri Apr  9 19:25:04 2021 0ns'
               76 2D D7 01
0178 017F 0008 00 17 76 95   Atime               132637526140000000 (0x1D7392095761700) 'Sat Apr 24 15:43:34 2021 0ns'
               20 39 D7 01
0180 0187 0008 80 63 3A 2C   Ctime               132632202910000000 (0x1D734492C3A6380) 'Sun Apr 18 11:51:31 2021 0ns'
               49 34 D7 01

0188 018B 0004 50 4B 05 06 END CENTRAL HEADER    101010256 (0x6054B50)
018C 018D 0002 00 00       Number of this disk   0 (0x0)
018E 018F 0002 00 00       Central Dir Disk no   0 (0x0)
0190 0191 0002 01 00       Entries in this disk  1 (0x1)
0192 0193 0002 01 00       Total Entries         1 (0x1)
0194 0197 0004 5B 00 00 00 Size of Central Dir   91 (0x5B)
0198 019B 0004 2D 01 00 00 Offset to Central Dir 301 (0x12D)
019C 019D 0002 00 00       Comment Length        0 (0x0)
#
# Done
