
0000 0003 0004 50 4B 03 04 LOCAL HEADER #1       0x04034B50 [67324752]
0004 0004 0001 3F          Extract Zip Spec      0x3F [63] '6.3'
0005 0005 0001 03          Extract OS            0x03 [3] 'Unix'
0006 0007 0002 00 00       General Purpose Flag  0x0000 [0]
0008 0009 0002 62 00       Compression Method    0x0062 [98] 'PPMd version I, Rev 1'
000A 000D 0004 22 A3 89 52 Last Mod Time         0x5289A322 [1384751906] 'Fri Apr  9 20:25:04 2021'
000E 0011 0004 FF E7 0E F9 CRC                   0xF90EE7FF [4178503679]
0012 0015 0004 06 01 00 00 Compressed Length     0x00000106 [262]
0016 0019 0004 BE 01 00 00 Uncompressed Length   0x000001BE [446]
001A 001B 0002 09 00       Filename Length       0x0009 [9]
001C 001D 0002 00 00       Extra Length          0x0000 [0]
001E 0026 0009 6C 6F 72 65 Filename              'lorem.txt'
               6D 2E 74 78
               74
0027 012C 0106 ...         PAYLOAD

012D 0130 0004 50 4B 01 02 CENTRAL HEADER #1     0x02014B50 [33639248]
0131 0131 0001 3F          Created Zip Spec      0x3F [63] '6.3'
0132 0132 0001 03          Created OS            0x03 [3] 'Unix'
0133 0133 0001 3F          Extract Zip Spec      0x3F [63] '6.3'
0134 0134 0001 03          Extract OS            0x03 [3] 'Unix'
0135 0136 0002 00 00       General Purpose Flag  0x0000 [0]
0137 0138 0002 62 00       Compression Method    0x0062 [98] 'PPMd version I, Rev 1'
0139 013C 0004 22 A3 89 52 Last Mod Time         0x5289A322 [1384751906] 'Fri Apr  9 20:25:04 2021'
013D 0140 0004 FF E7 0E F9 CRC                   0xF90EE7FF [4178503679]
0141 0144 0004 06 01 00 00 Compressed Length     0x00000106 [262]
0145 0148 0004 BE 01 00 00 Uncompressed Length   0x000001BE [446]
0149 014A 0002 09 00       Filename Length       0x0009 [9]
014B 014C 0002 24 00       Extra Length          0x0024 [36]
014D 014E 0002 00 00       Comment Length        0x0000 [0]
014F 0150 0002 00 00       Disk Start            0x0000 [0]
0151 0152 0002 00 00       Int File Attributes   0x0000 [0]
                           [Bit 0]               0 'Binary Data'
0153 0156 0004 20 80 ED 81 Ext File Attributes   0x81ED8020 [2179825696]
                           [Bit 5]               Archive
                           [Bits 11-15]          0x8000 [32768] 'Unknown DOS attrib'
                           [Bits 16-24]          0x01ED [493] 'Unix attrib: rwxr-xr-x'
                           [Bits 28-31]          0x08 [8] 'Regular File'
0157 015A 0004 00 00 00 00 Local Header Offset   0x00000000 [0]
015B 0163 0009 6C 6F 72 65 Filename              'lorem.txt'
               6D 2E 74 78
               74
0164 0165 0002 0A 00       Extra ID #1           0x000A [10] 'NTFS FileTimes'
0166 0167 0002 20 00         Length              0x0020 [32]
0168 016B 0004 00 00 00 00   Reserved            0x00000000 [0]
016C 016D 0002 01 00         Tag1                0x0001 [1]
016E 016F 0002 18 00         Size1               0x0018 [24]
0170 0177 0008 00 E8 B8 0A   Mtime               0x01D72D760AB8E800 [132624699040000000] 'Fri Apr  9 19:25:04 2021 0ns'
               76 2D D7 01
0178 017F 0008 00 17 76 95   Atime               0x01D7392095761700 [132637526140000000] 'Sat Apr 24 15:43:34 2021 0ns'
               20 39 D7 01
0180 0187 0008 80 63 3A 2C   Ctime               0x01D734492C3A6380 [132632202910000000] 'Sun Apr 18 11:51:31 2021 0ns'
               49 34 D7 01

0188 018B 0004 50 4B 05 06 END CENTRAL HEADER    0x06054B50 [101010256]
018C 018D 0002 00 00       Number of this disk   0x0000 [0]
018E 018F 0002 00 00       Central Dir Disk no   0x0000 [0]
0190 0191 0002 01 00       Entries in this disk  0x0001 [1]
0192 0193 0002 01 00       Total Entries         0x0001 [1]
0194 0197 0004 5B 00 00 00 Size of Central Dir   0x0000005B [91]
0198 019B 0004 2D 01 00 00 Offset to Central Dir 0x0000012D [301]
019C 019D 0002 00 00       Comment Length        0x0000 [0]
#
# Done
