
0000 0003 0004 50 4B 03 04 LOCAL HEADER #1       0x04034B50 [67324752]
0004 0004 0001 2D          Extract Zip Spec      0x2D [45] '4.5'
0005 0005 0001 00          Extract OS            0x00 [0] 'MS-DOS'
0006 0007 0002 00 00       General Purpose Flag  0x0000 [0]
                           [Bits 1-2]            0 'Normal Compression'
0008 0009 0002 08 00       Compression Method    0x0008 [8] 'Deflated'
000A 000D 0004 71 85 98 52 Last Mod Time         0x52988571 [1385727345] 'Sat Apr 24 16:43:34 2021'
000E 0011 0004 FF E7 0E F9 CRC                   0xF90EE7FF [4178503679]
0012 0015 0004 FF FF FF FF Compressed Length     0xFFFFFFFF [4294967295]
0016 0019 0004 FF FF FF FF Uncompressed Length   0xFFFFFFFF [4294967295]
001A 001B 0002 01 00       Filename Length       0x0001 [1]
001C 001D 0002 14 00       Extra Length          0x0014 [20]
001E 001E 0001 2D          Filename              '-'
001F 0020 0002 01 00       Extra ID #1           0x0001 [1] 'ZIP64'
0021 0022 0002 10 00         Length              0x0010 [16]
0023 002A 0008 BE 01 00 00   Uncompressed Size   0x00000000000001BE [446]
               00 00 00 00
002B 0032 0008 0E 01 00 00   Compressed Size     0x000000000000010E [270]
               00 00 00 00
0033 0140 010E ...         PAYLOAD

0141 0144 0004 50 4B 01 02 CENTRAL HEADER #1     0x02014B50 [33639248]
0145 0145 0001 1E          Created Zip Spec      0x1E [30] '3.0'
0146 0146 0001 03          Created OS            0x03 [3] 'Unix'
0147 0147 0001 2D          Extract Zip Spec      0x2D [45] '4.5'
0148 0148 0001 00          Extract OS            0x00 [0] 'MS-DOS'
0149 014A 0002 00 00       General Purpose Flag  0x0000 [0]
                           [Bits 1-2]            0 'Normal Compression'
014B 014C 0002 08 00       Compression Method    0x0008 [8] 'Deflated'
014D 0150 0004 71 85 98 52 Last Mod Time         0x52988571 [1385727345] 'Sat Apr 24 16:43:34 2021'
0151 0154 0004 FF E7 0E F9 CRC                   0xF90EE7FF [4178503679]
0155 0158 0004 0E 01 00 00 Compressed Length     0x0000010E [270]
0159 015C 0004 FF FF FF FF Uncompressed Length   0xFFFFFFFF [4294967295]
015D 015E 0002 01 00       Filename Length       0x0001 [1]
015F 0160 0002 0C 00       Extra Length          0x000C [12]
0161 0162 0002 00 00       Comment Length        0x0000 [0]
0163 0164 0002 00 00       Disk Start            0x0000 [0]
0165 0166 0002 01 00       Int File Attributes   0x0001 [1]
                           [Bit 0]               1 'Text Data'
0167 016A 0004 00 00 ED 81 Ext File Attributes   0x81ED0000 [2179792896]
                           [Bits 16-24]          0x01ED [493] 'Unix attrib: rwxr-xr-x'
                           [Bits 28-31]          0x08 [8] 'Regular File'
016B 016E 0004 00 00 00 00 Local Header Offset   0x00000000 [0]
016F 016F 0001 2D          Filename              '-'
0170 0171 0002 01 00       Extra ID #1           0x0001 [1] 'ZIP64'
0172 0173 0002 08 00         Length              0x0008 [8]
0174 017B 0008 BE 01 00 00   Uncompressed Size   0x00000000000001BE [446]
               00 00 00 00

017C 017F 0004 50 4B 06 06 ZIP64 END CENTRAL DIR 0x06064B50 [101075792]
                           RECORD
0180 0187 0008 2C 00 00 00 Size of record        0x000000000000002C [44]
               00 00 00 00
0188 0188 0001 1E          Created Zip Spec      0x1E [30] '3.0'
0189 0189 0001 03          Created OS            0x03 [3] 'Unix'
018A 018A 0001 2D          Extract Zip Spec      0x2D [45] '4.5'
018B 018B 0001 00          Extract OS            0x00 [0] 'MS-DOS'
018C 018F 0004 00 00 00 00 Number of this disk   0x00000000 [0]
0190 0193 0004 00 00 00 00 Central Dir Disk no   0x00000000 [0]
0194 019B 0008 01 00 00 00 Entries in this disk  0x0000000000000001 [1]
               00 00 00 00
019C 01A3 0008 01 00 00 00 Total Entries         0x0000000000000001 [1]
               00 00 00 00
01A4 01AB 0008 3B 00 00 00 Size of Central Dir   0x000000000000003B [59]
               00 00 00 00
01AC 01B3 0008 41 01 00 00 Offset to Central dir 0x0000000000000141 [321]
               00 00 00 00

01B4 01B7 0004 50 4B 06 07 ZIP64 END CENTRAL DIR 0x07064B50 [117853008]
                           LOCATOR
01B8 01BB 0004 00 00 00 00 Central Dir Disk no   0x00000000 [0]
01BC 01C3 0008 7C 01 00 00 Offset to Zip64 EOCD  0x000000000000017C [380]
               00 00 00 00
01C4 01C7 0004 01 00 00 00 Total no of Disks     0x00000001 [1]

01C8 01CB 0004 50 4B 05 06 END CENTRAL HEADER    0x06054B50 [101010256]
01CC 01CD 0002 00 00       Number of this disk   0x0000 [0]
01CE 01CF 0002 00 00       Central Dir Disk no   0x0000 [0]
01D0 01D1 0002 01 00       Entries in this disk  0x0001 [1]
01D2 01D3 0002 01 00       Total Entries         0x0001 [1]
01D4 01D7 0004 3B 00 00 00 Size of Central Dir   0x0000003B [59]
01D8 01DB 0004 FF FF FF FF Offset to Central Dir 0xFFFFFFFF [4294967295]
01DC 01DD 0002 00 00       Comment Length        0x0000 [0]
#
# Done
