#
# INFO: Offset 0x0: found 495 (0x1EF) bytes before beginning of zipfile
#

0000 01EE 01EF ...         UNEXPECTED PADDING

01EF 01F2 0004 50 4B 03 04 LOCAL HEADER #1       67324752 (0x4034B50)
01F3 01F3 0001 14          Extract Zip Spec      20 (0x14) '2.0'
01F4 01F4 0001 00          Extract OS            0 (0x0) 'MS-DOS'
01F5 01F6 0002 08 08       General Purpose Flag  2056 (0x808)
                           [Bit  3]              1 'Streamed'
                           [Bit 11]              1 'Language Encoding'
01F7 01F8 0002 00 00       Compression Method    0 (0x0) 'Stored'
01F9 01FC 0004 2C BE 9D 55 Last Mod Time         1436401196 (0x559DBE2C) 'Thu Dec 29 23:49:24 2022'
01FD 0200 0004 00 00 00 00 CRC                   0 (0x0)
0201 0204 0004 00 00 00 00 Compressed Length     0 (0x0)
0205 0208 0004 5F 00 00 00 Uncompressed Length   95 (0x5F)
0209 020A 0002 08 00       Filename Length       8 (0x8)
020B 020C 0002 0C 00       Extra Length          12 (0xC)
020D 0214 0008 5F 5F 63 64 Filename              '__cdcd__'
               63 64 5F 5F
0215 0216 0002 CD CD       Extra ID #1           52685 (0xCDCD) 'Minizip Central Directory'
0217 0218 0002 08 00         Length              8 (0x8)
0219 0220 0008 01 00 00 00   Entries             1 (0x1)
               00 00 00 00
0221 027F 005F 50 4B 01 02 PAYLOAD               PK..?....(.....U..............(...............lorem.txtQ.$... .....H!.q.c/{.p.u......J.........
               3F 03 14 00
               08 28 00 00
               15 8A 99 55
               FF E7 0E F9
               BE 01 00 00
               BE 01 00 00
               09 00 28 00
               00 00 00 00
               00 00 80 00
               F8 81 00 00
               00 00 6C 6F
               72 65 6D 2E
               74 78 74 51
               1A 24 00 17
               00 20 00 90
               F2 D6 A2 48
               21 C0 71 8E
               63 2F 7B FA
               70 90 75 E7
               E9 CC E0 09
               DB 4A 14 1C
               04 07 1B 13
               CA FE AC

0280 0283 0004 50 4B 07 08 DATA DESCRIPTOR       134695760 (0x8074B50)
0284 0287 0004 D7 B9 39 AA CRC                   2855909847 (0xAA39B9D7)
0288 028B 0004 5F 00 00 00 Compressed Length     95 (0x5F)
028C 028F 0004 5F 00 00 00 Uncompressed Length   95 (0x5F)

0290 0293 0004 50 4B 01 02 CENTRAL HEADER #1     33639248 (0x2014B50)
0294 0294 0001 3F          Created Zip Spec      63 (0x3F) '6.3'
0295 0295 0001 03          Created OS            3 (0x3) 'Unix'
0296 0296 0001 14          Extract Zip Spec      20 (0x14) '2.0'
0297 0297 0001 00          Extract OS            0 (0x0) 'MS-DOS'
0298 0299 0002 08 08       General Purpose Flag  2056 (0x808)
                           [Bit  3]              1 'Streamed'
                           [Bit 11]              1 'Language Encoding'
029A 029B 0002 00 00       Compression Method    0 (0x0) 'Stored'
029C 029F 0004 2C BE 9D 55 Last Mod Time         1436401196 (0x559DBE2C) 'Thu Dec 29 23:49:24 2022'
02A0 02A3 0004 D7 B9 39 AA CRC                   2855909847 (0xAA39B9D7)
02A4 02A7 0004 5F 00 00 00 Compressed Length     95 (0x5F)
02A8 02AB 0004 5F 00 00 00 Uncompressed Length   95 (0x5F)
02AC 02AD 0002 08 00       Filename Length       8 (0x8)
02AE 02AF 0002 34 00       Extra Length          52 (0x34)
02B0 02B1 0002 00 00       Comment Length        0 (0x0)
02B2 02B3 0002 00 00       Disk Start            0 (0x0)
02B4 02B5 0002 00 00       Int File Attributes   0 (0x0)
                           [Bit 0]               0 'Binary Data'
02B6 02B9 0004 00 00 00 00 Ext File Attributes   0 (0x0)
02BA 02BD 0004 EF 01 00 00 Local Header Offset   495 (0x1EF)
02BE 02C5 0008 5F 5F 63 64 Filename              '__cdcd__'
               63 64 5F 5F
02C6 02C7 0002 51 1A       Extra ID #1           6737 (0x1A51) 'Minizip Hash'
02C8 02C9 0002 24 00         Length              36 (0x24)
02CA 02CB 0002 17 00         Algorithm           23 (0x17) 'SHA256'
02CC 02CD 0002 20 00         Digest Size         32 (0x20)
02CE 02ED 0020 73 CF 6B B9   Digest              73 CF 6B B9 A9 C0 21 AC F7 56 50 92 5A 7F 72 C0
               A9 C0 21 AC                       BF 76 5C 68 9D D0 7E 60 1B B6 53 39 B0 4F F3 13
               F7 56 50 92
               5A 7F 72 C0
               BF 76 5C 68
               9D D0 7E 60
               1B B6 53 39
               B0 4F F3 13
02EE 02EF 0002 CD CD       Extra ID #2           52685 (0xCDCD) 'Minizip Central Directory'
02F0 02F1 0002 08 00         Length              8 (0x8)
02F2 02F9 0008 01 00 00 00   Entries             1 (0x1)
               00 00 00 00

02FA 02FD 0004 50 4B 05 06 END CENTRAL HEADER    101010256 (0x6054B50)
02FE 02FF 0002 00 00       Number of this disk   0 (0x0)
0300 0301 0002 00 00       Central Dir Disk no   0 (0x0)
0302 0303 0002 02 00       Entries in this disk  2 (0x2)
0304 0305 0002 02 00       Total Entries         2 (0x2)
0306 0309 0004 6A 00 00 00 Size of Central Dir   106 (0x6A)
030A 030D 0004 90 02 00 00 Offset to Central Dir 656 (0x290)
030E 030F 0002 00 00       Comment Length        0 (0x0)
#
# Info Count: 1
#
# Done
