
0000 0003 0004 50 4B 03 04 LOCAL HEADER #1       67324752 (0x4034B50)
0004 0004 0001 2E          Extract Zip Spec      46 (0x2E) '4.6'
0005 0005 0001 00          Extract OS            0 (0x0) 'MS-DOS'
0006 0007 0002 00 08       General Purpose Flag  2048 (0x800)
                           [Bit 11]              1 'Language Encoding'
0008 0009 0002 0C 00       Compression Method    12 (0xC) 'BZIP2'
000A 000D 0004 D3 78 F6 54 Last Mod Time         1425438931 (0x54F678D3) 'Fri Jul 22 15:06:38 2022'
000E 0011 0004 FF E7 0E F9 CRC                   4178503679 (0xF90EE7FF)
0012 0015 0004 35 01 00 00 Compressed Length     309 (0x135)
0016 0019 0004 BE 01 00 00 Uncompressed Length   446 (0x1BE)
001A 001B 0002 09 00       Filename Length       9 (0x9)
001C 001D 0002 00 00       Extra Length          0 (0x0)
001E 0026 0009 6C 6F 72 65 Filename              'lorem.txt'
               6D 2E 74 78
               74
0027 015B 0135 ...         PAYLOAD

015C 015F 0004 50 4B 03 04 LOCAL HEADER #2       67324752 (0x4034B50)
0160 0160 0001 2E          Extract Zip Spec      46 (0x2E) '4.6'
0161 0161 0001 00          Extract OS            0 (0x0) 'MS-DOS'
0162 0163 0002 00 08       General Purpose Flag  2048 (0x800)
                           [Bit 11]              1 'Language Encoding'
0164 0165 0002 0C 00       Compression Method    12 (0xC) 'BZIP2'
0166 0169 0004 A5 6E FD 54 Last Mod Time         1425895077 (0x54FD6EA5) 'Fri Jul 29 13:53:10 2022'
016A 016D 0004 3C C8 F5 41 CRC                   1106626620 (0x41F5C83C)
016E 0171 0004 38 01 00 00 Compressed Length     312 (0x138)
0172 0175 0004 BF 01 00 00 Uncompressed Length   447 (0x1BF)
0176 0177 0002 0A 00       Filename Length       10 (0xA)
0178 0179 0002 00 00       Extra Length          0 (0x0)
017A 0183 000A 6C 6F 72 65 Filename              'lorem2.txt'
               6D 32 2E 74
               78 74
0184 02BB 0138 ...         PAYLOAD

02BC 02BF 0004 50 4B 01 02 CENTRAL HEADER #1     33639248 (0x2014B50)
02C0 02C0 0001 41          Created Zip Spec      65 (0x41) '6.5'
02C1 02C1 0001 00          Created OS            0 (0x0) 'MS-DOS'
02C2 02C2 0001 2E          Extract Zip Spec      46 (0x2E) '4.6'
02C3 02C3 0001 00          Extract OS            0 (0x0) 'MS-DOS'
02C4 02C5 0002 00 08       General Purpose Flag  2048 (0x800)
                           [Bit 11]              1 'Language Encoding'
02C6 02C7 0002 0C 00       Compression Method    12 (0xC) 'BZIP2'
02C8 02CB 0004 D3 78 F6 54 Last Mod Time         1425438931 (0x54F678D3) 'Fri Jul 22 15:06:38 2022'
02CC 02CF 0004 FF E7 0E F9 CRC                   4178503679 (0xF90EE7FF)
02D0 02D3 0004 35 01 00 00 Compressed Length     309 (0x135)
02D4 02D7 0004 BE 01 00 00 Uncompressed Length   446 (0x1BE)
02D8 02D9 0002 09 00       Filename Length       9 (0x9)
02DA 02DB 0002 24 00       Extra Length          36 (0x24)
02DC 02DD 0002 00 00       Comment Length        0 (0x0)
02DE 02DF 0002 00 00       Disk Start            0 (0x0)
02E0 02E1 0002 01 00       Int File Attributes   1 (0x1)
                           [Bit 0]               1 'Text Data'
02E2 02E5 0004 20 00 00 00 Ext File Attributes   32 (0x20)
                           [Bit 5]               Archive
02E6 02E9 0004 00 00 00 00 Local Header Offset   0 (0x0)
02EA 02F2 0009 6C 6F 72 65 Filename              'lorem.txt'
               6D 2E 74 78
               74
02F3 02F4 0002 0A 00       Extra ID #1           10 (0xA) 'NTFS FileTimes'
02F5 02F6 0002 20 00         Length              32 (0x20)
02F7 02FA 0004 00 00 00 00   Reserved            0 (0x0)
02FB 02FC 0002 01 00         Tag1                1 (0x1)
02FD 02FE 0002 18 00         Size1               24 (0x18)
02FF 0306 0008 00 6B 65 42   Mtime               133029723980000000 (0x1D89DD442656B00) 'Fri Jul 22 14:06:38 2022 0ns'
               D4 9D D8 01
0307 030E 0008 A2 97 3A E1   Atime               133037294377146274 (0x1D8A4B6E13A97A2) 'Sun Jul 31 08:23:57 2022 714627400ns'
               B6 A4 D8 01
030F 0316 0008 1D FB 7D DB   Ctime               133031423060605725 (0x1D89F5FDB7DFB1D) 'Sun Jul 24 13:18:26 2022 60572500ns'
               5F 9F D8 01

0317 031A 0004 50 4B 01 02 CENTRAL HEADER #2     33639248 (0x2014B50)
031B 031B 0001 41          Created Zip Spec      65 (0x41) '6.5'
031C 031C 0001 00          Created OS            0 (0x0) 'MS-DOS'
031D 031D 0001 2E          Extract Zip Spec      46 (0x2E) '4.6'
031E 031E 0001 00          Extract OS            0 (0x0) 'MS-DOS'
031F 0320 0002 00 08       General Purpose Flag  2048 (0x800)
                           [Bit 11]              1 'Language Encoding'
0321 0322 0002 0C 00       Compression Method    12 (0xC) 'BZIP2'
0323 0326 0004 A5 6E FD 54 Last Mod Time         1425895077 (0x54FD6EA5) 'Fri Jul 29 13:53:10 2022'
0327 032A 0004 3C C8 F5 41 CRC                   1106626620 (0x41F5C83C)
032B 032E 0004 38 01 00 00 Compressed Length     312 (0x138)
032F 0332 0004 BF 01 00 00 Uncompressed Length   447 (0x1BF)
0333 0334 0002 0A 00       Filename Length       10 (0xA)
0335 0336 0002 24 00       Extra Length          36 (0x24)
0337 0338 0002 00 00       Comment Length        0 (0x0)
0339 033A 0002 00 00       Disk Start            0 (0x0)
033B 033C 0002 01 00       Int File Attributes   1 (0x1)
                           [Bit 0]               1 'Text Data'
033D 0340 0004 20 00 00 00 Ext File Attributes   32 (0x20)
                           [Bit 5]               Archive
0341 0344 0004 5C 01 00 00 Local Header Offset   348 (0x15C)
0345 034E 000A 6C 6F 72 65 Filename              'lorem2.txt'
               6D 32 2E 74
               78 74
034F 0350 0002 0A 00       Extra ID #1           10 (0xA) 'NTFS FileTimes'
0351 0352 0002 20 00         Length              32 (0x20)
0353 0356 0004 00 00 00 00   Reserved            0 (0x0)
0357 0358 0002 01 00         Tag1                1 (0x1)
0359 035A 0002 18 00         Size1               24 (0x18)
035B 0362 0008 14 EA 72 27   Mtime               133035727892179476 (0x1D8A34A2772EA14) 'Fri Jul 29 12:53:09 2022 217947600ns'
               4A A3 D8 01
0363 036A 0008 A2 97 3A E1   Atime               133037294377146274 (0x1D8A4B6E13A97A2) 'Sun Jul 31 08:23:57 2022 714627400ns'
               B6 A4 D8 01
036B 0372 0008 C3 C8 58 21   Ctime               133035727789803715 (0x1D8A34A2158C8C3) 'Fri Jul 29 12:52:58 2022 980371500ns'
               4A A3 D8 01

0373 0376 0004 50 4B 05 06 END CENTRAL HEADER    101010256 (0x6054B50)
0377 0378 0002 00 00       Number of this disk   0 (0x0)
0379 037A 0002 00 00       Central Dir Disk no   0 (0x0)
037B 037C 0002 02 00       Entries in this disk  2 (0x2)
037D 037E 0002 02 00       Total Entries         2 (0x2)
037F 0382 0004 B7 00 00 00 Size of Central Dir   183 (0xB7)
0383 0386 0004 BC 02 00 00 Offset to Central Dir 700 (0x2BC)
0387 0388 0002 00 00       Comment Length        0 (0x0)
#
# Done
