
000000000 000000003 000000004 50 4B 03 04 LOCAL HEADER #1       0x04034B50 [67324752]
000000004 000000004 000000001 2D          Extract Zip Spec      0x2D [45] '4.5'
000000005 000000005 000000001 00          Extract OS            0x00 [0] 'MS-DOS'
000000006 000000007 000000002 00 00       General Purpose Flag  0x0000 [0]
000000008 000000009 000000002 00 00       Compression Method    0x0000 [0] 'Stored'
00000000A 00000000D 000000004 14 74 07 55 Last Mod Time         0x55077414 [1426551828] 'Sun Aug  7 14:32:40 2022'
00000000E 000000011 000000004 8D EF 02 D2 CRC                   0xD202EF8D [3523407757]
000000012 000000015 000000004 FF FF FF FF Compressed Length     0xFFFFFFFF [4294967295]
000000016 000000019 000000004 FF FF FF FF Uncompressed Length   0xFFFFFFFF [4294967295]
00000001A 00000001B 000000002 0A 00       Filename Length       0x000A [10]
00000001C 00000001D 000000002 14 00       Extra Length          0x0014 [20]
00000001E 000000027 00000000A 34 67 69 67 Filename              '4gig-plus1'
                              2D 70 6C 75
                              73 31
000000028 000000029 000000002 01 00       Extra ID #1           0x0001 [1] 'ZIP64'
00000002A 00000002B 000000002 10 00         Length              0x0010 [16]
00000002C 000000033 000000008 00 00 00 00   Uncompressed Size   0x0000000100000000 [4294967296]
                              01 00 00 00
000000034 00000003B 000000008 00 00 00 00   Compressed Size     0x0000000100000000 [4294967296]
                              01 00 00 00
00000003C 10000003B 100000000 ...         PAYLOAD

10000003C 10000003F 000000004 50 4B 01 02 CENTRAL HEADER #1     0x02014B50 [33639248]
100000040 100000040 000000001 2D          Created Zip Spec      0x2D [45] '4.5'
100000041 100000041 000000001 00          Created OS            0x00 [0] 'MS-DOS'
100000042 100000042 000000001 2D          Extract Zip Spec      0x2D [45] '4.5'
100000043 100000043 000000001 00          Extract OS            0x00 [0] 'MS-DOS'
100000044 100000045 000000002 00 00       General Purpose Flag  0x0000 [0]
100000046 100000047 000000002 00 00       Compression Method    0x0000 [0] 'Stored'
100000048 10000004B 000000004 14 74 07 55 Last Mod Time         0x55077414 [1426551828] 'Sun Aug  7 14:32:40 2022'
10000004C 10000004F 000000004 8D EF 02 D2 CRC                   0xD202EF8D [3523407757]
100000050 100000053 000000004 FF FF FF FF Compressed Length     0xFFFFFFFF [4294967295]
100000054 100000057 000000004 FF FF FF FF Uncompressed Length   0xFFFFFFFF [4294967295]
100000058 100000059 000000002 0A 00       Filename Length       0x000A [10]
10000005A 10000005B 000000002 14 00       Extra Length          0x0014 [20]
10000005C 10000005D 000000002 00 00       Comment Length        0x0000 [0]
10000005E 10000005F 000000002 00 00       Disk Start            0x0000 [0]
100000060 100000061 000000002 00 00       Int File Attributes   0x0000 [0]
                                          [Bit 0]               0 'Binary Data'
100000062 100000065 000000004 20 00 00 00 Ext File Attributes   0x00000020 [32]
                                          [Bit 5]               Archive
100000066 100000069 000000004 00 00 00 00 Local Header Offset   0x00000000 [0]
10000006A 100000073 00000000A 34 67 69 67 Filename              '4gig-plus1'
                              2D 70 6C 75
                              73 31
100000074 100000075 000000002 01 00       Extra ID #1           0x0001 [1] 'ZIP64'
100000076 100000077 000000002 10 00         Length              0x0010 [16]
100000078 10000007F 000000008 00 00 00 00   Uncompressed Size   0x0000000100000000 [4294967296]
                              01 00 00 00
100000080 100000087 000000008 00 00 00 00   Compressed Size     0x0000000100000000 [4294967296]
                              01 00 00 00

100000088 10000008B 000000004 50 4B 06 06 ZIP64 END CENTRAL DIR 0x06064B50 [101075792]
                                          RECORD
10000008C 100000093 000000008 2C 00 00 00 Size of record        0x000000000000002C [44]
                              00 00 00 00
100000094 100000094 000000001 2D          Created Zip Spec      0x2D [45] '4.5'
100000095 100000095 000000001 00          Created OS            0x00 [0] 'MS-DOS'
100000096 100000096 000000001 2D          Extract Zip Spec      0x2D [45] '4.5'
100000097 100000097 000000001 00          Extract OS            0x00 [0] 'MS-DOS'
100000098 10000009B 000000004 00 00 00 00 Number of this disk   0x00000000 [0]
10000009C 10000009F 000000004 00 00 00 00 Central Dir Disk no   0x00000000 [0]
1000000A0 1000000A7 000000008 01 00 00 00 Entries in this disk  0x0000000000000001 [1]
                              00 00 00 00
1000000A8 1000000AF 000000008 01 00 00 00 Total Entries         0x0000000000000001 [1]
                              00 00 00 00
1000000B0 1000000B7 000000008 4C 00 00 00 Size of Central Dir   0x000000000000004C [76]
                              00 00 00 00
1000000B8 1000000BF 000000008 3C 00 00 00 Offset to Central dir 0x000000010000003C [4294967356]
                              01 00 00 00

1000000C0 1000000C3 000000004 50 4B 06 07 ZIP64 END CENTRAL DIR 0x07064B50 [117853008]
                                          LOCATOR
1000000C4 1000000C7 000000004 00 00 00 00 Central Dir Disk no   0x00000000 [0]
1000000C8 1000000CF 000000008 88 00 00 00 Offset to Zip64 EOCD  0x0000000100000088 [4294967432]
                              01 00 00 00
1000000D0 1000000D3 000000004 01 00 00 00 Total no of Disks     0x00000001 [1]

1000000D4 1000000D7 000000004 50 4B 05 06 END CENTRAL HEADER    0x06054B50 [101010256]
1000000D8 1000000D9 000000002 00 00       Number of this disk   0x0000 [0]
1000000DA 1000000DB 000000002 00 00       Central Dir Disk no   0x0000 [0]
1000000DC 1000000DD 000000002 01 00       Entries in this disk  0x0001 [1]
1000000DE 1000000DF 000000002 01 00       Total Entries         0x0001 [1]
1000000E0 1000000E3 000000004 4C 00 00 00 Size of Central Dir   0x0000004C [76]
1000000E4 1000000E7 000000004 FF FF FF FF Offset to Central Dir 0xFFFFFFFF [4294967295]
1000000E8 1000000E9 000000002 00 00       Comment Length        0x0000 [0]
#
# Done
