
0000 0003 0004 50 4B 03 04 LOCAL HEADER #1       04034B50 (67324752)
0004 0004 0001 14          Extract Zip Spec      14 (20) '2.0'
0005 0005 0001 00          Extract OS            00 (0) 'MS-DOS'
0006 0007 0002 00 00       General Purpose Flag  0000 (0)
0008 0009 0002 00 00       Compression Method    0000 (0) 'Stored'
000A 000D 0004 E0 69 72 55 Last Mod Time         557269E0 (1433561568) 'Fri Nov 18 13:15:00 2022'
000E 0011 0004 65 D8 87 85 CRC                   8587D865 (2240272485)
0012 0015 0004 05 00 00 00 Compressed Length     00000005 (5)
0016 0019 0004 05 00 00 00 Uncompressed Length   00000005 (5)
001A 001B 0002 08 00       Filename Length       0008 (8)
001C 001D 0002 05 00       Extra Length          0005 (5)
001E 0025 0008 66 69 6C 65 Filename              'filename'
               6E 61 6D 65
0026 0027 0002 55 54       Extra ID #1           5455 (21589) 'Extended Timestamp [UT]'
0028 0029 0002 01 00         Length              0001 (1)
002A 002A 0001 01            Flags               01 (1) 'mod'
#
# ERROR: Offset 0x2B: Extra Field 'Extended Timestamp [UT]' (ID 0x5455): Missing field 'Mod Time'
#
002B 002F 0005 61 62 63 64 PAYLOAD               abcde
               65

0030 0033 0004 50 4B 01 02 CENTRAL HEADER #1     02014B50 (33639248)
0034 0034 0001 14          Created Zip Spec      14 (20) '2.0'
0035 0035 0001 03          Created OS            03 (3) 'Unix'
0036 0036 0001 14          Extract Zip Spec      14 (20) '2.0'
0037 0037 0001 00          Extract OS            00 (0) 'MS-DOS'
0038 0039 0002 00 00       General Purpose Flag  0000 (0)
003A 003B 0002 00 00       Compression Method    0000 (0) 'Stored'
003C 003F 0004 E0 69 72 55 Last Mod Time         557269E0 (1433561568) 'Fri Nov 18 13:15:00 2022'
0040 0043 0004 65 D8 87 85 CRC                   8587D865 (2240272485)
0044 0047 0004 05 00 00 00 Compressed Length     00000005 (5)
0048 004B 0004 05 00 00 00 Uncompressed Length   00000005 (5)
004C 004D 0002 08 00       Filename Length       0008 (8)
004E 004F 0002 05 00       Extra Length          0005 (5)
0050 0051 0002 00 00       Comment Length        0000 (0)
0052 0053 0002 00 00       Disk Start            0000 (0)
0054 0055 0002 00 00       Int File Attributes   0000 (0)
                           [Bit 0]               0 'Binary Data'
0056 0059 0004 00 00 A4 81 Ext File Attributes   81A40000 (2175008768)
                           [Bits 16-24]          01A4 (420) 'Unix attrib: rw-r--r--'
                           [Bits 28-31]          08 (8) 'Regular File'
005A 005D 0004 00 00 00 00 Local Header Offset   00000000 (0)
005E 0065 0008 66 69 6C 65 Filename              'filename'
               6E 61 6D 65
0066 0067 0002 55 54       Extra ID #1           5455 (21589) 'Extended Timestamp [UT]'
0068 0069 0002 01 00         Length              0001 (1)
006A 006A 0001 01            Flags               01 (1) 'mod'
#
# ERROR: Offset 0x6B: Extra Field 'Extended Timestamp [UT]' (ID 0x5455): Missing field 'Mod Time'
#

006B 006E 0004 50 4B 05 06 END CENTRAL HEADER    06054B50 (101010256)
006F 0070 0002 00 00       Number of this disk   0000 (0)
0071 0072 0002 00 00       Central Dir Disk no   0000 (0)
0073 0074 0002 01 00       Entries in this disk  0001 (1)
0075 0076 0002 01 00       Total Entries         0001 (1)
0077 007A 0004 3B 00 00 00 Size of Central Dir   0000003B (59)
007B 007E 0004 30 00 00 00 Offset to Central Dir 00000030 (48)
007F 0080 0002 00 00       Comment Length        0000 (0)
#
# Error Count: 2
#
# Done
