
0000 0003 0004 50 4B 03 04 LOCAL HEADER #1       04034B50 (67324752)
0004 0004 0001 0A          Extract Zip Spec      0A (10) '1.0'
0005 0005 0001 00          Extract OS            00 (0) 'MS-DOS'
0006 0007 0002 08 00       General Purpose Flag  0008 (8)
                           [Bit  3]              1 'Streamed'
0008 0009 0002 00 00       Compression Method    0000 (0) 'Stored'
000A 000D 0004 23 4B 94 55 Last Mod Time         55944B23 (1435781923) 'Tue Dec 20 09:25:06 2022'
000E 0011 0004 00 00 00 00 CRC                   00000000 (0)
0012 0015 0004 BE 01 00 00 Compressed Length     000001BE (446)
0016 0019 0004 BE 01 00 00 Uncompressed Length   000001BE (446)
001A 001B 0002 09 00       Filename Length       0009 (9)
001C 001D 0002 00 00       Extra Length          0000 (0)
001E 0026 0009 6C 6F 72 65 Filename              'lorem.txt'
               6D 2E 74 78
               74
0027 01E4 01BE ...         PAYLOAD

01E5 01E8 0004 50 4B 01 02 CENTRAL HEADER #1     02014B50 (33639248)
01E9 01E9 0001 1E          Created Zip Spec      1E (30) '3.0'
01EA 01EA 0001 03          Created OS            03 (3) 'Unix'
01EB 01EB 0001 0A          Extract Zip Spec      0A (10) '1.0'
01EC 01EC 0001 00          Extract OS            00 (0) 'MS-DOS'
01ED 01EE 0002 08 00       General Purpose Flag  0008 (8)
                           [Bit  3]              1 'Streamed'
01EF 01F0 0002 00 00       Compression Method    0000 (0) 'Stored'
01F1 01F4 0004 23 4B 94 55 Last Mod Time         55944B23 (1435781923) 'Tue Dec 20 09:25:06 2022'
01F5 01F8 0004 FF E7 0E F9 CRC                   F90EE7FF (4178503679)
01F9 01FC 0004 BE 01 00 00 Compressed Length     000001BE (446)
01FD 0200 0004 BE 01 00 00 Uncompressed Length   000001BE (446)
0201 0202 0002 09 00       Filename Length       0009 (9)
0203 0204 0002 00 00       Extra Length          0000 (0)
0205 0206 0002 00 00       Comment Length        0000 (0)
0207 0208 0002 00 00       Disk Start            0000 (0)
0209 020A 0002 00 00       Int File Attributes   0000 (0)
                           [Bit 0]               0 'Binary Data'
020B 020E 0004 00 00 ED 81 Ext File Attributes   81ED0000 (2179792896)
                           [Bits 16-24]          01ED (493) 'Unix attrib: rwxr-xr-x'
                           [Bits 28-31]          08 (8) 'Regular File'
020F 0212 0004 00 00 00 00 Local Header Offset   00000000 (0)
0213 021B 0009 6C 6F 72 65 Filename              'lorem.txt'
               6D 2E 74 78
               74

021C 021F 0004 50 4B 05 06 END CENTRAL HEADER    06054B50 (101010256)
0220 0221 0002 00 00       Number of this disk   0000 (0)
0222 0223 0002 00 00       Central Dir Disk no   0000 (0)
0224 0225 0002 01 00       Entries in this disk  0001 (1)
0226 0227 0002 01 00       Total Entries         0001 (1)
0228 022B 0004 37 00 00 00 Size of Central Dir   00000037 (55)
022C 022F 0004 E5 01 00 00 Offset to Central Dir 000001E5 (485)
0230 0231 0002 00 00       Comment Length        0000 (0)
#
# ERROR: Offset 0x0: Filename 'lorem.txt': Missing 'Data Descriptor'
#
# ERROR: Found 1 Field Mismatch for Filename 'lorem.txt'
#
#  ------------------------------------------------------------------------
#  | Field  | Central     | Central                 | Local     | Local   | 
#  | Name   | Offset      | Value                   | Offset    | Value   | 
#  ------------------------------------------------------------------------
#  | CRC32  | 0x1F5 (501) | 0xF90EE7FF (4178503679) | 0x10 (16) | 0x0 (0) | 
#  ------------------------------------------------------------------------
#
# Error Count: 2
#
# Done
