
0000 0003 0004 50 4B 03 04 LOCAL HEADER #1       0x04034B50 [67324752]
0004 0004 0001 14          Extract Zip Spec      0x14 [20] '2.0'
0005 0005 0001 00          Extract OS            0x00 [0] 'MS-DOS'
0006 0007 0002 09 00       General Purpose Flag  0x0009 [9]
                           [Bit  0]              1 'Encryption'
                           [Bits 1-2]            0 'Normal Compression'
                           [Bit  3]              1 'Streamed'
0008 0009 0002 08 00       Compression Method    0x0008 [8] 'Deflated'
000A 000D 0004 71 85 98 52 Last Mod Time         0x52988571 [1385727345] 'Sat Apr 24 16:43:34 2021'
000E 0011 0004 FF E7 0E F9 CRC                   0xF90EE7FF [4178503679]
0012 0015 0004 1A 01 00 00 Compressed Length     0x0000011A [282]
0016 0019 0004 BE 01 00 00 Uncompressed Length   0x000001BE [446]
001A 001B 0002 09 00       Filename Length       0x0009 [9]
001C 001D 0002 1C 00       Extra Length          0x001C [28]
001E 0026 0009 6C 6F 72 65 Filename              'lorem.txt'
               6D 2E 74 78
               74
0027 0028 0002 55 54       Extra ID #1           0x5455 [21589] 'Extended Timestamp [UT]'
0029 002A 0002 09 00         Length              0x0009 [9]
002B 002B 0001 03            Flags               0x03 [3] 'mod access'
002C 002F 0004 A6 3C 84 60   Mod Time            0x60843CA6 [1619279014] 'Sat Apr 24 15:43:34 2021'
0030 0033 0004 A3 CD E7 62   Access Time         0x62E7CDA3 [1659358627] 'Mon Aug  1 12:57:07 2022'
0034 0035 0002 75 78       Extra ID #2           0x7875 [30837] 'Unix Extra type 3 [ux]'
0036 0037 0002 0B 00         Length              0x000B [11]
0038 0038 0001 01            Version             0x01 [1]
0039 0039 0001 04            UID Size            0x04 [4]
003A 003D 0004 E8 03 00 00   UID                 0x000003E8 [1000]
003E 003E 0001 04            GID Size            0x04 [4]
003F 0042 0004 E8 03 00 00   GID                 0x000003E8 [1000]
0043 015C 011A ...         PAYLOAD

015D 0160 0004 50 4B 07 08 DATA DESCRIPTOR       0x08074B50 [134695760]
0161 0164 0004 FF E7 0E F9 CRC                   0xF90EE7FF [4178503679]
0165 0168 0004 1A 01 00 00 Compressed Length     0x0000011A [282]
0169 016C 0004 BE 01 00 00 Uncompressed Length   0x000001BE [446]

016D 0170 0004 50 4B 01 02 CENTRAL HEADER #1     0x02014B50 [33639248]
0171 0171 0001 1E          Created Zip Spec      0x1E [30] '3.0'
0172 0172 0001 03          Created OS            0x03 [3] 'Unix'
0173 0173 0001 14          Extract Zip Spec      0x14 [20] '2.0'
0174 0174 0001 00          Extract OS            0x00 [0] 'MS-DOS'
0175 0176 0002 09 00       General Purpose Flag  0x0009 [9]
                           [Bit  0]              1 'Encryption'
                           [Bits 1-2]            0 'Normal Compression'
                           [Bit  3]              1 'Streamed'
0177 0178 0002 08 00       Compression Method    0x0008 [8] 'Deflated'
0179 017C 0004 71 85 98 52 Last Mod Time         0x52988571 [1385727345] 'Sat Apr 24 16:43:34 2021'
017D 0180 0004 FF E7 0E F9 CRC                   0xF90EE7FF [4178503679]
0181 0184 0004 1A 01 00 00 Compressed Length     0x0000011A [282]
0185 0188 0004 BE 01 00 00 Uncompressed Length   0x000001BE [446]
0189 018A 0002 09 00       Filename Length       0x0009 [9]
018B 018C 0002 18 00       Extra Length          0x0018 [24]
018D 018E 0002 00 00       Comment Length        0x0000 [0]
018F 0190 0002 00 00       Disk Start            0x0000 [0]
0191 0192 0002 01 00       Int File Attributes   0x0001 [1]
                           [Bit 0]               1 'Text Data'
0193 0196 0004 00 00 ED 81 Ext File Attributes   0x81ED0000 [2179792896]
                           [Bits 16-24]          0x01ED [493] 'Unix attrib: rwxr-xr-x'
                           [Bits 28-31]          0x08 [8] 'Regular File'
0197 019A 0004 00 00 00 00 Local Header Offset   0x00000000 [0]
019B 01A3 0009 6C 6F 72 65 Filename              'lorem.txt'
               6D 2E 74 78
               74
01A4 01A5 0002 55 54       Extra ID #1           0x5455 [21589] 'Extended Timestamp [UT]'
01A6 01A7 0002 05 00         Length              0x0005 [5]
01A8 01A8 0001 03            Flags               0x03 [3] 'mod access'
01A9 01AC 0004 A6 3C 84 60   Mod Time            0x60843CA6 [1619279014] 'Sat Apr 24 15:43:34 2021'
01AD 01AE 0002 75 78       Extra ID #2           0x7875 [30837] 'Unix Extra type 3 [ux]'
01AF 01B0 0002 0B 00         Length              0x000B [11]
01B1 01B1 0001 01            Version             0x01 [1]
01B2 01B2 0001 04            UID Size            0x04 [4]
01B3 01B6 0004 E8 03 00 00   UID                 0x000003E8 [1000]
01B7 01B7 0001 04            GID Size            0x04 [4]
01B8 01BB 0004 E8 03 00 00   GID                 0x000003E8 [1000]

01BC 01BF 0004 50 4B 05 06 END CENTRAL HEADER    0x06054B50 [101010256]
01C0 01C1 0002 00 00       Number of this disk   0x0000 [0]
01C2 01C3 0002 00 00       Central Dir Disk no   0x0000 [0]
01C4 01C5 0002 01 00       Entries in this disk  0x0001 [1]
01C6 01C7 0002 01 00       Total Entries         0x0001 [1]
01C8 01CB 0004 4F 00 00 00 Size of Central Dir   0x0000004F [79]
01CC 01CF 0004 6D 01 00 00 Offset to Central Dir 0x0000016D [365]
01D0 01D1 0002 00 00       Comment Length        0x0000 [0]
#
# Done
