
0000 0003 0004 50 4B 03 04 LOCAL HEADER #1       0x04034B50 [67324752]
0004 0004 0001 3F          Extract Zip Spec      0x3F [63] '6.3'
0005 0005 0001 00          Extract OS            0x00 [0] 'MS-DOS'
0006 0007 0002 00 08       General Purpose Flag  0x0800 [2048]
                           [Bit 11]              1 'Language Encoding'
0008 0009 0002 62 00       Compression Method    0x0062 [98] 'PPMd version I, Rev 1'
000A 000D 0004 D3 78 F6 54 Last Mod Time         0x54F678D3 [1425438931] 'Fri Jul 22 15:06:38 2022'
000E 0011 0004 FF E7 0E F9 CRC                   0xF90EE7FF [4178503679]
0012 0015 0004 06 01 00 00 Compressed Length     0x00000106 [262]
0016 0019 0004 BE 01 00 00 Uncompressed Length   0x000001BE [446]
001A 001B 0002 09 00       Filename Length       0x0009 [9]
001C 001D 0002 00 00       Extra Length          0x0000 [0]
001E 0026 0009 6C 6F 72 65 Filename              'lorem.txt'
               6D 2E 74 78
               74
0027 012C 0106 ...         PAYLOAD

012D 0130 0004 50 4B 03 04 LOCAL HEADER #2       0x04034B50 [67324752]
0131 0131 0001 3F          Extract Zip Spec      0x3F [63] '6.3'
0132 0132 0001 00          Extract OS            0x00 [0] 'MS-DOS'
0133 0134 0002 00 08       General Purpose Flag  0x0800 [2048]
                           [Bit 11]              1 'Language Encoding'
0135 0136 0002 62 00       Compression Method    0x0062 [98] 'PPMd version I, Rev 1'
0137 013A 0004 A5 6E FD 54 Last Mod Time         0x54FD6EA5 [1425895077] 'Fri Jul 29 13:53:10 2022'
013B 013E 0004 3C C8 F5 41 CRC                   0x41F5C83C [1106626620]
013F 0142 0004 06 01 00 00 Compressed Length     0x00000106 [262]
0143 0146 0004 BF 01 00 00 Uncompressed Length   0x000001BF [447]
0147 0148 0002 0A 00       Filename Length       0x000A [10]
0149 014A 0002 00 00       Extra Length          0x0000 [0]
014B 0154 000A 6C 6F 72 65 Filename              'lorem2.txt'
               6D 32 2E 74
               78 74
0155 025A 0106 ...         PAYLOAD

025B 025E 0004 50 4B 01 02 CENTRAL HEADER #1     0x02014B50 [33639248]
025F 025F 0001 41          Created Zip Spec      0x41 [65] '6.5'
0260 0260 0001 00          Created OS            0x00 [0] 'MS-DOS'
0261 0261 0001 3F          Extract Zip Spec      0x3F [63] '6.3'
0262 0262 0001 00          Extract OS            0x00 [0] 'MS-DOS'
0263 0264 0002 00 08       General Purpose Flag  0x0800 [2048]
                           [Bit 11]              1 'Language Encoding'
0265 0266 0002 62 00       Compression Method    0x0062 [98] 'PPMd version I, Rev 1'
0267 026A 0004 D3 78 F6 54 Last Mod Time         0x54F678D3 [1425438931] 'Fri Jul 22 15:06:38 2022'
026B 026E 0004 FF E7 0E F9 CRC                   0xF90EE7FF [4178503679]
026F 0272 0004 06 01 00 00 Compressed Length     0x00000106 [262]
0273 0276 0004 BE 01 00 00 Uncompressed Length   0x000001BE [446]
0277 0278 0002 09 00       Filename Length       0x0009 [9]
0279 027A 0002 24 00       Extra Length          0x0024 [36]
027B 027C 0002 00 00       Comment Length        0x0000 [0]
027D 027E 0002 00 00       Disk Start            0x0000 [0]
027F 0280 0002 01 00       Int File Attributes   0x0001 [1]
                           [Bit 0]               1 'Text Data'
0281 0284 0004 20 00 00 00 Ext File Attributes   0x00000020 [32]
                           [Bit 5]               Archive
0285 0288 0004 00 00 00 00 Local Header Offset   0x00000000 [0]
0289 0291 0009 6C 6F 72 65 Filename              'lorem.txt'
               6D 2E 74 78
               74
0292 0293 0002 0A 00       Extra ID #1           0x000A [10] 'NTFS FileTimes'
0294 0295 0002 20 00         Length              0x0020 [32]
0296 0299 0004 00 00 00 00   Reserved            0x00000000 [0]
029A 029B 0002 01 00         Tag1                0x0001 [1]
029C 029D 0002 18 00         Size1               0x0018 [24]
029E 02A5 0008 00 6B 65 42   Mtime               0x01D89DD442656B00 [133029723980000000] 'Fri Jul 22 14:06:38 2022 0ns'
               D4 9D D8 01
02A6 02AD 0008 A2 97 3A E1   Atime               0x01D8A4B6E13A97A2 [133037294377146274] 'Sun Jul 31 08:23:57 2022 714627400ns'
               B6 A4 D8 01
02AE 02B5 0008 1D FB 7D DB   Ctime               0x01D89F5FDB7DFB1D [133031423060605725] 'Sun Jul 24 13:18:26 2022 60572500ns'
               5F 9F D8 01

02B6 02B9 0004 50 4B 01 02 CENTRAL HEADER #2     0x02014B50 [33639248]
02BA 02BA 0001 41          Created Zip Spec      0x41 [65] '6.5'
02BB 02BB 0001 00          Created OS            0x00 [0] 'MS-DOS'
02BC 02BC 0001 3F          Extract Zip Spec      0x3F [63] '6.3'
02BD 02BD 0001 00          Extract OS            0x00 [0] 'MS-DOS'
02BE 02BF 0002 00 08       General Purpose Flag  0x0800 [2048]
                           [Bit 11]              1 'Language Encoding'
02C0 02C1 0002 62 00       Compression Method    0x0062 [98] 'PPMd version I, Rev 1'
02C2 02C5 0004 A5 6E FD 54 Last Mod Time         0x54FD6EA5 [1425895077] 'Fri Jul 29 13:53:10 2022'
02C6 02C9 0004 3C C8 F5 41 CRC                   0x41F5C83C [1106626620]
02CA 02CD 0004 06 01 00 00 Compressed Length     0x00000106 [262]
02CE 02D1 0004 BF 01 00 00 Uncompressed Length   0x000001BF [447]
02D2 02D3 0002 0A 00       Filename Length       0x000A [10]
02D4 02D5 0002 24 00       Extra Length          0x0024 [36]
02D6 02D7 0002 00 00       Comment Length        0x0000 [0]
02D8 02D9 0002 00 00       Disk Start            0x0000 [0]
02DA 02DB 0002 01 00       Int File Attributes   0x0001 [1]
                           [Bit 0]               1 'Text Data'
02DC 02DF 0004 20 00 00 00 Ext File Attributes   0x00000020 [32]
                           [Bit 5]               Archive
02E0 02E3 0004 2D 01 00 00 Local Header Offset   0x0000012D [301]
02E4 02ED 000A 6C 6F 72 65 Filename              'lorem2.txt'
               6D 32 2E 74
               78 74
02EE 02EF 0002 0A 00       Extra ID #1           0x000A [10] 'NTFS FileTimes'
02F0 02F1 0002 20 00         Length              0x0020 [32]
02F2 02F5 0004 00 00 00 00   Reserved            0x00000000 [0]
02F6 02F7 0002 01 00         Tag1                0x0001 [1]
02F8 02F9 0002 18 00         Size1               0x0018 [24]
02FA 0301 0008 14 EA 72 27   Mtime               0x01D8A34A2772EA14 [133035727892179476] 'Fri Jul 29 12:53:09 2022 217947600ns'
               4A A3 D8 01
0302 0309 0008 A2 97 3A E1   Atime               0x01D8A4B6E13A97A2 [133037294377146274] 'Sun Jul 31 08:23:57 2022 714627400ns'
               B6 A4 D8 01
030A 0311 0008 C3 C8 58 21   Ctime               0x01D8A34A2158C8C3 [133035727789803715] 'Fri Jul 29 12:52:58 2022 980371500ns'
               4A A3 D8 01

0312 0315 0004 50 4B 05 06 END CENTRAL HEADER    0x06054B50 [101010256]
0316 0317 0002 00 00       Number of this disk   0x0000 [0]
0318 0319 0002 00 00       Central Dir Disk no   0x0000 [0]
031A 031B 0002 02 00       Entries in this disk  0x0002 [2]
031C 031D 0002 02 00       Total Entries         0x0002 [2]
031E 0321 0004 B7 00 00 00 Size of Central Dir   0x000000B7 [183]
0322 0325 0004 5B 02 00 00 Offset to Central Dir 0x0000025B [603]
0326 0327 0002 00 00       Comment Length        0x0000 [0]
#
# Done
