
0000 0003 0004 50 4B 03 04 LOCAL HEADER #1       67324752 (0x4034B50)
0004 0004 0001 3F          Extract Zip Spec      63 (0x3F) '6.3'
0005 0005 0001 00          Extract OS            0 (0x0) 'MS-DOS'
0006 0007 0002 00 08       General Purpose Flag  2048 (0x800)
                           [Bit 11]              1 'Language Encoding'
0008 0009 0002 62 00       Compression Method    98 (0x62) 'PPMd version I, Rev 1'
000A 000D 0004 D3 78 F6 54 Last Mod Time         1425438931 (0x54F678D3) 'Fri Jul 22 15:06:38 2022'
000E 0011 0004 FF E7 0E F9 CRC                   4178503679 (0xF90EE7FF)
0012 0015 0004 06 01 00 00 Compressed Length     262 (0x106)
0016 0019 0004 BE 01 00 00 Uncompressed Length   446 (0x1BE)
001A 001B 0002 09 00       Filename Length       9 (0x9)
001C 001D 0002 00 00       Extra Length          0 (0x0)
001E 0026 0009 6C 6F 72 65 Filename              'lorem.txt'
               6D 2E 74 78
               74
0027 012C 0106 ...         PAYLOAD

012D 0130 0004 50 4B 03 04 LOCAL HEADER #2       67324752 (0x4034B50)
0131 0131 0001 3F          Extract Zip Spec      63 (0x3F) '6.3'
0132 0132 0001 00          Extract OS            0 (0x0) 'MS-DOS'
0133 0134 0002 00 08       General Purpose Flag  2048 (0x800)
                           [Bit 11]              1 'Language Encoding'
0135 0136 0002 62 00       Compression Method    98 (0x62) 'PPMd version I, Rev 1'
0137 013A 0004 A5 6E FD 54 Last Mod Time         1425895077 (0x54FD6EA5) 'Fri Jul 29 13:53:10 2022'
013B 013E 0004 3C C8 F5 41 CRC                   1106626620 (0x41F5C83C)
013F 0142 0004 06 01 00 00 Compressed Length     262 (0x106)
0143 0146 0004 BF 01 00 00 Uncompressed Length   447 (0x1BF)
0147 0148 0002 0A 00       Filename Length       10 (0xA)
0149 014A 0002 00 00       Extra Length          0 (0x0)
014B 0154 000A 6C 6F 72 65 Filename              'lorem2.txt'
               6D 32 2E 74
               78 74
0155 025A 0106 ...         PAYLOAD

025B 025E 0004 50 4B 01 02 CENTRAL HEADER #1     33639248 (0x2014B50)
025F 025F 0001 41          Created Zip Spec      65 (0x41) '6.5'
0260 0260 0001 00          Created OS            0 (0x0) 'MS-DOS'
0261 0261 0001 3F          Extract Zip Spec      63 (0x3F) '6.3'
0262 0262 0001 00          Extract OS            0 (0x0) 'MS-DOS'
0263 0264 0002 00 08       General Purpose Flag  2048 (0x800)
                           [Bit 11]              1 'Language Encoding'
0265 0266 0002 62 00       Compression Method    98 (0x62) 'PPMd version I, Rev 1'
0267 026A 0004 D3 78 F6 54 Last Mod Time         1425438931 (0x54F678D3) 'Fri Jul 22 15:06:38 2022'
026B 026E 0004 FF E7 0E F9 CRC                   4178503679 (0xF90EE7FF)
026F 0272 0004 06 01 00 00 Compressed Length     262 (0x106)
0273 0276 0004 BE 01 00 00 Uncompressed Length   446 (0x1BE)
0277 0278 0002 09 00       Filename Length       9 (0x9)
0279 027A 0002 24 00       Extra Length          36 (0x24)
027B 027C 0002 00 00       Comment Length        0 (0x0)
027D 027E 0002 00 00       Disk Start            0 (0x0)
027F 0280 0002 01 00       Int File Attributes   1 (0x1)
                           [Bit 0]               1 'Text Data'
0281 0284 0004 20 00 00 00 Ext File Attributes   32 (0x20)
                           [Bit 5]               Archive
0285 0288 0004 00 00 00 00 Local Header Offset   0 (0x0)
0289 0291 0009 6C 6F 72 65 Filename              'lorem.txt'
               6D 2E 74 78
               74
0292 0293 0002 0A 00       Extra ID #1           10 (0xA) 'NTFS FileTimes'
0294 0295 0002 20 00         Length              32 (0x20)
0296 0299 0004 00 00 00 00   Reserved            0 (0x0)
029A 029B 0002 01 00         Tag1                1 (0x1)
029C 029D 0002 18 00         Size1               24 (0x18)
029E 02A5 0008 00 6B 65 42   Mtime               133029723980000000 (0x1D89DD442656B00) 'Fri Jul 22 14:06:38 2022 0ns'
               D4 9D D8 01
02A6 02AD 0008 A2 97 3A E1   Atime               133037294377146274 (0x1D8A4B6E13A97A2) 'Sun Jul 31 08:23:57 2022 714627400ns'
               B6 A4 D8 01
02AE 02B5 0008 1D FB 7D DB   Ctime               133031423060605725 (0x1D89F5FDB7DFB1D) 'Sun Jul 24 13:18:26 2022 60572500ns'
               5F 9F D8 01

02B6 02B9 0004 50 4B 01 02 CENTRAL HEADER #2     33639248 (0x2014B50)
02BA 02BA 0001 41          Created Zip Spec      65 (0x41) '6.5'
02BB 02BB 0001 00          Created OS            0 (0x0) 'MS-DOS'
02BC 02BC 0001 3F          Extract Zip Spec      63 (0x3F) '6.3'
02BD 02BD 0001 00          Extract OS            0 (0x0) 'MS-DOS'
02BE 02BF 0002 00 08       General Purpose Flag  2048 (0x800)
                           [Bit 11]              1 'Language Encoding'
02C0 02C1 0002 62 00       Compression Method    98 (0x62) 'PPMd version I, Rev 1'
02C2 02C5 0004 A5 6E FD 54 Last Mod Time         1425895077 (0x54FD6EA5) 'Fri Jul 29 13:53:10 2022'
02C6 02C9 0004 3C C8 F5 41 CRC                   1106626620 (0x41F5C83C)
02CA 02CD 0004 06 01 00 00 Compressed Length     262 (0x106)
02CE 02D1 0004 BF 01 00 00 Uncompressed Length   447 (0x1BF)
02D2 02D3 0002 0A 00       Filename Length       10 (0xA)
02D4 02D5 0002 24 00       Extra Length          36 (0x24)
02D6 02D7 0002 00 00       Comment Length        0 (0x0)
02D8 02D9 0002 00 00       Disk Start            0 (0x0)
02DA 02DB 0002 01 00       Int File Attributes   1 (0x1)
                           [Bit 0]               1 'Text Data'
02DC 02DF 0004 20 00 00 00 Ext File Attributes   32 (0x20)
                           [Bit 5]               Archive
02E0 02E3 0004 2D 01 00 00 Local Header Offset   301 (0x12D)
02E4 02ED 000A 6C 6F 72 65 Filename              'lorem2.txt'
               6D 32 2E 74
               78 74
02EE 02EF 0002 0A 00       Extra ID #1           10 (0xA) 'NTFS FileTimes'
02F0 02F1 0002 20 00         Length              32 (0x20)
02F2 02F5 0004 00 00 00 00   Reserved            0 (0x0)
02F6 02F7 0002 01 00         Tag1                1 (0x1)
02F8 02F9 0002 18 00         Size1               24 (0x18)
02FA 0301 0008 14 EA 72 27   Mtime               133035727892179476 (0x1D8A34A2772EA14) 'Fri Jul 29 12:53:09 2022 217947600ns'
               4A A3 D8 01
0302 0309 0008 A2 97 3A E1   Atime               133037294377146274 (0x1D8A4B6E13A97A2) 'Sun Jul 31 08:23:57 2022 714627400ns'
               B6 A4 D8 01
030A 0311 0008 C3 C8 58 21   Ctime               133035727789803715 (0x1D8A34A2158C8C3) 'Fri Jul 29 12:52:58 2022 980371500ns'
               4A A3 D8 01

0312 0315 0004 50 4B 05 06 END CENTRAL HEADER    101010256 (0x6054B50)
0316 0317 0002 00 00       Number of this disk   0 (0x0)
0318 0319 0002 00 00       Central Dir Disk no   0 (0x0)
031A 031B 0002 02 00       Entries in this disk  2 (0x2)
031C 031D 0002 02 00       Total Entries         2 (0x2)
031E 0321 0004 B7 00 00 00 Size of Central Dir   183 (0xB7)
0322 0325 0004 5B 02 00 00 Offset to Central Dir 603 (0x25B)
0326 0327 0002 00 00       Comment Length        0 (0x0)
#
# Done
