
0000 0003 0004 50 4B 03 04 LOCAL HEADER #1       67324752 (0x4034B50)
0004 0004 0001 14          Extract Zip Spec      20 (0x14) '2.0'
0005 0005 0001 00          Extract OS            0 (0x0) 'MS-DOS'
0006 0007 0002 00 08       General Purpose Flag  2048 (0x800)
                           [Bits 1-2]            0 'Normal Compression'
                           [Bit 11]              1 'Language Encoding'
0008 0009 0002 08 00       Compression Method    8 (0x8) 'Deflated'
000A 000D 0004 28 5B 68 56 Last Mod Time         1449679656 (0x56685B28) 'Wed Mar  8 11:25:16 2023'
000E 0011 0004 11 CD 82 ED CRC                   3984772369 (0xED82CD11)
0012 0015 0004 06 00 00 00 Compressed Length     6 (0x6)
0016 0019 0004 04 00 00 00 Uncompressed Length   4 (0x4)
001A 001B 0002 01 00       Filename Length       1 (0x1)
001C 001D 0002 00 00       Extra Length          0 (0x0)
001E 001E 0001 F0          Filename              'π'
001F 0024 0006 4B 4C 4A 4E PAYLOAD               KLJN..
               01 00

0025 0028 0004 50 4B 01 02 CENTRAL HEADER #1     33639248 (0x2014B50)
0029 0029 0001 14          Created Zip Spec      20 (0x14) '2.0'
002A 002A 0001 03          Created OS            3 (0x3) 'Unix'
002B 002B 0001 14          Extract Zip Spec      20 (0x14) '2.0'
002C 002C 0001 00          Extract OS            0 (0x0) 'MS-DOS'
002D 002E 0002 00 08       General Purpose Flag  2048 (0x800)
                           [Bits 1-2]            0 'Normal Compression'
                           [Bit 11]              1 'Language Encoding'
002F 0030 0002 08 00       Compression Method    8 (0x8) 'Deflated'
0031 0034 0004 28 5B 68 56 Last Mod Time         1449679656 (0x56685B28) 'Wed Mar  8 11:25:16 2023'
0035 0038 0004 11 CD 82 ED CRC                   3984772369 (0xED82CD11)
0039 003C 0004 06 00 00 00 Compressed Length     6 (0x6)
003D 0040 0004 04 00 00 00 Uncompressed Length   4 (0x4)
0041 0042 0002 01 00       Filename Length       1 (0x1)
0043 0044 0002 00 00       Extra Length          0 (0x0)
0045 0046 0002 00 00       Comment Length        0 (0x0)
0047 0048 0002 00 00       Disk Start            0 (0x0)
0049 004A 0002 00 00       Int File Attributes   0 (0x0)
                           [Bit 0]               0 'Binary Data'
004B 004E 0004 00 00 A4 81 Ext File Attributes   2175008768 (0x81A40000)
                           [Bits 16-24]          420 (0x1A4) 'Unix attrib: rw-r--r--'
                           [Bits 28-31]          8 (0x8) 'Regular File'
004F 0052 0004 00 00 00 00 Local Header Offset   0 (0x0)
0053 0053 0001 F0          Filename              'π'

0054 0057 0004 50 4B 05 06 END CENTRAL HEADER    101010256 (0x6054B50)
0058 0059 0002 00 00       Number of this disk   0 (0x0)
005A 005B 0002 00 00       Central Dir Disk no   0 (0x0)
005C 005D 0002 01 00       Entries in this disk  1 (0x1)
005E 005F 0002 01 00       Total Entries         1 (0x1)
0060 0063 0004 2F 00 00 00 Size of Central Dir   47 (0x2F)
0064 0067 0004 25 00 00 00 Offset to Central Dir 37 (0x25)
0068 0069 0002 00 00       Comment Length        0 (0x0)
#
# Done
