
0000 0003 0004 50 4B 03 04 LOCAL HEADER #1       67324752 (0x4034B50)
0004 0004 0001 0A          Extract Zip Spec      10 (0xA) '1.0'
0005 0005 0001 00          Extract OS            0 (0x0) 'MS-DOS'
0006 0007 0002 08 00       General Purpose Flag  8 (0x8)
                           [Bit  3]              1 'Streamed'
0008 0009 0002 00 00       Compression Method    0 (0x0) 'Stored'
000A 000D 0004 10 B8 88 55 Last Mod Time         1435023376 (0x5588B810) 'Thu Dec  8 23:00:32 2022'
000E 0011 0004 00 00 00 00 CRC                   0 (0x0)
0012 0015 0004 82 01 00 00 Compressed Length     386 (0x182)
0016 0019 0004 82 01 00 00 Uncompressed Length   386 (0x182)
001A 001B 0002 09 00       Filename Length       9 (0x9)
001C 001D 0002 00 00       Extra Length          0 (0x0)
001E 0026 0009 69 6E 6E 65 Filename              'inner.zip'
               72 2E 7A 69
               70
0027 01A8 0182 ...         PAYLOAD

01A9 01AC 0004 50 4B 07 08 DATA DESCRIPTOR       134695760 (0x8074B50)
01AD 01B0 0004 5D 98 6D B6 CRC                   3060635741 (0xB66D985D)
01B1 01B4 0004 82 01 00 00 Compressed Length     386 (0x182)
01B5 01B8 0004 82 01 00 00 Uncompressed Length   386 (0x182)

01B9 01BC 0004 50 4B 01 02 CENTRAL HEADER #1     33639248 (0x2014B50)
01BD 01BD 0001 1E          Created Zip Spec      30 (0x1E) '3.0'
01BE 01BE 0001 03          Created OS            3 (0x3) 'Unix'
01BF 01BF 0001 0A          Extract Zip Spec      10 (0xA) '1.0'
01C0 01C0 0001 00          Extract OS            0 (0x0) 'MS-DOS'
01C1 01C2 0002 08 00       General Purpose Flag  8 (0x8)
                           [Bit  3]              1 'Streamed'
01C3 01C4 0002 00 00       Compression Method    0 (0x0) 'Stored'
01C5 01C8 0004 10 B8 88 55 Last Mod Time         1435023376 (0x5588B810) 'Thu Dec  8 23:00:32 2022'
01C9 01CC 0004 5D 98 6D B6 CRC                   3060635741 (0xB66D985D)
01CD 01D0 0004 82 01 00 00 Compressed Length     386 (0x182)
01D1 01D4 0004 82 01 00 00 Uncompressed Length   386 (0x182)
01D5 01D6 0002 09 00       Filename Length       9 (0x9)
01D7 01D8 0002 00 00       Extra Length          0 (0x0)
01D9 01DA 0002 00 00       Comment Length        0 (0x0)
01DB 01DC 0002 00 00       Disk Start            0 (0x0)
01DD 01DE 0002 00 00       Int File Attributes   0 (0x0)
                           [Bit 0]               0 'Binary Data'
01DF 01E2 0004 00 00 B4 81 Ext File Attributes   2176057344 (0x81B40000)
                           [Bits 16-24]          436 (0x1B4) 'Unix attrib: rw-rw-r--'
                           [Bits 28-31]          8 (0x8) 'Regular File'
01E3 01E6 0004 00 00 00 00 Local Header Offset   0 (0x0)
01E7 01EF 0009 69 6E 6E 65 Filename              'inner.zip'
               72 2E 7A 69
               70

01F0 01F3 0004 50 4B 05 06 END CENTRAL HEADER    101010256 (0x6054B50)
01F4 01F5 0002 00 00       Number of this disk   0 (0x0)
01F6 01F7 0002 00 00       Central Dir Disk no   0 (0x0)
01F8 01F9 0002 01 00       Entries in this disk  1 (0x1)
01FA 01FB 0002 01 00       Total Entries         1 (0x1)
01FC 01FF 0004 37 00 00 00 Size of Central Dir   55 (0x37)
0200 0203 0004 B9 01 00 00 Offset to Central Dir 441 (0x1B9)
0204 0205 0002 00 00       Comment Length        0 (0x0)
#
# Done
