
0000 0003 0004 50 4B 03 04 LOCAL HEADER #1       04034B50
0004 0004 0001 14          Extract Zip Spec      14 '2.0'
0005 0005 0001 03          Extract OS            03 'Unix'
0006 0007 0002 01 00       General Purpose Flag  0001
                           [Bit  0]              1 'Encryption'
                           [Bits 1-2]            0 'Normal Compression'
0008 0009 0002 08 00       Compression Method    0008 'Deflated'
000A 000D 0004 15 9E 89 52 Last Mod Time         52899E15 'Fri Apr  9 19:48:42 2021'
000E 0011 0004 FF E7 0E F9 CRC                   F90EE7FF
0012 0015 0004 16 01 00 00 Compressed Length     00000116
0016 0019 0004 BE 01 00 00 Uncompressed Length   000001BE
001A 001B 0002 09 00       Filename Length       0009
001C 001D 0002 00 00       Extra Length          0000
001E 0026 0009 6C 6F 72 65 Filename              'lorem.txt'
               6D 2E 74 78
               74
0027 013C 0116 ...         PAYLOAD

013D 0140 0004 50 4B 01 02 CENTRAL HEADER #1     02014B50
0141 0141 0001 3F          Created Zip Spec      3F '6.3'
0142 0142 0001 03          Created OS            03 'Unix'
0143 0143 0001 14          Extract Zip Spec      14 '2.0'
0144 0144 0001 03          Extract OS            03 'Unix'
0145 0146 0002 01 00       General Purpose Flag  0001
                           [Bit  0]              1 'Encryption'
                           [Bits 1-2]            0 'Normal Compression'
0147 0148 0002 08 00       Compression Method    0008 'Deflated'
0149 014C 0004 15 9E 89 52 Last Mod Time         52899E15 'Fri Apr  9 19:48:42 2021'
014D 0150 0004 FF E7 0E F9 CRC                   F90EE7FF
0151 0154 0004 16 01 00 00 Compressed Length     00000116
0155 0158 0004 BE 01 00 00 Uncompressed Length   000001BE
0159 015A 0002 09 00       Filename Length       0009
015B 015C 0002 24 00       Extra Length          0024
015D 015E 0002 00 00       Comment Length        0000
015F 0160 0002 00 00       Disk Start            0000
0161 0162 0002 00 00       Int File Attributes   0000
                           [Bit 0]               0 'Binary Data'
0163 0166 0004 20 80 ED 81 Ext File Attributes   81ED8020
                           [Bit 5]               Archive
                           [Bits 11-15]          8000 'Unknown DOS attrib'
                           [Bits 16-24]          01ED 'Unix attrib: rwxr-xr-x'
                           [Bits 28-31]          08 'Regular File'
0167 016A 0004 00 00 00 00 Local Header Offset   00000000
016B 0173 0009 6C 6F 72 65 Filename              'lorem.txt'
               6D 2E 74 78
               74
0174 0175 0002 0A 00       Extra ID #0001        000A 'NTFS FileTimes'
0176 0177 0002 20 00         Length              0020
0178 017B 0004 00 00 00 00   Reserved            00000000
017C 017D 0002 01 00         Tag1                0001
017E 017F 0002 18 00         Size1               0018
0180 0187 0008 80 8A 8D F5   Mtime               01D72D70F58D8A80 'Fri Apr  9 18:48:41
               70 2D D7 01                       2021 0ns'
0188 018F 0008 00 F1 38 09   Atime               01D72D710938F100 'Fri Apr  9 18:49:14
               71 2D D7 01                       2021 0ns'
0190 0197 0008 80 8A 8D F5   Ctime               01D72D70F58D8A80 'Fri Apr  9 18:48:41
               70 2D D7 01                       2021 0ns'

0198 019B 0004 50 4B 05 06 END CENTRAL HEADER    06054B50
019C 019D 0002 00 00       Number of this disk   0000
019E 019F 0002 00 00       Central Dir Disk no   0000
01A0 01A1 0002 01 00       Entries in this disk  0001
01A2 01A3 0002 01 00       Total Entries         0001
01A4 01A7 0004 5B 00 00 00 Size of Central Dir   0000005B
01A8 01AB 0004 3D 01 00 00 Offset to Central Dir 0000013D
01AC 01AD 0002 00 00       Comment Length        0000
#
# Done
