
0000 0003 0004 50 4B 03 04 LOCAL HEADER #1       04034B50
0004 0004 0001 14          Extract Zip Spec      14 '2.0'
0005 0005 0001 00          Extract OS            00 'MS-DOS'
0006 0007 0002 00 00       General Purpose Flag  0000
                           [Bits 1-2]            0 'Normal Compression'
0008 0009 0002 08 00       Compression Method    0008 'Deflated'
000A 000D 0004 98 B3 F3 50 Last Mod Time         50F3B398 'Sun Jul 19 22:28:48 2020'
000E 0011 0004 9D F9 7A CA CRC                   CA7AF99D
0012 0015 0004 0B 00 00 00 Compressed Length     0000000B
0016 0019 0004 06 00 00 00 Uncompressed Length   00000006
001A 001B 0002 05 00       Filename Length       0005
001C 001D 0002 00 00       Extra Length          0000
001E 0022 0005 58 58 58 58 Filename              'XXXXX'
               58
0023 002D 000B 58 58 58 58 PAYLOAD               XXXXXXXXXXX
               58 58 58 58
               58 58 58

002E 0031 0004 50 4B 03 04 LOCAL HEADER #2       04034B50
0032 0032 0001 14          Extract Zip Spec      14 '2.0'
0033 0033 0001 00          Extract OS            00 'MS-DOS'
0034 0035 0002 00 00       General Purpose Flag  0000
                           [Bits 1-2]            0 'Normal Compression'
0036 0037 0002 08 00       Compression Method    0008 'Deflated'
0038 003B 0004 10 B4 F3 50 Last Mod Time         50F3B410 'Sun Jul 19 22:32:32 2020'
003C 003F 0004 9D F9 7A CA CRC                   CA7AF99D
0040 0043 0004 0B 00 00 00 Compressed Length     0000000B
0044 0047 0004 06 00 00 00 Uncompressed Length   00000006
0048 0049 0002 04 00       Filename Length       0004
004A 004B 0002 0E 00       Extra Length          000E
004C 004F 0004 58 58 58 58 Filename              'XXXX'
0050 0051 0002 75 70       Extra ID #0001        7075 'Unicode Path [up]'
0052 0053 0002 0A 00         Length              000A
0054 0054 0001 01            Version             01
0055 0058 0004 F5 A7 E1 D1   NameCRC32           D1E1A7F5
0059 005D 0005 58 58 58 58   UnicodeName         'XXXXX'
               58
005E 0068 000B 58 58 58 58 PAYLOAD               XXXXXXXXXXX
               58 58 58 58
               58 58 58

0069 006C 0004 50 4B 01 02 CENTRAL HEADER #1     02014B50
006D 006D 0001 14          Created Zip Spec      14 '2.0'
006E 006E 0001 00          Created OS            00 'MS-DOS'
006F 006F 0001 14          Extract Zip Spec      14 '2.0'
0070 0070 0001 00          Extract OS            00 'MS-DOS'
0071 0072 0002 00 00       General Purpose Flag  0000
                           [Bits 1-2]            0 'Normal Compression'
0073 0074 0002 08 00       Compression Method    0008 'Deflated'
0075 0078 0004 98 B3 F3 50 Last Mod Time         50F3B398 'Sun Jul 19 22:28:48 2020'
0079 007C 0004 9D F9 7A CA CRC                   CA7AF99D
007D 0080 0004 0B 00 00 00 Compressed Length     0000000B
0081 0084 0004 06 00 00 00 Uncompressed Length   00000006
0085 0086 0002 05 00       Filename Length       0005
0087 0088 0002 00 00       Extra Length          0000
0089 008A 0002 00 00       Comment Length        0000
008B 008C 0002 00 00       Disk Start            0000
008D 008E 0002 01 00       Int File Attributes   0001
                           [Bit 0]               1 'Text Data'
008F 0092 0004 20 00 00 00 Ext File Attributes   00000020
                           [Bit 5]               Archive
0093 0096 0004 00 00 00 00 Local Header Offset   00000000
0097 009B 0005 58 58 58 58 Filename              'XXXXX'
               58

009C 009F 0004 50 4B 01 02 CENTRAL HEADER #2     02014B50
00A0 00A0 0001 14          Created Zip Spec      14 '2.0'
00A1 00A1 0001 00          Created OS            00 'MS-DOS'
00A2 00A2 0001 14          Extract Zip Spec      14 '2.0'
00A3 00A3 0001 00          Extract OS            00 'MS-DOS'
00A4 00A5 0002 00 00       General Purpose Flag  0000
                           [Bits 1-2]            0 'Normal Compression'
00A6 00A7 0002 08 00       Compression Method    0008 'Deflated'
00A8 00AB 0004 10 B4 F3 50 Last Mod Time         50F3B410 'Sun Jul 19 22:32:32 2020'
00AC 00AF 0004 9D F9 7A CA CRC                   CA7AF99D
00B0 00B3 0004 0B 00 00 00 Compressed Length     0000000B
00B4 00B7 0004 06 00 00 00 Uncompressed Length   00000006
00B8 00B9 0002 04 00       Filename Length       0004
00BA 00BB 0002 0E 00       Extra Length          000E
00BC 00BD 0002 00 00       Comment Length        0000
00BE 00BF 0002 00 00       Disk Start            0000
00C0 00C1 0002 01 00       Int File Attributes   0001
                           [Bit 0]               1 'Text Data'
00C2 00C5 0004 20 00 00 00 Ext File Attributes   00000020
                           [Bit 5]               Archive
00C6 00C9 0004 2E 00 00 00 Local Header Offset   0000002E
00CA 00CD 0004 58 58 58 58 Filename              'XXXX'
00CE 00CF 0002 75 70       Extra ID #0001        7075 'Unicode Path [up]'
00D0 00D1 0002 0A 00         Length              000A
00D2 00D2 0001 01            Version             01
00D3 00D6 0004 F5 A7 E1 D1   NameCRC32           D1E1A7F5
00D7 00DB 0005 58 58 58 58   UnicodeName         'XXXXX'
               58

00DC 00DF 0004 50 4B 05 06 END CENTRAL HEADER    06054B50
00E0 00E1 0002 00 00       Number of this disk   0000
00E2 00E3 0002 00 00       Central Dir Disk no   0000
00E4 00E5 0002 02 00       Entries in this disk  0002
00E6 00E7 0002 02 00       Total Entries         0002
00E8 00EB 0004 73 00 00 00 Size of Central Dir   00000073
00EC 00EF 0004 69 00 00 00 Offset to Central Dir 00000069
00F0 00F1 0002 00 00       Comment Length        0000
#
# Done
