
0000 0004 50 4B 03 04 LOCAL HEADER #1       04034B50
0004 0001 14          Extract Zip Spec      14 '2.0'
0005 0001 00          Extract OS            00 'MS-DOS'
0006 0002 00 00       General Purpose Flag  0000
                      [Bits 1-2]            0 'Normal Compression'
0008 0002 08 00       Compression Method    0008 'Deflated'
000A 0004 F5 54 28 55 Last Mod Time         552854F5 'Thu Sep  8 10:39:42 2022'
000E 0004 FF E7 0E F9 CRC                   F90EE7FF
0012 0004 0A 01 00 00 Compressed Length     0000010A
0016 0004 BE 01 00 00 Uncompressed Length   000001BE
001A 0002 08 00       Filename Length       0008
001C 0002 12 00       Extra Length          0012
001E 0008 43 61 66 82 Filename              'Caf‚.txt'
          2E 74 78 74
0026 0002 75 70       Extra ID #0001        7075 'Unicode Path [up]'
0028 0002 0E 00         Length              000E
002A 0001 01            Version             01
002B 0004 D9 0C E1 59   NameCRC32           59E10CD9
002F 0009 43 61 66 C3   UnicodeName         'CafÃ©.txt'
          A9 2E 74 78
          74
0038 010A ...         PAYLOAD

0142 0004 50 4B 01 02 CENTRAL HEADER #1     02014B50
0146 0001 14          Created Zip Spec      14 '2.0'
0147 0001 00          Created OS            00 'MS-DOS'
0148 0001 14          Extract Zip Spec      14 '2.0'
0149 0001 00          Extract OS            00 'MS-DOS'
014A 0002 00 00       General Purpose Flag  0000
                      [Bits 1-2]            0 'Normal Compression'
014C 0002 08 00       Compression Method    0008 'Deflated'
014E 0004 F5 54 28 55 Last Mod Time         552854F5 'Thu Sep  8 10:39:42 2022'
0152 0004 FF E7 0E F9 CRC                   F90EE7FF
0156 0004 0A 01 00 00 Compressed Length     0000010A
015A 0004 BE 01 00 00 Uncompressed Length   000001BE
015E 0002 08 00       Filename Length       0008
0160 0002 20 00       Extra Length          0020
0162 0002 04 00       Comment Length        0004
0164 0002 00 00       Disk Start            0000
0166 0002 01 00       Int File Attributes   0001
                      [Bit 0]               1 Text Data
0168 0004 20 00 00 00 Ext File Attributes   00000020
                      [Bit 5]               Archive
016C 0004 00 00 00 00 Local Header Offset   00000000
0170 0008 43 61 66 82 Filename              'Caf‚.txt'
          2E 74 78 74
0178 0002 75 70       Extra ID #0001        7075 'Unicode Path [up]'
017A 0002 0E 00         Length              000E
017C 0001 01            Version             01
017D 0004 D9 0C E1 59   NameCRC32           59E10CD9
0181 0009 43 61 66 C3   UnicodeName         'CafÃ©.txt'
          A9 2E 74 78
          74
018A 0002 75 63       Extra ID #0002        6375 'Unicode Comment [uc]'
018C 0002 0A 00         Length              000A
018E 0001 01            Version             01
018F 0004 00 00 00 00   ComCRC32            00000000
0193 0005 43 61 66 C3   UnicodeCom          'CafÃ©'
          A9
0198 0004 43 61 66 82 Comment               'Caf‚'

019C 0004 50 4B 05 06 END CENTRAL HEADER    06054B50
01A0 0002 00 00       Number of this disk   0000
01A2 0002 00 00       Central Dir Disk no   0000
01A4 0002 01 00       Entries in this disk  0001
01A6 0002 01 00       Total Entries         0001
01A8 0004 5A 00 00 00 Size of Central Dir   0000005A
01AC 0004 42 01 00 00 Offset to Central Dir 00000142
01B0 0002 04 00       Comment Length        0004
01B2 0004 43 61 66 E9 Comment               'Café'
#
# Done
