
0000 0003 0004 50 4B 03 04 LOCAL HEADER #1       67324752 (0x4034B50)
0004 0004 0001 15          Extract Zip Spec      21 (0x15) '2.1'
0005 0005 0001 00          Extract OS            0 (0x0) 'MS-DOS'
0006 0007 0002 02 00       General Purpose Flag  2 (0x2)
0008 0009 0002 09 00       Compression Method    9 (0x9) 'Deflate64'
000A 000D 0004 E1 B2 F5 50 Last Mod Time         1358279393 (0x50F5B2E1) 'Tue Jul 21 22:23:02 2020'
000E 0011 0004 FF E7 0E F9 CRC                   4178503679 (0xF90EE7FF)
0012 0015 0004 09 01 00 00 Compressed Length     265 (0x109)
0016 0019 0004 BE 01 00 00 Uncompressed Length   446 (0x1BE)
001A 001B 0002 09 00       Filename Length       9 (0x9)
001C 001D 0002 00 00       Extra Length          0 (0x0)
001E 0026 0009 6C 6F 72 65 Filename              'lorem.txt'
               6D 2E 74 78
               74
0027 012F 0109 ...         PAYLOAD

0130 0133 0004 50 4B 01 02 CENTRAL HEADER #1     33639248 (0x2014B50)
0134 0134 0001 15          Created Zip Spec      21 (0x15) '2.1'
0135 0135 0001 00          Created OS            0 (0x0) 'MS-DOS'
0136 0136 0001 15          Extract Zip Spec      21 (0x15) '2.1'
0137 0137 0001 00          Extract OS            0 (0x0) 'MS-DOS'
0138 0139 0002 02 00       General Purpose Flag  2 (0x2)
013A 013B 0002 09 00       Compression Method    9 (0x9) 'Deflate64'
013C 013F 0004 E1 B2 F5 50 Last Mod Time         1358279393 (0x50F5B2E1) 'Tue Jul 21 22:23:02 2020'
0140 0143 0004 FF E7 0E F9 CRC                   4178503679 (0xF90EE7FF)
0144 0147 0004 09 01 00 00 Compressed Length     265 (0x109)
0148 014B 0004 BE 01 00 00 Uncompressed Length   446 (0x1BE)
014C 014D 0002 09 00       Filename Length       9 (0x9)
014E 014F 0002 00 00       Extra Length          0 (0x0)
0150 0151 0002 00 00       Comment Length        0 (0x0)
0152 0153 0002 00 00       Disk Start            0 (0x0)
0154 0155 0002 01 00       Int File Attributes   1 (0x1)
                           [Bit 0]               1 'Text Data'
0156 0159 0004 20 00 00 00 Ext File Attributes   32 (0x20)
                           [Bit 5]               Archive
015A 015D 0004 00 00 00 00 Local Header Offset   0 (0x0)
015E 0166 0009 6C 6F 72 65 Filename              'lorem.txt'
               6D 2E 74 78
               74

0167 016A 0004 50 4B 05 06 END CENTRAL HEADER    101010256 (0x6054B50)
016B 016C 0002 00 00       Number of this disk   0 (0x0)
016D 016E 0002 00 00       Central Dir Disk no   0 (0x0)
016F 0170 0002 01 00       Entries in this disk  1 (0x1)
0171 0172 0002 01 00       Total Entries         1 (0x1)
0173 0176 0004 37 00 00 00 Size of Central Dir   55 (0x37)
0177 017A 0004 30 01 00 00 Offset to Central Dir 304 (0x130)
017B 017C 0002 00 00       Comment Length        0 (0x0)
#
# Done
