
0000 0004 50 4B 03 04 LOCAL HEADER #1       04034B50
0004 0001 14          Extract Zip Spec      14 '2.0'
0005 0001 00          Extract OS            00 'MS-DOS'
0006 0002 00 00       General Purpose Flag  0000
0008 0002 12 00       Compression Method    0012 'IBM/TERSE or Xceed BWT'
000A 0004 30 86 EA 4E Last Mod Time         4EEA8630 'Wed Jul 10 16:49:32 2019'
000E 0004 6B 2B F1 09 CRC                   09F12B6B
0012 0004 25 00 00 00 Compressed Length     00000025
0016 0004 16 00 00 00 Uncompressed Length   00000016
001A 0002 0F 00       Filename Length       000F
001C 0002 8F 00       Extra Length          008F
001E 000F 58 58 2F 58 Filename              'XX/XXXXXXXXXXXX'
          58 58 58 58
          58 58 58 58
          58 58 58
002D 0002 53 44       Extra ID #0001        4453 'Windows NT security descriptor
                                            [SD]'
002F 0002 63 00         Length              0063
0031 0004 AC 00 00 00   Uncompressed Size   000000AC
0035 0001 00            Version             00
0036 0002 08 00         CType               0008 'Deflated'
0038 0004 B9 7D BD 37   CRC                 37BD7DB9
003C 0058 63 64 60 69   Extra Payload       63 64 60 69 10 61 60 60 30 60 80 00
          10 61 60 60                       1F 20 66 64 05 33 59 45 81 C4 9B 15
          30 60 80 00                       D6 C7 25 B3 03 5C 97 C9 D5 6E 7D CF
          1F 20 66 64                       8C 5F 8E 89 21 81 81 05 2C 2D C1 F0
          05 33 59 45                       9F 51 9E 81 91 09 A2 56 01 48 28 80
          81 C4 9B 15                       D9 22 10 71 46 88 B8 10 03 44 6C 3F
          D6 C7 25 B3                       A3 30 5C 8C 1B AA 7F 25 83 10 8A 7E
          03 5C 97 C9                       45 20 1B 00
          D5 6E 7D CF
          8C 5F 8E 89
          21 81 81 05
          2C 2D C1 F0
          9F 51 9E 81
          91 09 A2 56
          01 48 28 80
          D9 22 10 71
          46 88 B8 10
          03 44 6C 3F
          A3 30 5C 8C
          1B AA 7F 25
          83 10 8A 7E
          45 20 1B 00
0094 0002 4E 55       Extra ID #0002        554E 'Xceed unicode extra field [UN]'
0096 0002 24 00         Length              0024
0098 0004 4E 55 43 58   ID                  NUCX
009C 0002 0F 00         Length              000F
009E 001E 58 58 58 58   UTF16LE Name        'XXXXXXXXXXXXXXX'
          58 58 58 58
          58 58 58 58
          58 58 58 58
          58 58 58 58
          58 58 58 58
          58 58 58 58
          58 58
00BC 0025 58 58 58 58 PAYLOAD               XXXXXXXXXXXXXXXXXXXXXXXXXXXXXXXXXXXXX
          58 58 58 58
          58 58 58 58
          58 58 58 58
          58 58 58 58
          58 58 58 58
          58 58 58 58
          58 58 58 58
          58 58 58 58
          58

00E1 0004 50 4B 03 04 LOCAL HEADER #2       04034B50
00E5 0001 14          Extract Zip Spec      14 '2.0'
00E6 0001 00          Extract OS            00 'MS-DOS'
00E7 0002 00 00       General Purpose Flag  0000
00E9 0002 12 00       Compression Method    0012 'IBM/TERSE or Xceed BWT'
00EB 0004 2F 84 AE 46 Last Mod Time         46AE842F 'Thu May 14 16:33:30 2015'
00EF 0004 0B 30 0D 48 CRC                   480D300B
00F3 0004 23 00 00 00 Compressed Length     00000023
00F7 0004 15 00 00 00 Uncompressed Length   00000015
00FB 0002 0F 00       Filename Length       000F
00FD 0002 8F 00       Extra Length          008F
00FF 000F 58 58 2F 58 Filename              'XX/XXXXXXXXXXXX'
          58 58 58 58
          58 58 58 58
          58 58 58
010E 0002 53 44       Extra ID #0001        4453 'Windows NT security descriptor
                                            [SD]'
0110 0002 63 00         Length              0063
0112 0004 AC 00 00 00   Uncompressed Size   000000AC
0116 0001 00            Version             00
0117 0002 08 00         CType               0008 'Deflated'
0119 0004 B9 7D BD 37   CRC                 37BD7DB9
011D 0058 63 64 60 69   Extra Payload       63 64 60 69 10 61 60 60 30 60 80 00
          10 61 60 60                       1F 20 66 64 05 33 59 45 81 C4 9B 15
          30 60 80 00                       D6 C7 25 B3 03 5C 97 C9 D5 6E 7D CF
          1F 20 66 64                       8C 5F 8E 89 21 81 81 05 2C 2D C1 F0
          05 33 59 45                       9F 51 9E 81 91 09 A2 56 01 48 28 80
          81 C4 9B 15                       D9 22 10 71 46 88 B8 10 03 44 6C 3F
          D6 C7 25 B3                       A3 30 5C 8C 1B AA 7F 25 83 10 8A 7E
          03 5C 97 C9                       45 20 1B 00
          D5 6E 7D CF
          8C 5F 8E 89
          21 81 81 05
          2C 2D C1 F0
          9F 51 9E 81
          91 09 A2 56
          01 48 28 80
          D9 22 10 71
          46 88 B8 10
          03 44 6C 3F
          A3 30 5C 8C
          1B AA 7F 25
          83 10 8A 7E
          45 20 1B 00
0175 0002 4E 55       Extra ID #0002        554E 'Xceed unicode extra field [UN]'
0177 0002 24 00         Length              0024
0179 0004 4E 55 43 58   ID                  NUCX
017D 0002 0F 00         Length              000F
017F 001E 58 58 58 58   UTF16LE Name        'XXXXXXXXXXXXXXX'
          58 58 58 58
          58 58 58 58
          58 58 58 58
          58 58 58 58
          58 58 58 58
          58 58 58 58
          58 58
019D 0023 58 58 58 58 PAYLOAD               XXXXXXXXXXXXXXXXXXXXXXXXXXXXXXXXXXX
          58 58 58 58
          58 58 58 58
          58 58 58 58
          58 58 58 58
          58 58 58 58
          58 58 58 58
          58 58 58 58
          58 58 58

01C0 0004 50 4B 03 04 LOCAL HEADER #3       04034B50
01C4 0001 14          Extract Zip Spec      14 '2.0'
01C5 0001 00          Extract OS            00 'MS-DOS'
01C6 0002 00 00       General Purpose Flag  0000
01C8 0002 12 00       Compression Method    0012 'IBM/TERSE or Xceed BWT'
01CA 0004 2F 84 AE 46 Last Mod Time         46AE842F 'Thu May 14 16:33:30 2015'
01CE 0004 0B 30 0D 48 CRC                   480D300B
01D2 0004 23 00 00 00 Compressed Length     00000023
01D6 0004 15 00 00 00 Uncompressed Length   00000015
01DA 0002 0F 00       Filename Length       000F
01DC 0002 8F 00       Extra Length          008F
01DE 000F 58 58 2F 58 Filename              'XX/XXXXXXXXXXXX'
          58 58 58 58
          58 58 58 58
          58 58 58
01ED 0002 53 44       Extra ID #0001        4453 'Windows NT security descriptor
                                            [SD]'
01EF 0002 63 00         Length              0063
01F1 0004 AC 00 00 00   Uncompressed Size   000000AC
01F5 0001 00            Version             00
01F6 0002 08 00         CType               0008 'Deflated'
01F8 0004 B9 7D BD 37   CRC                 37BD7DB9
01FC 0058 63 64 60 69   Extra Payload       63 64 60 69 10 61 60 60 30 60 80 00
          10 61 60 60                       1F 20 66 64 05 33 59 45 81 C4 9B 15
          30 60 80 00                       D6 C7 25 B3 03 5C 97 C9 D5 6E 7D CF
          1F 20 66 64                       8C 5F 8E 89 21 81 81 05 2C 2D C1 F0
          05 33 59 45                       9F 51 9E 81 91 09 A2 56 01 48 28 80
          81 C4 9B 15                       D9 22 10 71 46 88 B8 10 03 44 6C 3F
          D6 C7 25 B3                       A3 30 5C 8C 1B AA 7F 25 83 10 8A 7E
          03 5C 97 C9                       45 20 1B 00
          D5 6E 7D CF
          8C 5F 8E 89
          21 81 81 05
          2C 2D C1 F0
          9F 51 9E 81
          91 09 A2 56
          01 48 28 80
          D9 22 10 71
          46 88 B8 10
          03 44 6C 3F
          A3 30 5C 8C
          1B AA 7F 25
          83 10 8A 7E
          45 20 1B 00
0254 0002 4E 55       Extra ID #0002        554E 'Xceed unicode extra field [UN]'
0256 0002 24 00         Length              0024
0258 0004 4E 55 43 58   ID                  NUCX
025C 0002 0F 00         Length              000F
025E 001E 58 58 58 58   UTF16LE Name        'XXXXXXXXXXXXXXX'
          58 58 58 58
          58 58 58 58
          58 58 58 58
          58 58 58 58
          58 58 58 58
          58 58 58 58
          58 58
027C 0023 58 58 58 58 PAYLOAD               XXXXXXXXXXXXXXXXXXXXXXXXXXXXXXXXXXX
          58 58 58 58
          58 58 58 58
          58 58 58 58
          58 58 58 58
          58 58 58 58
          58 58 58 58
          58 58 58 58
          58 58 58

029F 0004 50 4B 03 04 LOCAL HEADER #4       04034B50
02A3 0001 14          Extract Zip Spec      14 '2.0'
02A4 0001 00          Extract OS            00 'MS-DOS'
02A5 0002 00 00       General Purpose Flag  0000
02A7 0002 12 00       Compression Method    0012 'IBM/TERSE or Xceed BWT'
02A9 0004 2F 84 AE 46 Last Mod Time         46AE842F 'Thu May 14 16:33:30 2015'
02AD 0004 0B 30 0D 48 CRC                   480D300B
02B1 0004 23 00 00 00 Compressed Length     00000023
02B5 0004 15 00 00 00 Uncompressed Length   00000015
02B9 0002 0F 00       Filename Length       000F
02BB 0002 8F 00       Extra Length          008F
02BD 000F 58 58 2F 58 Filename              'XX/XXXXXXXXXXXX'
          58 58 58 58
          58 58 58 58
          58 58 58
02CC 0002 53 44       Extra ID #0001        4453 'Windows NT security descriptor
                                            [SD]'
02CE 0002 63 00         Length              0063
02D0 0004 AC 00 00 00   Uncompressed Size   000000AC
02D4 0001 00            Version             00
02D5 0002 08 00         CType               0008 'Deflated'
02D7 0004 B9 7D BD 37   CRC                 37BD7DB9
02DB 0058 63 64 60 69   Extra Payload       63 64 60 69 10 61 60 60 30 60 80 00
          10 61 60 60                       1F 20 66 64 05 33 59 45 81 C4 9B 15
          30 60 80 00                       D6 C7 25 B3 03 5C 97 C9 D5 6E 7D CF
          1F 20 66 64                       8C 5F 8E 89 21 81 81 05 2C 2D C1 F0
          05 33 59 45                       9F 51 9E 81 91 09 A2 56 01 48 28 80
          81 C4 9B 15                       D9 22 10 71 46 88 B8 10 03 44 6C 3F
          D6 C7 25 B3                       A3 30 5C 8C 1B AA 7F 25 83 10 8A 7E
          03 5C 97 C9                       45 20 1B 00
          D5 6E 7D CF
          8C 5F 8E 89
          21 81 81 05
          2C 2D C1 F0
          9F 51 9E 81
          91 09 A2 56
          01 48 28 80
          D9 22 10 71
          46 88 B8 10
          03 44 6C 3F
          A3 30 5C 8C
          1B AA 7F 25
          83 10 8A 7E
          45 20 1B 00
0333 0002 4E 55       Extra ID #0002        554E 'Xceed unicode extra field [UN]'
0335 0002 24 00         Length              0024
0337 0004 4E 55 43 58   ID                  NUCX
033B 0002 0F 00         Length              000F
033D 001E 58 58 58 58   UTF16LE Name        'XXXXXXXXXXXXXXX'
          58 58 58 58
          58 58 58 58
          58 58 58 58
          58 58 58 58
          58 58 58 58
          58 58 58 58
          58 58
035B 0023 58 58 58 58 PAYLOAD               XXXXXXXXXXXXXXXXXXXXXXXXXXXXXXXXXXX
          58 58 58 58
          58 58 58 58
          58 58 58 58
          58 58 58 58
          58 58 58 58
          58 58 58 58
          58 58 58 58
          58 58 58

037E 0004 50 4B 03 04 LOCAL HEADER #5       04034B50
0382 0001 14          Extract Zip Spec      14 '2.0'
0383 0001 00          Extract OS            00 'MS-DOS'
0384 0002 00 00       General Purpose Flag  0000
0386 0002 12 00       Compression Method    0012 'IBM/TERSE or Xceed BWT'
0388 0004 2F 84 AE 46 Last Mod Time         46AE842F 'Thu May 14 16:33:30 2015'
038C 0004 0B 30 0D 48 CRC                   480D300B
0390 0004 23 00 00 00 Compressed Length     00000023
0394 0004 15 00 00 00 Uncompressed Length   00000015
0398 0002 0F 00       Filename Length       000F
039A 0002 8F 00       Extra Length          008F
039C 000F 58 58 2F 58 Filename              'XX/XXXXXXXXXXXX'
          58 58 58 58
          58 58 58 58
          58 58 58
03AB 0002 53 44       Extra ID #0001        4453 'Windows NT security descriptor
                                            [SD]'
03AD 0002 63 00         Length              0063
03AF 0004 AC 00 00 00   Uncompressed Size   000000AC
03B3 0001 00            Version             00
03B4 0002 08 00         CType               0008 'Deflated'
03B6 0004 B9 7D BD 37   CRC                 37BD7DB9
03BA 0058 63 64 60 69   Extra Payload       63 64 60 69 10 61 60 60 30 60 80 00
          10 61 60 60                       1F 20 66 64 05 33 59 45 81 C4 9B 15
          30 60 80 00                       D6 C7 25 B3 03 5C 97 C9 D5 6E 7D CF
          1F 20 66 64                       8C 5F 8E 89 21 81 81 05 2C 2D C1 F0
          05 33 59 45                       9F 51 9E 81 91 09 A2 56 01 48 28 80
          81 C4 9B 15                       D9 22 10 71 46 88 B8 10 03 44 6C 3F
          D6 C7 25 B3                       A3 30 5C 8C 1B AA 7F 25 83 10 8A 7E
          03 5C 97 C9                       45 20 1B 00
          D5 6E 7D CF
          8C 5F 8E 89
          21 81 81 05
          2C 2D C1 F0
          9F 51 9E 81
          91 09 A2 56
          01 48 28 80
          D9 22 10 71
          46 88 B8 10
          03 44 6C 3F
          A3 30 5C 8C
          1B AA 7F 25
          83 10 8A 7E
          45 20 1B 00
0412 0002 4E 55       Extra ID #0002        554E 'Xceed unicode extra field [UN]'
0414 0002 24 00         Length              0024
0416 0004 4E 55 43 58   ID                  NUCX
041A 0002 0F 00         Length              000F
041C 001E 58 58 58 58   UTF16LE Name        'XXXXXXXXXXXXXXX'
          58 58 58 58
          58 58 58 58
          58 58 58 58
          58 58 58 58
          58 58 58 58
          58 58 58 58
          58 58
043A 0023 58 58 58 58 PAYLOAD               XXXXXXXXXXXXXXXXXXXXXXXXXXXXXXXXXXX
          58 58 58 58
          58 58 58 58
          58 58 58 58
          58 58 58 58
          58 58 58 58
          58 58 58 58
          58 58 58 58
          58 58 58

045D 0004 50 4B 01 02 CENTRAL HEADER #1     02014B50
0461 0001 15          Created Zip Spec      15 '2.1'
0462 0001 00          Created OS            00 'MS-DOS'
0463 0001 14          Extract Zip Spec      14 '2.0'
0464 0001 00          Extract OS            00 'MS-DOS'
0465 0002 00 00       General Purpose Flag  0000
0467 0002 12 00       Compression Method    0012 'IBM/TERSE or Xceed BWT'
0469 0004 30 86 EA 4E Last Mod Time         4EEA8630 'Wed Jul 10 16:49:32 2019'
046D 0004 6B 2B F1 09 CRC                   09F12B6B
0471 0004 25 00 00 00 Compressed Length     00000025
0475 0004 16 00 00 00 Uncompressed Length   00000016
0479 0002 0F 00       Filename Length       000F
047B 0002 56 00       Extra Length          0056
047D 0002 00 00       Comment Length        0000
047F 0002 00 00       Disk Start            0000
0481 0002 00 00       Int File Attributes   0000
                      [Bit 0]               0 'Binary Data'
0483 0004 20 00 00 00 Ext File Attributes   00000020
                      [Bit 5]               Archive
0487 0004 00 00 00 00 Local Header Offset   00000000
048B 000F 58 58 2F 58 Filename              'XX/XXXXXXXXXXXX'
          58 58 58 58
          58 58 58 58
          58 58 58
049A 0002 0A 00       Extra ID #0001        000A 'NTFS FileTimes'
049C 0002 20 00         Length              0020
049E 0004 00 00 00 00   Reserved            00000000
04A2 0002 01 00         Tag1                0001
04A4 0002 18 00         Size1               0018
04A6 0008 80 07 7D C5   Mtime               01D53704C57D0780 'Wed Jul 10 09:49:31
          04 37 D5 01                       2019 0ns'
04AE 0008 80 07 7D C5   Atime               01D8A2849A90E700 'Thu Jul 28 13:19:02
          04 37 D5 01                       2022 0ns'
04B6 0008 00 E7 90 9A   Ctime               01D8A2849A90E700 'Thu Jul 28 13:19:02
          84 A2 D8 01                       2022 0ns'
04BE 0002 53 44       Extra ID #0002        4453 'Windows NT security descriptor
                                            [SD]'
04C0 0002 04 00         Length              0004
04C2 0004 AC 00 00 00   Uncompressed Size   000000AC
04C6 0002 4E 55       Extra ID #0003        554E 'Xceed unicode extra field [UN]'
04C8 0002 26 00         Length              0026
04CA 0004 4E 55 43 58   ID                  NUCX
04CE 0002 0F 00         Length              000F
04D0 0002 00 00         Null                0000
04D2 001E 58 58 58 58   UTF16LE Name        'XXXXXXXXXXXXXXX'
          58 58 58 58
          58 58 58 58
          58 58 58 58
          58 58 58 58
          58 58 58 58
          58 58 58 58
          58 58

04F0 0004 50 4B 01 02 CENTRAL HEADER #2     02014B50
04F4 0001 15          Created Zip Spec      15 '2.1'
04F5 0001 00          Created OS            00 'MS-DOS'
04F6 0001 14          Extract Zip Spec      14 '2.0'
04F7 0001 00          Extract OS            00 'MS-DOS'
04F8 0002 00 00       General Purpose Flag  0000
04FA 0002 12 00       Compression Method    0012 'IBM/TERSE or Xceed BWT'
04FC 0004 2F 84 AE 46 Last Mod Time         46AE842F 'Thu May 14 16:33:30 2015'
0500 0004 0B 30 0D 48 CRC                   480D300B
0504 0004 23 00 00 00 Compressed Length     00000023
0508 0004 15 00 00 00 Uncompressed Length   00000015
050C 0002 0F 00       Filename Length       000F
050E 0002 56 00       Extra Length          0056
0510 0002 00 00       Comment Length        0000
0512 0002 00 00       Disk Start            0000
0514 0002 00 00       Int File Attributes   0000
                      [Bit 0]               0 'Binary Data'
0516 0004 20 00 00 00 Ext File Attributes   00000020
                      [Bit 5]               Archive
051A 0004 E1 00 00 00 Local Header Offset   000000E1
051E 000F 58 58 2F 58 Filename              'XX/XXXXXXXXXXXX'
          58 58 58 58
          58 58 58 58
          58 58 58
052D 0002 0A 00       Extra ID #0001        000A 'NTFS FileTimes'
052F 0002 20 00         Length              0020
0531 0004 00 00 00 00   Reserved            00000000
0535 0002 01 00         Tag1                0001
0537 0002 18 00         Size1               0018
0539 0008 80 FA 06 09   Mtime               01D08E290906FA80 'Thu May 14 09:33:29
          29 8E D0 01                       2015 0ns'
0541 0008 80 FA 06 09   Atime               01D8A2849A90E700 'Thu Jul 28 13:19:02
          29 8E D0 01                       2022 0ns'
0549 0008 00 E7 90 9A   Ctime               01D8A2849A90E700 'Thu Jul 28 13:19:02
          84 A2 D8 01                       2022 0ns'
0551 0002 53 44       Extra ID #0002        4453 'Windows NT security descriptor
                                            [SD]'
0553 0002 04 00         Length              0004
0555 0004 AC 00 00 00   Uncompressed Size   000000AC
0559 0002 4E 55       Extra ID #0003        554E 'Xceed unicode extra field [UN]'
055B 0002 26 00         Length              0026
055D 0004 4E 55 43 58   ID                  NUCX
0561 0002 0F 00         Length              000F
0563 0002 00 00         Null                0000
0565 001E 58 58 58 58   UTF16LE Name        'XXXXXXXXXXXXXXX'
          58 58 58 58
          58 58 58 58
          58 58 58 58
          58 58 58 58
          58 58 58 58
          58 58 58 58
          58 58

0583 0004 50 4B 01 02 CENTRAL HEADER #3     02014B50
0587 0001 15          Created Zip Spec      15 '2.1'
0588 0001 00          Created OS            00 'MS-DOS'
0589 0001 14          Extract Zip Spec      14 '2.0'
058A 0001 00          Extract OS            00 'MS-DOS'
058B 0002 00 00       General Purpose Flag  0000
058D 0002 12 00       Compression Method    0012 'IBM/TERSE or Xceed BWT'
058F 0004 2F 84 AE 46 Last Mod Time         46AE842F 'Thu May 14 16:33:30 2015'
0593 0004 0B 30 0D 48 CRC                   480D300B
0597 0004 23 00 00 00 Compressed Length     00000023
059B 0004 15 00 00 00 Uncompressed Length   00000015
059F 0002 0F 00       Filename Length       000F
05A1 0002 56 00       Extra Length          0056
05A3 0002 00 00       Comment Length        0000
05A5 0002 00 00       Disk Start            0000
05A7 0002 00 00       Int File Attributes   0000
                      [Bit 0]               0 'Binary Data'
05A9 0004 20 00 00 00 Ext File Attributes   00000020
                      [Bit 5]               Archive
05AD 0004 C0 01 00 00 Local Header Offset   000001C0
05B1 000F 58 58 2F 58 Filename              'XX/XXXXXXXXXXXX'
          58 58 58 58
          58 58 58 58
          58 58 58
05C0 0002 0A 00       Extra ID #0001        000A 'NTFS FileTimes'
05C2 0002 20 00         Length              0020
05C4 0004 00 00 00 00   Reserved            00000000
05C8 0002 01 00         Tag1                0001
05CA 0002 18 00         Size1               0018
05CC 0008 80 FA 06 09   Mtime               01D08E290906FA80 'Thu May 14 09:33:29
          29 8E D0 01                       2015 0ns'
05D4 0008 80 FA 06 09   Atime               01D8A2849A90E700 'Thu Jul 28 13:19:02
          29 8E D0 01                       2022 0ns'
05DC 0008 00 E7 90 9A   Ctime               01D8A2849A90E700 'Thu Jul 28 13:19:02
          84 A2 D8 01                       2022 0ns'
05E4 0002 53 44       Extra ID #0002        4453 'Windows NT security descriptor
                                            [SD]'
05E6 0002 04 00         Length              0004
05E8 0004 AC 00 00 00   Uncompressed Size   000000AC
05EC 0002 4E 55       Extra ID #0003        554E 'Xceed unicode extra field [UN]'
05EE 0002 26 00         Length              0026
05F0 0004 4E 55 43 58   ID                  NUCX
05F4 0002 0F 00         Length              000F
05F6 0002 00 00         Null                0000
05F8 001E 58 58 58 58   UTF16LE Name        'XXXXXXXXXXXXXXX'
          58 58 58 58
          58 58 58 58
          58 58 58 58
          58 58 58 58
          58 58 58 58
          58 58 58 58
          58 58

0616 0004 50 4B 01 02 CENTRAL HEADER #4     02014B50
061A 0001 15          Created Zip Spec      15 '2.1'
061B 0001 00          Created OS            00 'MS-DOS'
061C 0001 14          Extract Zip Spec      14 '2.0'
061D 0001 00          Extract OS            00 'MS-DOS'
061E 0002 00 00       General Purpose Flag  0000
0620 0002 12 00       Compression Method    0012 'IBM/TERSE or Xceed BWT'
0622 0004 2F 84 AE 46 Last Mod Time         46AE842F 'Thu May 14 16:33:30 2015'
0626 0004 0B 30 0D 48 CRC                   480D300B
062A 0004 23 00 00 00 Compressed Length     00000023
062E 0004 15 00 00 00 Uncompressed Length   00000015
0632 0002 0F 00       Filename Length       000F
0634 0002 56 00       Extra Length          0056
0636 0002 00 00       Comment Length        0000
0638 0002 00 00       Disk Start            0000
063A 0002 00 00       Int File Attributes   0000
                      [Bit 0]               0 'Binary Data'
063C 0004 20 00 00 00 Ext File Attributes   00000020
                      [Bit 5]               Archive
0640 0004 9F 02 00 00 Local Header Offset   0000029F
0644 000F 58 58 2F 58 Filename              'XX/XXXXXXXXXXXX'
          58 58 58 58
          58 58 58 58
          58 58 58
0653 0002 0A 00       Extra ID #0001        000A 'NTFS FileTimes'
0655 0002 20 00         Length              0020
0657 0004 00 00 00 00   Reserved            00000000
065B 0002 01 00         Tag1                0001
065D 0002 18 00         Size1               0018
065F 0008 80 FA 06 09   Mtime               01D08E290906FA80 'Thu May 14 09:33:29
          29 8E D0 01                       2015 0ns'
0667 0008 80 FA 06 09   Atime               01D8A2849A90E700 'Thu Jul 28 13:19:02
          29 8E D0 01                       2022 0ns'
066F 0008 00 E7 90 9A   Ctime               01D8A2849A90E700 'Thu Jul 28 13:19:02
          84 A2 D8 01                       2022 0ns'
0677 0002 53 44       Extra ID #0002        4453 'Windows NT security descriptor
                                            [SD]'
0679 0002 04 00         Length              0004
067B 0004 AC 00 00 00   Uncompressed Size   000000AC
067F 0002 4E 55       Extra ID #0003        554E 'Xceed unicode extra field [UN]'
0681 0002 26 00         Length              0026
0683 0004 4E 55 43 58   ID                  NUCX
0687 0002 0F 00         Length              000F
0689 0002 00 00         Null                0000
068B 001E 58 58 58 58   UTF16LE Name        'XXXXXXXXXXXXXXX'
          58 58 58 58
          58 58 58 58
          58 58 58 58
          58 58 58 58
          58 58 58 58
          58 58 58 58
          58 58

06A9 0004 50 4B 01 02 CENTRAL HEADER #5     02014B50
06AD 0001 15          Created Zip Spec      15 '2.1'
06AE 0001 00          Created OS            00 'MS-DOS'
06AF 0001 14          Extract Zip Spec      14 '2.0'
06B0 0001 00          Extract OS            00 'MS-DOS'
06B1 0002 00 00       General Purpose Flag  0000
06B3 0002 12 00       Compression Method    0012 'IBM/TERSE or Xceed BWT'
06B5 0004 2F 84 AE 46 Last Mod Time         46AE842F 'Thu May 14 16:33:30 2015'
06B9 0004 0B 30 0D 48 CRC                   480D300B
06BD 0004 23 00 00 00 Compressed Length     00000023
06C1 0004 15 00 00 00 Uncompressed Length   00000015
06C5 0002 0F 00       Filename Length       000F
06C7 0002 56 00       Extra Length          0056
06C9 0002 00 00       Comment Length        0000
06CB 0002 00 00       Disk Start            0000
06CD 0002 00 00       Int File Attributes   0000
                      [Bit 0]               0 'Binary Data'
06CF 0004 20 00 00 00 Ext File Attributes   00000020
                      [Bit 5]               Archive
06D3 0004 7E 03 00 00 Local Header Offset   0000037E
06D7 000F 58 58 2F 58 Filename              'XX/XXXXXXXXXXXX'
          58 58 58 58
          58 58 58 58
          58 58 58
06E6 0002 0A 00       Extra ID #0001        000A 'NTFS FileTimes'
06E8 0002 20 00         Length              0020
06EA 0004 00 00 00 00   Reserved            00000000
06EE 0002 01 00         Tag1                0001
06F0 0002 18 00         Size1               0018
06F2 0008 80 FA 06 09   Mtime               01D08E290906FA80 'Thu May 14 09:33:29
          29 8E D0 01                       2015 0ns'
06FA 0008 80 FA 06 09   Atime               01D8A2849A90E700 'Thu Jul 28 13:19:02
          29 8E D0 01                       2022 0ns'
0702 0008 00 E7 90 9A   Ctime               01D8A2849A90E700 'Thu Jul 28 13:19:02
          84 A2 D8 01                       2022 0ns'
070A 0002 53 44       Extra ID #0002        4453 'Windows NT security descriptor
                                            [SD]'
070C 0002 04 00         Length              0004
070E 0004 AC 00 00 00   Uncompressed Size   000000AC
0712 0002 4E 55       Extra ID #0003        554E 'Xceed unicode extra field [UN]'
0714 0002 26 00         Length              0026
0716 0004 4E 55 43 58   ID                  NUCX
071A 0002 0F 00         Length              000F
071C 0002 00 00         Null                0000
071E 001E 58 58 58 58   UTF16LE Name        'XXXXXXXXXXXXXXX'
          58 58 58 58
          58 58 58 58
          58 58 58 58
          58 58 58 58
          58 58 58 58
          58 58 58 58
          58 58

073C 0004 50 4B 05 06 END CENTRAL HEADER    06054B50
0740 0002 00 00       Number of this disk   0000
0742 0002 00 00       Central Dir Disk no   0000
0744 0002 05 00       Entries in this disk  0005
0746 0002 05 00       Total Entries         0005
0748 0004 DF 02 00 00 Size of Central Dir   000002DF
074C 0004 5D 04 00 00 Offset to Central Dir 0000045D
0750 0002 00 00       Comment Length        0000
Done
