
0000 0003 0004 50 4B 03 04 LOCAL HEADER #1       67324752 (0x4034B50)
0004 0004 0001 15          Extract Zip Spec      21 (0x15) '2.1'
0005 0005 0001 03          Extract OS            3 (0x3) 'Unix'
0006 0007 0002 00 00       General Purpose Flag  0 (0x0)
0008 0009 0002 09 00       Compression Method    9 (0x9) 'Deflate64'
000A 000D 0004 15 9E 89 52 Last Mod Time         1384750613 (0x52899E15) 'Fri Apr  9 19:48:42 2021'
000E 0011 0004 FF E7 0E F9 CRC                   4178503679 (0xF90EE7FF)
0012 0015 0004 0A 01 00 00 Compressed Length     266 (0x10A)
0016 0019 0004 BE 01 00 00 Uncompressed Length   446 (0x1BE)
001A 001B 0002 09 00       Filename Length       9 (0x9)
001C 001D 0002 00 00       Extra Length          0 (0x0)
001E 0026 0009 6C 6F 72 65 Filename              'lorem.txt'
               6D 2E 74 78
               74
0027 0130 010A ...         PAYLOAD

0131 0134 0004 50 4B 01 02 CENTRAL HEADER #1     33639248 (0x2014B50)
0135 0135 0001 3F          Created Zip Spec      63 (0x3F) '6.3'
0136 0136 0001 03          Created OS            3 (0x3) 'Unix'
0137 0137 0001 15          Extract Zip Spec      21 (0x15) '2.1'
0138 0138 0001 03          Extract OS            3 (0x3) 'Unix'
0139 013A 0002 00 00       General Purpose Flag  0 (0x0)
013B 013C 0002 09 00       Compression Method    9 (0x9) 'Deflate64'
013D 0140 0004 15 9E 89 52 Last Mod Time         1384750613 (0x52899E15) 'Fri Apr  9 19:48:42 2021'
0141 0144 0004 FF E7 0E F9 CRC                   4178503679 (0xF90EE7FF)
0145 0148 0004 0A 01 00 00 Compressed Length     266 (0x10A)
0149 014C 0004 BE 01 00 00 Uncompressed Length   446 (0x1BE)
014D 014E 0002 09 00       Filename Length       9 (0x9)
014F 0150 0002 24 00       Extra Length          36 (0x24)
0151 0152 0002 00 00       Comment Length        0 (0x0)
0153 0154 0002 00 00       Disk Start            0 (0x0)
0155 0156 0002 00 00       Int File Attributes   0 (0x0)
                           [Bit 0]               0 'Binary Data'
0157 015A 0004 20 80 ED 81 Ext File Attributes   2179825696 (0x81ED8020)
                           [Bit 5]               Archive
                           [Bits 11-15]          32768 (0x8000) 'Unknown DOS attrib'
                           [Bits 16-24]          493 (0x1ED) 'Unix attrib: rwxr-xr-x'
                           [Bits 28-31]          8 (0x8) 'Regular File'
015B 015E 0004 00 00 00 00 Local Header Offset   0 (0x0)
015F 0167 0009 6C 6F 72 65 Filename              'lorem.txt'
               6D 2E 74 78
               74
0168 0169 0002 0A 00       Extra ID #1           10 (0xA) 'NTFS FileTimes'
016A 016B 0002 20 00         Length              32 (0x20)
016C 016F 0004 00 00 00 00   Reserved            0 (0x0)
0170 0171 0002 01 00         Tag1                1 (0x1)
0172 0173 0002 18 00         Size1               24 (0x18)
0174 017B 0008 80 8A 8D F5   Mtime               132624677210000000 (0x1D72D70F58D8A80) 'Fri Apr  9 18:48:41 2021 0ns'
               70 2D D7 01
017C 0183 0008 00 F1 38 09   Atime               132624677540000000 (0x1D72D710938F100) 'Fri Apr  9 18:49:14 2021 0ns'
               71 2D D7 01
0184 018B 0008 80 8A 8D F5   Ctime               132624677210000000 (0x1D72D70F58D8A80) 'Fri Apr  9 18:48:41 2021 0ns'
               70 2D D7 01

018C 018F 0004 50 4B 05 06 END CENTRAL HEADER    101010256 (0x6054B50)
0190 0191 0002 00 00       Number of this disk   0 (0x0)
0192 0193 0002 00 00       Central Dir Disk no   0 (0x0)
0194 0195 0002 01 00       Entries in this disk  1 (0x1)
0196 0197 0002 01 00       Total Entries         1 (0x1)
0198 019B 0004 5B 00 00 00 Size of Central Dir   91 (0x5B)
019C 019F 0004 31 01 00 00 Offset to Central Dir 305 (0x131)
01A0 01A1 0002 00 00       Comment Length        0 (0x0)
#
# Done
