
0000 0003 0004 50 4B 03 04 LOCAL HEADER #1       04034B50
0004 0004 0001 15          Extract Zip Spec      15 '2.1'
0005 0005 0001 03          Extract OS            03 'Unix'
0006 0007 0002 00 00       General Purpose Flag  0000
0008 0009 0002 09 00       Compression Method    0009 'Deflate64'
000A 000D 0004 15 9E 89 52 Last Mod Time         52899E15 'Fri Apr  9 19:48:42 2021'
000E 0011 0004 FF E7 0E F9 CRC                   F90EE7FF
0012 0015 0004 0A 01 00 00 Compressed Length     0000010A
0016 0019 0004 BE 01 00 00 Uncompressed Length   000001BE
001A 001B 0002 09 00       Filename Length       0009
001C 001D 0002 00 00       Extra Length          0000
001E 0026 0009 6C 6F 72 65 Filename              'lorem.txt'
               6D 2E 74 78
               74
0027 0130 010A ...         PAYLOAD

0131 0134 0004 50 4B 01 02 CENTRAL HEADER #1     02014B50
0135 0135 0001 3F          Created Zip Spec      3F '6.3'
0136 0136 0001 03          Created OS            03 'Unix'
0137 0137 0001 15          Extract Zip Spec      15 '2.1'
0138 0138 0001 03          Extract OS            03 'Unix'
0139 013A 0002 00 00       General Purpose Flag  0000
013B 013C 0002 09 00       Compression Method    0009 'Deflate64'
013D 0140 0004 15 9E 89 52 Last Mod Time         52899E15 'Fri Apr  9 19:48:42 2021'
0141 0144 0004 FF E7 0E F9 CRC                   F90EE7FF
0145 0148 0004 0A 01 00 00 Compressed Length     0000010A
0149 014C 0004 BE 01 00 00 Uncompressed Length   000001BE
014D 014E 0002 09 00       Filename Length       0009
014F 0150 0002 24 00       Extra Length          0024
0151 0152 0002 00 00       Comment Length        0000
0153 0154 0002 00 00       Disk Start            0000
0155 0156 0002 00 00       Int File Attributes   0000
                           [Bit 0]               0 'Binary Data'
0157 015A 0004 20 80 ED 81 Ext File Attributes   81ED8020
                           [Bit 5]               Archive
015B 015E 0004 00 00 00 00 Local Header Offset   00000000
015F 0167 0009 6C 6F 72 65 Filename              'lorem.txt'
               6D 2E 74 78
               74
0168 0169 0002 0A 00       Extra ID #0001        000A 'NTFS FileTimes'
016A 016B 0002 20 00         Length              0020
016C 016F 0004 00 00 00 00   Reserved            00000000
0170 0171 0002 01 00         Tag1                0001
0172 0173 0002 18 00         Size1               0018
0174 017B 0008 80 8A 8D F5   Mtime               01D72D70F58D8A80 'Fri Apr  9 18:48:41
               70 2D D7 01                       2021 0ns'
017C 0183 0008 00 F1 38 09   Atime               01D72D710938F100 'Fri Apr  9 18:49:14
               71 2D D7 01                       2021 0ns'
0184 018B 0008 80 8A 8D F5   Ctime               01D72D70F58D8A80 'Fri Apr  9 18:48:41
               70 2D D7 01                       2021 0ns'

018C 018F 0004 50 4B 05 06 END CENTRAL HEADER    06054B50
0190 0191 0002 00 00       Number of this disk   0000
0192 0193 0002 00 00       Central Dir Disk no   0000
0194 0195 0002 01 00       Entries in this disk  0001
0196 0197 0002 01 00       Total Entries         0001
0198 019B 0004 5B 00 00 00 Size of Central Dir   0000005B
019C 019F 0004 31 01 00 00 Offset to Central Dir 00000131
01A0 01A1 0002 00 00       Comment Length        0000
#
# Done
