
0000 0003 0004 50 4B 03 04 LOCAL HEADER #1       0x04034B50 [67324752]
0004 0004 0001 15          Extract Zip Spec      0x15 [21] '2.1'
0005 0005 0001 03          Extract OS            0x03 [3] 'Unix'
0006 0007 0002 00 00       General Purpose Flag  0x0000 [0]
0008 0009 0002 09 00       Compression Method    0x0009 [9] 'Deflate64'
000A 000D 0004 15 9E 89 52 Last Mod Time         0x52899E15 [1384750613] 'Fri Apr  9 19:48:42 2021'
000E 0011 0004 FF E7 0E F9 CRC                   0xF90EE7FF [4178503679]
0012 0015 0004 0A 01 00 00 Compressed Length     0x0000010A [266]
0016 0019 0004 BE 01 00 00 Uncompressed Length   0x000001BE [446]
001A 001B 0002 09 00       Filename Length       0x0009 [9]
001C 001D 0002 00 00       Extra Length          0x0000 [0]
001E 0026 0009 6C 6F 72 65 Filename              'lorem.txt'
               6D 2E 74 78
               74
0027 0130 010A ...         PAYLOAD

0131 0134 0004 50 4B 01 02 CENTRAL HEADER #1     0x02014B50 [33639248]
0135 0135 0001 3F          Created Zip Spec      0x3F [63] '6.3'
0136 0136 0001 03          Created OS            0x03 [3] 'Unix'
0137 0137 0001 15          Extract Zip Spec      0x15 [21] '2.1'
0138 0138 0001 03          Extract OS            0x03 [3] 'Unix'
0139 013A 0002 00 00       General Purpose Flag  0x0000 [0]
013B 013C 0002 09 00       Compression Method    0x0009 [9] 'Deflate64'
013D 0140 0004 15 9E 89 52 Last Mod Time         0x52899E15 [1384750613] 'Fri Apr  9 19:48:42 2021'
0141 0144 0004 FF E7 0E F9 CRC                   0xF90EE7FF [4178503679]
0145 0148 0004 0A 01 00 00 Compressed Length     0x0000010A [266]
0149 014C 0004 BE 01 00 00 Uncompressed Length   0x000001BE [446]
014D 014E 0002 09 00       Filename Length       0x0009 [9]
014F 0150 0002 24 00       Extra Length          0x0024 [36]
0151 0152 0002 00 00       Comment Length        0x0000 [0]
0153 0154 0002 00 00       Disk Start            0x0000 [0]
0155 0156 0002 00 00       Int File Attributes   0x0000 [0]
                           [Bit 0]               0 'Binary Data'
0157 015A 0004 20 80 ED 81 Ext File Attributes   0x81ED8020 [2179825696]
                           [Bit 5]               Archive
                           [Bits 11-15]          0x8000 [32768] 'Unknown DOS attrib'
                           [Bits 16-24]          0x01ED [493] 'Unix attrib: rwxr-xr-x'
                           [Bits 28-31]          0x08 [8] 'Regular File'
015B 015E 0004 00 00 00 00 Local Header Offset   0x00000000 [0]
015F 0167 0009 6C 6F 72 65 Filename              'lorem.txt'
               6D 2E 74 78
               74
0168 0169 0002 0A 00       Extra ID #1           0x000A [10] 'NTFS FileTimes'
016A 016B 0002 20 00         Length              0x0020 [32]
016C 016F 0004 00 00 00 00   Reserved            0x00000000 [0]
0170 0171 0002 01 00         Tag1                0x0001 [1]
0172 0173 0002 18 00         Size1               0x0018 [24]
0174 017B 0008 80 8A 8D F5   Mtime               0x01D72D70F58D8A80 [132624677210000000] 'Fri Apr  9 18:48:41 2021 0ns'
               70 2D D7 01
017C 0183 0008 00 F1 38 09   Atime               0x01D72D710938F100 [132624677540000000] 'Fri Apr  9 18:49:14 2021 0ns'
               71 2D D7 01
0184 018B 0008 80 8A 8D F5   Ctime               0x01D72D70F58D8A80 [132624677210000000] 'Fri Apr  9 18:48:41 2021 0ns'
               70 2D D7 01

018C 018F 0004 50 4B 05 06 END CENTRAL HEADER    0x06054B50 [101010256]
0190 0191 0002 00 00       Number of this disk   0x0000 [0]
0192 0193 0002 00 00       Central Dir Disk no   0x0000 [0]
0194 0195 0002 01 00       Entries in this disk  0x0001 [1]
0196 0197 0002 01 00       Total Entries         0x0001 [1]
0198 019B 0004 5B 00 00 00 Size of Central Dir   0x0000005B [91]
019C 019F 0004 31 01 00 00 Offset to Central Dir 0x00000131 [305]
01A0 01A1 0002 00 00       Comment Length        0x0000 [0]
#
# Done
