
0000 0003 0004 50 4B 03 04 LOCAL HEADER #1       67324752 (0x4034B50)
0004 0004 0001 0A          Extract Zip Spec      10 (0xA) '1.0'
0005 0005 0001 00          Extract OS            0 (0x0) 'MS-DOS'
0006 0007 0002 00 00       General Purpose Flag  0 (0x0)
0008 0009 0002 00 00       Compression Method    0 (0x0) 'Stored'
000A 000D 0004 C0 5D 7D 55 Last Mod Time         1434279360 (0x557D5DC0) 'Tue Nov 29 11:46:00 2022'
000E 0011 0004 EC 6E 60 9F CRC                   2673897196 (0x9F606EEC)
0012 0015 0004 06 00 00 00 Compressed Length     6 (0x6)
0016 0019 0004 06 00 00 00 Uncompressed Length   6 (0x6)
001A 001B 0002 05 00       Filename Length       5 (0x5)
001C 001D 0002 00 00       Extra Length          0 (0x0)
001E 0022 0005 61 6C 70 68 Filename              'alpha'
               61
0023 0028 0006 61 6C 70 68 PAYLOAD               alpha.
               61 0A

0029 004F 0027 50 4B 03 04 UNEXPECTED PADDING    PK.........]}Uu...............betabeta.
               0A 00 00 00
               00 00 C0 5D
               7D 55 75 A7
               E3 E6 05 00
               00 00 05 00
               00 00 04 00
               00 00 62 65
               74 61 62 65
               74 61 0A
#
# INFO: Offset 0x29: 39 (0x27) Unexpected Padding bytes
#

0050 0053 0004 50 4B 03 04 LOCAL HEADER #2       67324752 (0x4034B50)
0054 0054 0001 0A          Extract Zip Spec      10 (0xA) '1.0'
0055 0055 0001 00          Extract OS            0 (0x0) 'MS-DOS'
0056 0057 0002 00 00       General Purpose Flag  0 (0x0)
0058 0059 0002 00 00       Compression Method    0 (0x0) 'Stored'
005A 005D 0004 C0 5D 7D 55 Last Mod Time         1434279360 (0x557D5DC0) 'Tue Nov 29 11:46:00 2022'
005E 0061 0004 E9 04 11 15 CRC                   353436905 (0x151104E9)
0062 0065 0004 06 00 00 00 Compressed Length     6 (0x6)
0066 0069 0004 06 00 00 00 Uncompressed Length   6 (0x6)
006A 006B 0002 05 00       Filename Length       5 (0x5)
006C 006D 0002 00 00       Extra Length          0 (0x0)
006E 0072 0005 67 61 6D 6D Filename              'gamma'
               61
0073 0078 0006 67 61 6D 6D PAYLOAD               gamma.
               61 0A

0079 00A1 0029 50 4B 03 04 UNEXPECTED PADDING    PK.........]}U./N.............deltadelta.
               0A 00 00 00
               00 00 C0 5D
               7D 55 1D 2F
               4E CD 06 00
               00 00 06 00
               00 00 05 00
               00 00 64 65
               6C 74 61 64
               65 6C 74 61
               0A
#
# INFO: Offset 0x79: 41 (0x29) Unexpected Padding bytes
#

00A2 00A5 0004 50 4B 01 02 CENTRAL HEADER #1     33639248 (0x2014B50)
00A6 00A6 0001 1E          Created Zip Spec      30 (0x1E) '3.0'
00A7 00A7 0001 03          Created OS            3 (0x3) 'Unix'
00A8 00A8 0001 0A          Extract Zip Spec      10 (0xA) '1.0'
00A9 00A9 0001 00          Extract OS            0 (0x0) 'MS-DOS'
00AA 00AB 0002 00 00       General Purpose Flag  0 (0x0)
00AC 00AD 0002 00 00       Compression Method    0 (0x0) 'Stored'
00AE 00B1 0004 C0 5D 7D 55 Last Mod Time         1434279360 (0x557D5DC0) 'Tue Nov 29 11:46:00 2022'
00B2 00B5 0004 EC 6E 60 9F CRC                   2673897196 (0x9F606EEC)
00B6 00B9 0004 06 00 00 00 Compressed Length     6 (0x6)
00BA 00BD 0004 06 00 00 00 Uncompressed Length   6 (0x6)
00BE 00BF 0002 05 00       Filename Length       5 (0x5)
00C0 00C1 0002 00 00       Extra Length          0 (0x0)
00C2 00C3 0002 00 00       Comment Length        0 (0x0)
00C4 00C5 0002 00 00       Disk Start            0 (0x0)
00C6 00C7 0002 01 00       Int File Attributes   1 (0x1)
                           [Bit 0]               1 'Text Data'
00C8 00CB 0004 00 00 B4 81 Ext File Attributes   2176057344 (0x81B40000)
                           [Bits 16-24]          436 (0x1B4) 'Unix attrib: rw-rw-r--'
                           [Bits 28-31]          8 (0x8) 'Regular File'
00CC 00CF 0004 00 00 00 00 Local Header Offset   0 (0x0)
00D0 00D4 0005 61 6C 70 68 Filename              'alpha'
               61

00D5 00D8 0004 50 4B 01 02 CENTRAL HEADER #2     33639248 (0x2014B50)
00D9 00D9 0001 1E          Created Zip Spec      30 (0x1E) '3.0'
00DA 00DA 0001 03          Created OS            3 (0x3) 'Unix'
00DB 00DB 0001 0A          Extract Zip Spec      10 (0xA) '1.0'
00DC 00DC 0001 00          Extract OS            0 (0x0) 'MS-DOS'
00DD 00DE 0002 00 00       General Purpose Flag  0 (0x0)
00DF 00E0 0002 00 00       Compression Method    0 (0x0) 'Stored'
00E1 00E4 0004 C0 5D 7D 55 Last Mod Time         1434279360 (0x557D5DC0) 'Tue Nov 29 11:46:00 2022'
00E5 00E8 0004 E9 04 11 15 CRC                   353436905 (0x151104E9)
00E9 00EC 0004 06 00 00 00 Compressed Length     6 (0x6)
00ED 00F0 0004 06 00 00 00 Uncompressed Length   6 (0x6)
00F1 00F2 0002 05 00       Filename Length       5 (0x5)
00F3 00F4 0002 00 00       Extra Length          0 (0x0)
00F5 00F6 0002 00 00       Comment Length        0 (0x0)
00F7 00F8 0002 00 00       Disk Start            0 (0x0)
00F9 00FA 0002 01 00       Int File Attributes   1 (0x1)
                           [Bit 0]               1 'Text Data'
00FB 00FE 0004 00 00 B4 81 Ext File Attributes   2176057344 (0x81B40000)
                           [Bits 16-24]          436 (0x1B4) 'Unix attrib: rw-rw-r--'
                           [Bits 28-31]          8 (0x8) 'Regular File'
00FF 0102 0004 50 00 00 00 Local Header Offset   80 (0x50)
0103 0107 0005 67 61 6D 6D Filename              'gamma'
               61

0108 010B 0004 50 4B 05 06 END CENTRAL HEADER    101010256 (0x6054B50)
010C 010D 0002 00 00       Number of this disk   0 (0x0)
010E 010F 0002 00 00       Central Dir Disk no   0 (0x0)
0110 0111 0002 02 00       Entries in this disk  2 (0x2)
0112 0113 0002 02 00       Total Entries         2 (0x2)
0114 0117 0004 66 00 00 00 Size of Central Dir   102 (0x66)
0118 011B 0004 A2 00 00 00 Offset to Central Dir 162 (0xA2)
011C 011D 0002 00 00       Comment Length        0 (0x0)
#
# Info Count: 2
#
# Done
