
0000 0003 0004 50 4B 03 04 LOCAL HEADER #1       0x04034B50 [67324752]
0004 0004 0001 0A          Extract Zip Spec      0x0A [10] '1.0'
0005 0005 0001 00          Extract OS            0x00 [0] 'MS-DOS'
0006 0007 0002 00 00       General Purpose Flag  0x0000 [0]
0008 0009 0002 00 00       Compression Method    0x0000 [0] 'Stored'
000A 000D 0004 C0 5D 7D 55 Last Mod Time         0x557D5DC0 [1434279360] 'Tue Nov 29 11:46:00 2022'
000E 0011 0004 EC 6E 60 9F CRC                   0x9F606EEC [2673897196]
0012 0015 0004 06 00 00 00 Compressed Length     0x00000006 [6]
0016 0019 0004 06 00 00 00 Uncompressed Length   0x00000006 [6]
001A 001B 0002 05 00       Filename Length       0x0005 [5]
001C 001D 0002 00 00       Extra Length          0x0000 [0]
001E 0022 0005 61 6C 70 68 Filename              'alpha'
               61
0023 0028 0006 61 6C 70 68 PAYLOAD               alpha.
               61 0A

0029 002C 0004 50 4B 03 04 LOCAL HEADER #2       0x04034B50 [67324752]
002D 002D 0001 0A          Extract Zip Spec      0x0A [10] '1.0'
002E 002E 0001 00          Extract OS            0x00 [0] 'MS-DOS'
002F 0030 0002 00 00       General Purpose Flag  0x0000 [0]
0031 0032 0002 00 00       Compression Method    0x0000 [0] 'Stored'
0033 0036 0004 C0 5D 7D 55 Last Mod Time         0x557D5DC0 [1434279360] 'Tue Nov 29 11:46:00 2022'
0037 003A 0004 75 A7 E3 E6 CRC                   0xE6E3A775 [3873679221]
003B 003E 0004 05 00 00 00 Compressed Length     0x00000005 [5]
003F 0042 0004 05 00 00 00 Uncompressed Length   0x00000005 [5]
0043 0044 0002 04 00       Filename Length       0x0004 [4]
0045 0046 0002 00 00       Extra Length          0x0000 [0]
0047 004A 0004 62 65 74 61 Filename              'beta'
004B 004F 0005 62 65 74 61 PAYLOAD               beta.
               0A

0050 0053 0004 50 4B 03 04 LOCAL HEADER #3       0x04034B50 [67324752]
0054 0054 0001 0A          Extract Zip Spec      0x0A [10] '1.0'
0055 0055 0001 00          Extract OS            0x00 [0] 'MS-DOS'
0056 0057 0002 00 00       General Purpose Flag  0x0000 [0]
0058 0059 0002 00 00       Compression Method    0x0000 [0] 'Stored'
005A 005D 0004 C0 5D 7D 55 Last Mod Time         0x557D5DC0 [1434279360] 'Tue Nov 29 11:46:00 2022'
005E 0061 0004 E9 04 11 15 CRC                   0x151104E9 [353436905]
0062 0065 0004 06 00 00 00 Compressed Length     0x00000006 [6]
0066 0069 0004 06 00 00 00 Uncompressed Length   0x00000006 [6]
006A 006B 0002 05 00       Filename Length       0x0005 [5]
006C 006D 0002 00 00       Extra Length          0x0000 [0]
006E 0072 0005 67 61 6D 6D Filename              'gamma'
               61
0073 0078 0006 67 61 6D 6D PAYLOAD               gamma.
               61 0A

0079 007C 0004 50 4B 03 04 LOCAL HEADER #4       0x04034B50 [67324752]
007D 007D 0001 0A          Extract Zip Spec      0x0A [10] '1.0'
007E 007E 0001 00          Extract OS            0x00 [0] 'MS-DOS'
007F 0080 0002 00 00       General Purpose Flag  0x0000 [0]
0081 0082 0002 00 00       Compression Method    0x0000 [0] 'Stored'
0083 0086 0004 C0 5D 7D 55 Last Mod Time         0x557D5DC0 [1434279360] 'Tue Nov 29 11:46:00 2022'
0087 008A 0004 1D 2F 4E CD CRC                   0xCD4E2F1D [3444453149]
008B 008E 0004 06 00 00 00 Compressed Length     0x00000006 [6]
008F 0092 0004 06 00 00 00 Uncompressed Length   0x00000006 [6]
0093 0094 0002 05 00       Filename Length       0x0005 [5]
0095 0096 0002 00 00       Extra Length          0x0000 [0]
0097 009B 0005 64 65 6C 74 Filename              'delta'
               61
009C 00A1 0006 64 65 6C 74 PAYLOAD               delta.
               61 0A

00A2 00A5 0004 50 4B 01 02 CENTRAL HEADER #1     0x02014B50 [33639248]
00A6 00A6 0001 1E          Created Zip Spec      0x1E [30] '3.0'
00A7 00A7 0001 03          Created OS            0x03 [3] 'Unix'
00A8 00A8 0001 0A          Extract Zip Spec      0x0A [10] '1.0'
00A9 00A9 0001 00          Extract OS            0x00 [0] 'MS-DOS'
00AA 00AB 0002 00 00       General Purpose Flag  0x0000 [0]
00AC 00AD 0002 00 00       Compression Method    0x0000 [0] 'Stored'
00AE 00B1 0004 C0 5D 7D 55 Last Mod Time         0x557D5DC0 [1434279360] 'Tue Nov 29 11:46:00 2022'
00B2 00B5 0004 EC 6E 60 9F CRC                   0x9F606EEC [2673897196]
00B6 00B9 0004 06 00 00 00 Compressed Length     0x00000006 [6]
00BA 00BD 0004 06 00 00 00 Uncompressed Length   0x00000006 [6]
00BE 00BF 0002 05 00       Filename Length       0x0005 [5]
00C0 00C1 0002 00 00       Extra Length          0x0000 [0]
00C2 00C3 0002 00 00       Comment Length        0x0000 [0]
00C4 00C5 0002 00 00       Disk Start            0x0000 [0]
00C6 00C7 0002 01 00       Int File Attributes   0x0001 [1]
                           [Bit 0]               1 'Text Data'
00C8 00CB 0004 00 00 B4 81 Ext File Attributes   0x81B40000 [2176057344]
                           [Bits 16-24]          0x01B4 [436] 'Unix attrib: rw-rw-r--'
                           [Bits 28-31]          0x08 [8] 'Regular File'
00CC 00CF 0004 00 00 00 00 Local Header Offset   0x00000000 [0]
00D0 00D4 0005 61 6C 70 68 Filename              'alpha'
               61

00D5 00D8 0004 50 4B 01 02 CENTRAL HEADER #2     0x02014B50 [33639248]
00D9 00D9 0001 1E          Created Zip Spec      0x1E [30] '3.0'
00DA 00DA 0001 03          Created OS            0x03 [3] 'Unix'
00DB 00DB 0001 0A          Extract Zip Spec      0x0A [10] '1.0'
00DC 00DC 0001 00          Extract OS            0x00 [0] 'MS-DOS'
00DD 00DE 0002 00 00       General Purpose Flag  0x0000 [0]
00DF 00E0 0002 00 00       Compression Method    0x0000 [0] 'Stored'
00E1 00E4 0004 C0 5D 7D 55 Last Mod Time         0x557D5DC0 [1434279360] 'Tue Nov 29 11:46:00 2022'
00E5 00E8 0004 E9 04 11 15 CRC                   0x151104E9 [353436905]
00E9 00EC 0004 06 00 00 00 Compressed Length     0x00000006 [6]
00ED 00F0 0004 06 00 00 00 Uncompressed Length   0x00000006 [6]
00F1 00F2 0002 05 00       Filename Length       0x0005 [5]
00F3 00F4 0002 00 00       Extra Length          0x0000 [0]
00F5 00F6 0002 00 00       Comment Length        0x0000 [0]
00F7 00F8 0002 00 00       Disk Start            0x0000 [0]
00F9 00FA 0002 01 00       Int File Attributes   0x0001 [1]
                           [Bit 0]               1 'Text Data'
00FB 00FE 0004 00 00 B4 81 Ext File Attributes   0x81B40000 [2176057344]
                           [Bits 16-24]          0x01B4 [436] 'Unix attrib: rw-rw-r--'
                           [Bits 28-31]          0x08 [8] 'Regular File'
00FF 0102 0004 50 00 00 00 Local Header Offset   0x00000050 [80]
0103 0107 0005 67 61 6D 6D Filename              'gamma'
               61

0108 010B 0004 50 4B 05 06 END CENTRAL HEADER    0x06054B50 [101010256]
010C 010D 0002 00 00       Number of this disk   0x0000 [0]
010E 010F 0002 00 00       Central Dir Disk no   0x0000 [0]
0110 0111 0002 02 00       Entries in this disk  0x0002 [2]
0112 0113 0002 02 00       Total Entries         0x0002 [2]
0114 0117 0004 66 00 00 00 Size of Central Dir   0x00000066 [102]
0118 011B 0004 A2 00 00 00 Offset to Central Dir 0x000000A2 [162]
011C 011D 0002 00 00       Comment Length        0x0000 [0]
#
# ERROR: Orphan Local Headers found: 2
#  Offset  Filename
#    0x29  'beta'
#    0x79  'delta'
#
# Error Count: 1
#
# Done
