
0000 0003 0004 50 4B 03 04 LOCAL HEADER #1       0x04034B50 [67324752]
0004 0004 0001 14          Extract Zip Spec      0x14 [20] '2.0'
0005 0005 0001 00          Extract OS            0x00 [0] 'MS-DOS'
0006 0007 0002 00 00       General Purpose Flag  0x0000 [0]
0008 0009 0002 5D 00       Compression Method    0x005D [93] 'Zstandard'
000A 000D 0004 E1 B2 F5 50 Last Mod Time         0x50F5B2E1 [1358279393] 'Tue Jul 21 22:23:02 2020'
000E 0011 0004 FF E7 0E F9 CRC                   0xF90EE7FF [4178503679]
0012 0015 0004 1E 01 00 00 Compressed Length     0x0000011E [286]
0016 0019 0004 BE 01 00 00 Uncompressed Length   0x000001BE [446]
001A 001B 0002 09 00       Filename Length       0x0009 [9]
001C 001D 0002 00 00       Extra Length          0x0000 [0]
001E 0026 0009 6C 6F 72 65 Filename              'lorem.txt'
               6D 2E 74 78
               74
0027 0144 011E ...         PAYLOAD

0145 0148 0004 50 4B 01 02 CENTRAL HEADER #1     0x02014B50 [33639248]
0149 0149 0001 14          Created Zip Spec      0x14 [20] '2.0'
014A 014A 0001 00          Created OS            0x00 [0] 'MS-DOS'
014B 014B 0001 14          Extract Zip Spec      0x14 [20] '2.0'
014C 014C 0001 00          Extract OS            0x00 [0] 'MS-DOS'
014D 014E 0002 00 00       General Purpose Flag  0x0000 [0]
014F 0150 0002 5D 00       Compression Method    0x005D [93] 'Zstandard'
0151 0154 0004 E1 B2 F5 50 Last Mod Time         0x50F5B2E1 [1358279393] 'Tue Jul 21 22:23:02 2020'
0155 0158 0004 FF E7 0E F9 CRC                   0xF90EE7FF [4178503679]
0159 015C 0004 1E 01 00 00 Compressed Length     0x0000011E [286]
015D 0160 0004 BE 01 00 00 Uncompressed Length   0x000001BE [446]
0161 0162 0002 09 00       Filename Length       0x0009 [9]
0163 0164 0002 00 00       Extra Length          0x0000 [0]
0165 0166 0002 00 00       Comment Length        0x0000 [0]
0167 0168 0002 00 00       Disk Start            0x0000 [0]
0169 016A 0002 01 00       Int File Attributes   0x0001 [1]
                           [Bit 0]               1 'Text Data'
016B 016E 0004 20 00 00 00 Ext File Attributes   0x00000020 [32]
                           [Bit 5]               Archive
016F 0172 0004 00 00 00 00 Local Header Offset   0x00000000 [0]
0173 017B 0009 6C 6F 72 65 Filename              'lorem.txt'
               6D 2E 74 78
               74

017C 017F 0004 50 4B 05 06 END CENTRAL HEADER    0x06054B50 [101010256]
0180 0181 0002 00 00       Number of this disk   0x0000 [0]
0182 0183 0002 00 00       Central Dir Disk no   0x0000 [0]
0184 0185 0002 01 00       Entries in this disk  0x0001 [1]
0186 0187 0002 01 00       Total Entries         0x0001 [1]
0188 018B 0004 37 00 00 00 Size of Central Dir   0x00000037 [55]
018C 018F 0004 45 01 00 00 Offset to Central Dir 0x00000145 [325]
0190 0191 0002 00 00       Comment Length        0x0000 [0]
#
# Done
