
0000 0003 0004 50 4B 03 04 LOCAL HEADER #1       04034B50
0004 0004 0001 14          Extract Zip Spec      14 '2.0'
0005 0005 0001 00          Extract OS            00 'MS-DOS'
0006 0007 0002 00 00       General Purpose Flag  0000
0008 0009 0002 5D 00       Compression Method    005D 'Zstandard'
000A 000D 0004 E1 B2 F5 50 Last Mod Time         50F5B2E1 'Tue Jul 21 22:23:02 2020'
000E 0011 0004 FF E7 0E F9 CRC                   F90EE7FF
0012 0015 0004 1E 01 00 00 Compressed Length     0000011E
0016 0019 0004 BE 01 00 00 Uncompressed Length   000001BE
001A 001B 0002 09 00       Filename Length       0009
001C 001D 0002 00 00       Extra Length          0000
001E 0026 0009 6C 6F 72 65 Filename              'lorem.txt'
               6D 2E 74 78
               74
0027 0144 011E ...         PAYLOAD

0145 0148 0004 50 4B 01 02 CENTRAL HEADER #1     02014B50
0149 0149 0001 14          Created Zip Spec      14 '2.0'
014A 014A 0001 00          Created OS            00 'MS-DOS'
014B 014B 0001 14          Extract Zip Spec      14 '2.0'
014C 014C 0001 00          Extract OS            00 'MS-DOS'
014D 014E 0002 00 00       General Purpose Flag  0000
014F 0150 0002 5D 00       Compression Method    005D 'Zstandard'
0151 0154 0004 E1 B2 F5 50 Last Mod Time         50F5B2E1 'Tue Jul 21 22:23:02 2020'
0155 0158 0004 FF E7 0E F9 CRC                   F90EE7FF
0159 015C 0004 1E 01 00 00 Compressed Length     0000011E
015D 0160 0004 BE 01 00 00 Uncompressed Length   000001BE
0161 0162 0002 09 00       Filename Length       0009
0163 0164 0002 00 00       Extra Length          0000
0165 0166 0002 00 00       Comment Length        0000
0167 0168 0002 00 00       Disk Start            0000
0169 016A 0002 01 00       Int File Attributes   0001
                           [Bit 0]               1 'Text Data'
016B 016E 0004 20 00 00 00 Ext File Attributes   00000020
                           [Bit 5]               Archive
016F 0172 0004 00 00 00 00 Local Header Offset   00000000
0173 017B 0009 6C 6F 72 65 Filename              'lorem.txt'
               6D 2E 74 78
               74

017C 017F 0004 50 4B 05 06 END CENTRAL HEADER    06054B50
0180 0181 0002 00 00       Number of this disk   0000
0182 0183 0002 00 00       Central Dir Disk no   0000
0184 0185 0002 01 00       Entries in this disk  0001
0186 0187 0002 01 00       Total Entries         0001
0188 018B 0004 37 00 00 00 Size of Central Dir   00000037
018C 018F 0004 45 01 00 00 Offset to Central Dir 00000145
0190 0191 0002 00 00       Comment Length        0000
#
# Done
