
0000 0003 0004 50 4B 03 04 LOCAL HEADER #1       04034B50 (67324752)
0004 0004 0001 14          Extract Zip Spec      14 (20) '2.0'
0005 0005 0001 00          Extract OS            00 (0) 'MS-DOS'
0006 0007 0002 08 00       General Purpose Flag  0008 (8)
                           [Bits 1-2]            0 'Normal Compression'
                           [Bit  3]              1 'Streamed'
0008 0009 0002 08 00       Compression Method    0008 (8) 'Deflated'
000A 000D 0004 BC A5 8E 58 Modification Time     588EA5BC (1485743548) 'Sun Apr 14 20:45:56 2024'
000E 0011 0004 00 00 00 00 CRC                   00000000 (0)
0012 0015 0004 00 00 00 00 Compressed Size       00000000 (0)
0016 0019 0004 BE 01 00 00 Uncompressed Size     000001BE (446)
001A 001B 0002 09 00       Filename Length       0009 (9)
001C 001D 0002 20 00       Extra Length          0020 (32)
001E 0026 0009 6C 6F 72 65 Filename              'lorem.txt'
               6D 2E 74 78
               74
0027 0028 0002 55 54       Extra ID #1           5455 (21589) 'Extended Timestamp [UT]'
0029 002A 0002 0D 00         Length              000D (13)
002B 002B 0001 07            Flags               07 (7) 'Modification Access Creation'
002C 002F 0004 74 32 1C 66   Modification Time   661C3274 (1713123956) 'Sun Apr 14 19:45:56 2024'
0030 0033 0004 A8 32 1C 66   Access Time         661C32A8 (1713124008) 'Sun Apr 14 19:46:48 2024'
0034 0037 0004 74 32 1C 66   Creation Time       661C3274 (1713123956) 'Sun Apr 14 19:45:56 2024'
0038 0039 0002 75 78       Extra ID #2           7875 (30837) 'Unix Extra type 3 [ux]'
003A 003B 0002 0B 00         Length              000B (11)
003C 003C 0001 01            Version             01 (1)
003D 003D 0001 04            UID Size            04 (4)
003E 0041 0004 E8 03 00 00   UID                 000003E8 (1000)
0042 0042 0001 04            GID Size            04 (4)
0043 0046 0004 E8 03 00 00   GID                 000003E8 (1000)
0047 0154 010E ...         PAYLOAD

0155 0158 0004 50 4B 07 08 DATA DESCRIPTOR       08074B50 (134695760)
0159 015C 0004 FF E7 0E F9 CRC                   F90EE7FF (4178503679)
015D 0160 0004 0E 01 00 00 Compressed Size       0000010E (270)
0161 0164 0004 BE 01 00 00 Uncompressed Size     000001BE (446)

0165 0168 0004 50 4B 01 02 CENTRAL HEADER #1     02014B50 (33639248)
0169 0169 0001 14          Created Zip Spec      14 (20) '2.0'
016A 016A 0001 03          Created OS            03 (3) 'Unix'
016B 016B 0001 14          Extract Zip Spec      14 (20) '2.0'
016C 016C 0001 00          Extract OS            00 (0) 'MS-DOS'
016D 016E 0002 08 00       General Purpose Flag  0008 (8)
                           [Bits 1-2]            0 'Normal Compression'
                           [Bit  3]              1 'Streamed'
016F 0170 0002 08 00       Compression Method    0008 (8) 'Deflated'
0171 0174 0004 BC A5 8E 58 Modification Time     588EA5BC (1485743548) 'Sun Apr 14 20:45:56 2024'
0175 0178 0004 FF E7 0E F9 CRC                   F90EE7FF (4178503679)
0179 017C 0004 0E 01 00 00 Compressed Size       0000010E (270)
017D 0180 0004 BE 01 00 00 Uncompressed Size     000001BE (446)
0181 0182 0002 09 00       Filename Length       0009 (9)
0183 0184 0002 20 00       Extra Length          0020 (32)
0185 0186 0002 00 00       Comment Length        0000 (0)
0187 0188 0002 00 00       Disk Start            0000 (0)
0189 018A 0002 00 00       Int File Attributes   0000 (0)
                           [Bit 0]               0 'Binary Data'
018B 018E 0004 00 00 ED 81 Ext File Attributes   81ED0000 (2179792896)
                           [Bits 16-24]          01ED (493) 'Unix attrib: rwxr-xr-x'
                           [Bits 28-31]          08 (8) 'Regular File'
018F 0192 0004 00 00 00 00 Local Header Offset   00000000 (0)
0193 019B 0009 6C 6F 72 65 Filename              'lorem.txt'
               6D 2E 74 78
               74
019C 019D 0002 55 54       Extra ID #1           5455 (21589) 'Extended Timestamp [UT]'
019E 019F 0002 0D 00         Length              000D (13)
01A0 01A0 0001 07            Flags               07 (7) 'Modification Access Creation'
01A1 01A4 0004 74 32 1C 66   Modification Time   661C3274 (1713123956) 'Sun Apr 14 19:45:56 2024'
#
# INFO: Offset 0x1A5: Extra Field 'Extended Timestamp [UT]' (ID 0x5455): Unexpected 'Access Time' present
#
01A5 01A8 0004 A8 32 1C 66   Access Time         661C32A8 (1713124008) 'Sun Apr 14 19:46:48 2024'
#
# INFO: Offset 0x1A9: Extra Field 'Extended Timestamp [UT]' (ID 0x5455): Unexpected 'Creation Time' present
#
01A9 01AC 0004 74 32 1C 66   Creation Time       661C3274 (1713123956) 'Sun Apr 14 19:45:56 2024'
01AD 01AE 0002 75 78       Extra ID #2           7875 (30837) 'Unix Extra type 3 [ux]'
01AF 01B0 0002 0B 00         Length              000B (11)
01B1 01B1 0001 01            Version             01 (1)
01B2 01B2 0001 04            UID Size            04 (4)
01B3 01B6 0004 E8 03 00 00   UID                 000003E8 (1000)
01B7 01B7 0001 04            GID Size            04 (4)
01B8 01BB 0004 E8 03 00 00   GID                 000003E8 (1000)

01BC 01BF 0004 50 4B 05 06 END CENTRAL HEADER    06054B50 (101010256)
01C0 01C1 0002 00 00       Number of this disk   0000 (0)
01C2 01C3 0002 00 00       Central Dir Disk no   0000 (0)
01C4 01C5 0002 01 00       Entries in this disk  0001 (1)
01C6 01C7 0002 01 00       Total Entries         0001 (1)
01C8 01CB 0004 57 00 00 00 Size of Central Dir   00000057 (87)
01CC 01CF 0004 65 01 00 00 Offset to Central Dir 00000165 (357)
01D0 01D1 0002 00 00       Comment Length        0000 (0)
#
# Info Count: 2
#
# Done
