
0000 0003 0004 50 4B 03 04 LOCAL HEADER #1       0x04034B50 [67324752]
0004 0004 0001 32          Extract Zip Spec      0x32 [50] '5.0'
0005 0005 0001 00          Extract OS            0x00 [0] 'MS-DOS'
0006 0007 0002 41 28       General Purpose Flag  0x2841 [10305]
                           [Bit  0]              1 'Encryption'
                           [Bits 1-2]            0 'Normal Compression'
                           [Bit  6]              1 'Strong Encryption'
                           [Bit 11]              1 'Language Encoding'
                           [Bit 13]              1 'Encrypted Central Dir'
0008 0009 0002 08 00       Compression Method    0x0008 [8] 'Deflated'
000A 000D 0004 00 00 00 00 Last Mod Time         0x00000000 [0] 'No Date/Time'
000E 0011 0004 00 00 00 00 CRC                   0x00000000 [0]
0012 0015 0004 3E 02 00 00 Compressed Length     0x0000023E [574]
0016 0019 0004 00 00 00 00 Uncompressed Length   0x00000000 [0]
001A 001B 0002 01 00       Filename Length       0x0001 [1]
001C 001D 0002 00 00       Extra Length          0x0000 [0]
001E 001E 0001 31          Filename              '1'

001F 001E 0000             DECRYPTION HEADER
                           RECORD
001F 0020 0002 10 00       IVSize                0x0010 [16]
0021 0030 0010 1B 55 20 25 IVData                1B 55 20 25 26 D9 D5 BC CE 33 5A 4D DB A7 27 9A
               26 D9 D5 BC
               CE 33 5A 4D
               DB A7 27 9A
0031 0034 0004 18 01 00 00 Size                  0x00000118 [280]
0035 0036 0002 03 00       Format                0x0003 [3]
0037 0038 0002 03 66       AlgId                 0x6603 [26115] '3DES 168'
0039 003A 0002 A8 00       BitLen                0x00A8 [168]
003B 003C 0002 01 00       Flags                 0x0001 [1] 'Password required to decrypt'
003D 003E 0002 88 00       ErdSize               0x0088 [136]
003F 00C6 0088 B6 58 A4 04 ErdData               B6 58 A4 04 24 29 3E F4 A4 5E 45 CB 6D DA 8F 2F
               24 29 3E F4                       77 5B C7 42 37 B2 DA 5E 8F 0E 84 C8 4C 5D 10 14
               A4 5E 45 CB                       65 65 4D 29 0F 15 0F D0 96 A7 78 DD 66 18 1E 80
               6D DA 8F 2F                       C4 CC 24 8B 90 B1 DD E3 64 17 3F D5 0B 37 CA F0
               77 5B C7 42                       95 B8 A1 22 42 D4 B4 59 86 CC B2 7F 3E CF 90 09
               37 B2 DA 5E                       60 61 DA 24 9A 48 04 8F 6B 6A F4 BC 3E 12 95 28
               8F 0E 84 C8                       2A 6F 2B 8C 2A A1 02 4F 38 E7 51 CE E2 45 B2 61
               4C 5D 10 14                       79 06 64 2C C9 6D 74 E0 06 40 84 21 13 6A 1B 00
               65 65 4D 29                       BE EF 0F 60 63 80 07 76
               0F 15 0F D0
               96 A7 78 DD
               66 18 1E 80
               C4 CC 24 8B
               90 B1 DD E3
               64 17 3F D5
               0B 37 CA F0
               95 B8 A1 22
               42 D4 B4 59
               86 CC B2 7F
               3E CF 90 09
               60 61 DA 24
               9A 48 04 8F
               6B 6A F4 BC
               3E 12 95 28
               2A 6F 2B 8C
               2A A1 02 4F
               38 E7 51 CE
               E2 45 B2 61
               79 06 64 2C
               C9 6D 74 E0
               06 40 84 21
               13 6A 1B 00
               BE EF 0F 60
               63 80 07 76
00C7 00CA 0004 00 00 00 00 RCount                0x00000000 [0]
00CB 00CC 0002 80 00       VSize                 0x0080 [128]
00CD 0148 007C AC 13 33 05 VData                 AC 13 33 05 99 2D 38 1F 68 EA 4A A8 73 7F D9 E1
               99 2D 38 1F                       9D 7C 79 20 8C A3 2C 3D 00 B7 30 11 D2 EF 1B C6
               68 EA 4A A8                       55 F3 57 62 1D 68 56 E9 F7 95 00 BD 0A 70 FA 8E
               73 7F D9 E1                       B0 63 FC 98 E9 ED 81 EC 6A 96 86 90 B5 B4 BF 6B
               9D 7C 79 20                       E1 D7 FD 9E 39 D9 BB C8 5E 5C F5 23 27 67 7C 5F
               8C A3 2C 3D                       5C 5C F1 5C 85 65 1A 27 B0 39 39 1A 7D 48 AA D9
               00 B7 30 11                       E3 74 D9 E2 3F 79 8C B4 F5 BE C5 2D 52 23 8F B4
               D2 EF 1B C6                       E2 94 18 98 FA FA F6 34 2F D7 2E EC
               55 F3 57 62
               1D 68 56 E9
               F7 95 00 BD
               0A 70 FA 8E
               B0 63 FC 98
               E9 ED 81 EC
               6A 96 86 90
               B5 B4 BF 6B
               E1 D7 FD 9E
               39 D9 BB C8
               5E 5C F5 23
               27 67 7C 5F
               5C 5C F1 5C
               85 65 1A 27
               B0 39 39 1A
               7D 48 AA D9
               E3 74 D9 E2
               3F 79 8C B4
               F5 BE C5 2D
               52 23 8F B4
               E2 94 18 98
               FA FA F6 34
               2F D7 2E EC
0149 014C 0004 A7 4B 33 90 VCRC32                0x90334BA7 [2419280807]
014D 025C 0110 ...         PAYLOAD

025D 0260 0004 50 4B 03 04 LOCAL HEADER #2       0x04034B50 [67324752]
0261 0261 0001 32          Extract Zip Spec      0x32 [50] '5.0'
0262 0262 0001 00          Extract OS            0x00 [0] 'MS-DOS'
0263 0264 0002 41 28       General Purpose Flag  0x2841 [10305]
                           [Bit  0]              1 'Encryption'
                           [Bits 1-2]            0 'Normal Compression'
                           [Bit  6]              1 'Strong Encryption'
                           [Bit 11]              1 'Language Encoding'
                           [Bit 13]              1 'Encrypted Central Dir'
0265 0266 0002 08 00       Compression Method    0x0008 [8] 'Deflated'
0267 026A 0004 00 00 00 00 Last Mod Time         0x00000000 [0] 'No Date/Time'
026B 026E 0004 00 00 00 00 CRC                   0x00000000 [0]
026F 0272 0004 46 02 00 00 Compressed Length     0x00000246 [582]
0273 0276 0004 00 00 00 00 Uncompressed Length   0x00000000 [0]
0277 0278 0002 01 00       Filename Length       0x0001 [1]
0279 027A 0002 00 00       Extra Length          0x0000 [0]
027B 027B 0001 32          Filename              '2'

027C 027B 0000             DECRYPTION HEADER
                           RECORD
027C 027D 0002 10 00       IVSize                0x0010 [16]
027E 028D 0010 9A A0 6D 94 IVData                9A A0 6D 94 47 78 3D F7 32 14 89 BE D0 20 23 F6
               47 78 3D F7
               32 14 89 BE
               D0 20 23 F6
028E 0291 0004 18 01 00 00 Size                  0x00000118 [280]
0292 0293 0002 03 00       Format                0x0003 [3]
0294 0295 0002 03 66       AlgId                 0x6603 [26115] '3DES 168'
0296 0297 0002 A8 00       BitLen                0x00A8 [168]
0298 0299 0002 01 00       Flags                 0x0001 [1] 'Password required to decrypt'
029A 029B 0002 88 00       ErdSize               0x0088 [136]
029C 0323 0088 B6 58 A4 04 ErdData               B6 58 A4 04 24 29 3E F4 A4 5E 45 CB 6D DA 8F 2F
               24 29 3E F4                       77 5B C7 42 37 B2 DA 5E 8F 0E 84 C8 4C 5D 10 14
               A4 5E 45 CB                       65 65 4D 29 0F 15 0F D0 96 A7 78 DD 66 18 1E 80
               6D DA 8F 2F                       C4 CC 24 8B 90 B1 DD E3 64 17 3F D5 0B 37 CA F0
               77 5B C7 42                       95 B8 A1 22 42 D4 B4 59 86 CC B2 7F 3E CF 90 09
               37 B2 DA 5E                       60 61 DA 24 9A 48 04 8F 6B 6A F4 BC 3E 12 95 28
               8F 0E 84 C8                       2A 6F 2B 8C 2A A1 02 4F 38 E7 51 CE E2 45 B2 61
               4C 5D 10 14                       79 06 64 2C C9 6D 74 E0 06 40 84 21 13 6A 1B 00
               65 65 4D 29                       BE EF 0F 60 63 80 07 76
               0F 15 0F D0
               96 A7 78 DD
               66 18 1E 80
               C4 CC 24 8B
               90 B1 DD E3
               64 17 3F D5
               0B 37 CA F0
               95 B8 A1 22
               42 D4 B4 59
               86 CC B2 7F
               3E CF 90 09
               60 61 DA 24
               9A 48 04 8F
               6B 6A F4 BC
               3E 12 95 28
               2A 6F 2B 8C
               2A A1 02 4F
               38 E7 51 CE
               E2 45 B2 61
               79 06 64 2C
               C9 6D 74 E0
               06 40 84 21
               13 6A 1B 00
               BE EF 0F 60
               63 80 07 76
0324 0327 0004 00 00 00 00 RCount                0x00000000 [0]
0328 0329 0002 80 00       VSize                 0x0080 [128]
032A 03A5 007C 83 86 AB F9 VData                 83 86 AB F9 70 84 49 66 AC 58 97 32 8E C7 09 E7
               70 84 49 66                       B6 1F DD E7 B9 A2 24 FE 3A F4 98 8A DE EE 3E 00
               AC 58 97 32                       42 84 D6 40 46 23 29 A1 BC FB 2E A1 15 66 92 FD
               8E C7 09 E7                       C4 3D 63 3B 4C 38 70 5A 5E 92 C6 5F 48 EC CE AF
               B6 1F DD E7                       DA 17 10 C2 4E A2 7B 87 FC F1 AD 97 FC 40 BB 38
               B9 A2 24 FE                       03 D1 4D A8 F9 A8 E5 18 4C E1 CA 06 AB 43 AC 7D
               3A F4 98 8A                       B7 65 51 68 BD 3B 1C E0 F3 1A 1B 85 B0 92 53 50
               DE EE 3E 00                       89 BE 2B 40 A5 11 C4 F9 CD 51 BE DC
               42 84 D6 40
               46 23 29 A1
               BC FB 2E A1
               15 66 92 FD
               C4 3D 63 3B
               4C 38 70 5A
               5E 92 C6 5F
               48 EC CE AF
               DA 17 10 C2
               4E A2 7B 87
               FC F1 AD 97
               FC 40 BB 38
               03 D1 4D A8
               F9 A8 E5 18
               4C E1 CA 06
               AB 43 AC 7D
               B7 65 51 68
               BD 3B 1C E0
               F3 1A 1B 85
               B0 92 53 50
               89 BE 2B 40
               A5 11 C4 F9
               CD 51 BE DC
03A6 03A9 0004 4E 27 78 0C VCRC32                0x0C78274E [209200974]
03AA 04C1 0118 ...         PAYLOAD

04C2 04C1 0000             CENTRAL HEADER
                           DECRYPTION RECORD
04C2 04C3 0002 10 00       IVSize                0x0010 [16]
04C4 04D3 0010 F4 67 E2 32 IVData                F4 67 E2 32 C6 4A F1 63 F2 DF 30 85 67 52 72 14
               C6 4A F1 63
               F2 DF 30 85
               67 52 72 14
04D4 04D7 0004 18 01 00 00 Size                  0x00000118 [280]
04D8 04D9 0002 03 00       Format                0x0003 [3]
04DA 04DB 0002 03 66       AlgId                 0x6603 [26115] '3DES 168'
04DC 04DD 0002 A8 00       BitLen                0x00A8 [168]
04DE 04DF 0002 01 00       Flags                 0x0001 [1] 'Password required to decrypt'
04E0 04E1 0002 88 00       ErdSize               0x0088 [136]
04E2 0569 0088 B6 58 A4 04 ErdData               B6 58 A4 04 24 29 3E F4 A4 5E 45 CB 6D DA 8F 2F
               24 29 3E F4                       77 5B C7 42 37 B2 DA 5E 8F 0E 84 C8 4C 5D 10 14
               A4 5E 45 CB                       65 65 4D 29 0F 15 0F D0 96 A7 78 DD 66 18 1E 80
               6D DA 8F 2F                       C4 CC 24 8B 90 B1 DD E3 64 17 3F D5 0B 37 CA F0
               77 5B C7 42                       95 B8 A1 22 42 D4 B4 59 86 CC B2 7F 3E CF 90 09
               37 B2 DA 5E                       60 61 DA 24 9A 48 04 8F 6B 6A F4 BC 3E 12 95 28
               8F 0E 84 C8                       2A 6F 2B 8C 2A A1 02 4F 38 E7 51 CE E2 45 B2 61
               4C 5D 10 14                       79 06 64 2C C9 6D 74 E0 06 40 84 21 13 6A 1B 00
               65 65 4D 29                       BE EF 0F 60 63 80 07 76
               0F 15 0F D0
               96 A7 78 DD
               66 18 1E 80
               C4 CC 24 8B
               90 B1 DD E3
               64 17 3F D5
               0B 37 CA F0
               95 B8 A1 22
               42 D4 B4 59
               86 CC B2 7F
               3E CF 90 09
               60 61 DA 24
               9A 48 04 8F
               6B 6A F4 BC
               3E 12 95 28
               2A 6F 2B 8C
               2A A1 02 4F
               38 E7 51 CE
               E2 45 B2 61
               79 06 64 2C
               C9 6D 74 E0
               06 40 84 21
               13 6A 1B 00
               BE EF 0F 60
               63 80 07 76
056A 056D 0004 00 00 00 00 RCount                0x00000000 [0]
056E 056F 0002 80 00       VSize                 0x0080 [128]
0570 05EB 007C 6F D1 2E BF VData                 6F D1 2E BF 02 DF E2 F3 F5 14 2E DC 8C 1A 13 F5
               02 DF E2 F3                       9F 07 16 E3 E6 8E CF B8 7F 4E 44 96 D1 67 FF 4A
               F5 14 2E DC                       47 57 63 81 FA EB 71 52 92 5E 5E 07 9F CE EC CC
               8C 1A 13 F5                       71 DB BA FE 4E 91 AC E2 C1 4F 18 01 52 BC BE E1
               9F 07 16 E3                       C5 6E E4 A7 77 60 19 9B 9C BF B0 52 C6 F6 89 22
               E6 8E CF B8                       EC 69 24 1C 86 A5 D9 C5 6C 7B 17 2B AC C9 55 04
               7F 4E 44 96                       1B E4 09 6E 79 94 1B EC D7 2A 54 82 DA 2E 20 C7
               D1 67 FF 4A                       5A B8 5C 97 1C 78 F3 24 86 66 4B A4
               47 57 63 81
               FA EB 71 52
               92 5E 5E 07
               9F CE EC CC
               71 DB BA FE
               4E 91 AC E2
               C1 4F 18 01
               52 BC BE E1
               C5 6E E4 A7
               77 60 19 9B
               9C BF B0 52
               C6 F6 89 22
               EC 69 24 1C
               86 A5 D9 C5
               6C 7B 17 2B
               AC C9 55 04
               1B E4 09 6E
               79 94 1B EC
               D7 2A 54 82
               DA 2E 20 C7
               5A B8 5C 97
               1C 78 F3 24
               86 66 4B A4
05EC 05EF 0004 40 7D 08 7E VCRC32                0x7E087D40 [2114485568]

05F0 067F 0090 9A A9 4F 00 ENCRYPTED CENTRAL     ..O.......d$3k;..s...E.........w..*....0........=..H75.pp.k..a.........{........=.$...Kx..&.5
               BE 14 94 8B DIRECTORY             .........V.\.8-Zl.l....h.@.......t....t...C.t"(9K.
               C5 F1 64 24
               33 6B 3B FC
               12 73 E0 B3
               94 45 85 08
               19 1D F7 F6
               DC 7F BB 77
               9F 85 2A CA
               9C D2 1D 30
               1B A0 DD E8
               83 FF 0E B2
               3D 15 10 48
               37 35 BD 70
               70 A4 6B 2E
               D0 61 8B A5
               80 A8 D8 BE
               BB C4 E2 7B
               E6 0D D9 89
               DC E3 E0 F9
               3D 9C 24 EE
               F5 D6 4B 78
               07 2E 26 D7
               35 20 91 A1
               92 C3 10 FF
               B2 1C 84 56
               0D 5C 1F 38
               2D 5A 6C ED
               6C B5 A0 FB
               1B 68 F1 40
               9C 8E 11 DC
               CB FE DF 74
               EF B3 1A CC
               74 AF 00 88
               43 B7 74 22
               28 39 4B 9E

0680 0683 0004 50 4B 06 06 ZIP64 END CENTRAL DIR 0x06064B50 [101075792]
                           RECORD
0684 068B 0008 4C 00 00 00 Size of record        0x000000000000004C [76]
               00 00 00 00
068C 068C 0001 41          Created Zip Spec      0x41 [65] '6.5'
068D 068D 0001 00          Created OS            0x00 [0] 'MS-DOS'
068E 068E 0001 3E          Extract Zip Spec      0x3E [62] '6.2'
068F 068F 0001 00          Extract OS            0x00 [0] 'MS-DOS'
0690 0693 0004 00 00 00 00 Number of this disk   0x00000000 [0]
0694 0697 0004 00 00 00 00 Central Dir Disk no   0x00000000 [0]
0698 069F 0008 00 00 00 00 Entries in this disk  0x0000000000000000 [0]
               00 00 00 00
06A0 06A7 0008 02 00 00 00 Total Entries         0x0000000000000002 [2]
               00 00 00 00
06A8 06AF 0008 BE 01 00 00 Size of Central Dir   0x00000000000001BE [446]
               00 00 00 00
06B0 06B7 0008 C2 04 00 00 Offset to Central dir 0x00000000000004C2 [1218]
               00 00 00 00
06B8 06B9 0002 08 00       Compression Method    0x0008 [8] 'Deflated'
06BA 06C1 0008 BE 01 00 00 Compressed Length     0x00000000000001BE [446]
               00 00 00 00
06C2 06C9 0008 D7 00 00 00 Uncompressed Length   0x00000000000000D7 [215]
               00 00 00 00
06CA 06CB 0002 03 66       AlgId                 0x6603 [26115] '3DES 168'
06CC 06CD 0002 A8 00       BitLen                0x00A8 [168]
06CE 06CF 0002 01 00       Flags                 0x0001 [1] 'Password required to decrypt'
06D0 06D1 0002 01 00       HashID                0x0001 [1] 'CRC32'
06D2 06D3 0002 04 00       Hash Length           0x0004 [4]
06D4 06D7 0004 40 A2 01 AB Hash Data             40 A2 01 AB

06D8 06DB 0004 50 4B 06 07 ZIP64 END CENTRAL DIR 0x07064B50 [117853008]
                           LOCATOR
06DC 06DF 0004 00 00 00 00 Central Dir Disk no   0x00000000 [0]
06E0 06E7 0008 80 06 00 00 Offset to Zip64 EOCD  0x0000000000000680 [1664]
               00 00 00 00
06E8 06EB 0004 01 00 00 00 Total no of Disks     0x00000001 [1]

06EC 06EF 0004 50 4B 05 06 END CENTRAL HEADER    0x06054B50 [101010256]
06F0 06F1 0002 00 00       Number of this disk   0x0000 [0]
06F2 06F3 0002 00 00       Central Dir Disk no   0x0000 [0]
06F4 06F5 0002 00 00       Entries in this disk  0x0000 [0]
06F6 06F7 0002 FF FF       Total Entries         0xFFFF [65535]
06F8 06FB 0004 BE 01 00 00 Size of Central Dir   0x000001BE [446]
06FC 06FF 0004 C2 04 00 00 Offset to Central Dir 0x000004C2 [1218]
0700 0701 0002 00 00       Comment Length        0x0000 [0]
#
# WARNING: Local Directory exists, but Central Directory is encrypted
#
# Warning Count: 1
#
# Done
