
0000 0003 0004 50 4B 03 04 LOCAL HEADER #1       04034B50 (67324752)
0004 0004 0001 0A          Extract Zip Spec      0A (10) '1.0'
0005 0005 0001 00          Extract OS            00 (0) 'MS-DOS'
0006 0007 0002 08 00       General Purpose Flag  0008 (8)
                           [Bit  3]              1 'Streamed'
0008 0009 0002 00 00       Compression Method    0000 (0) 'Stored'
000A 000D 0004 BC A5 8E 58 Modification Time     588EA5BC (1485743548) 'Sun Apr 14 20:45:56 2024'
000E 0011 0004 00 00 00 00 CRC                   00000000 (0)
0012 0015 0004 BE 01 00 00 Compressed Size       000001BE (446)
0016 0019 0004 BE 01 00 00 Uncompressed Size     000001BE (446)
001A 001B 0002 09 00       Filename Length       0009 (9)
001C 001D 0002 20 00       Extra Length          0020 (32)
001E 0026 0009 6C 6F 72 65 Filename              'lorem.txt'
               6D 2E 74 78
               74
0027 0028 0002 55 54       Extra ID #1           5455 (21589) 'Extended Timestamp [UT]'
0029 002A 0002 0D 00         Length              000D (13)
002B 002B 0001 07            Flags               07 (7) 'Modification Access Creation'
002C 002F 0004 74 32 1C 66   Modification Time   661C3274 (1713123956) 'Sun Apr 14 19:45:56 2024'
0030 0033 0004 A8 32 1C 66   Access Time         661C32A8 (1713124008) 'Sun Apr 14 19:46:48 2024'
0034 0037 0004 74 32 1C 66   Creation Time       661C3274 (1713123956) 'Sun Apr 14 19:45:56 2024'
0038 0039 0002 75 78       Extra ID #2           7875 (30837) 'Unix Extra type 3 [ux]'
003A 003B 0002 0B 00         Length              000B (11)
003C 003C 0001 01            Version             01 (1)
003D 003D 0001 04            UID Size            04 (4)
003E 0041 0004 E8 03 00 00   UID                 000003E8 (1000)
0042 0042 0001 04            GID Size            04 (4)
0043 0046 0004 E8 03 00 00   GID                 000003E8 (1000)
0047 0204 01BE ...         PAYLOAD

0205 0208 0004 50 4B 07 08 DATA DESCRIPTOR       08074B50 (134695760)
0209 020C 0004 FF E7 0E F9 CRC                   F90EE7FF (4178503679)
020D 0210 0004 BE 01 00 00 Compressed Size       000001BE (446)
0211 0214 0004 BE 01 00 00 Uncompressed Size     000001BE (446)

0215 0218 0004 50 4B 01 02 CENTRAL HEADER #1     02014B50 (33639248)
0219 0219 0001 0A          Created Zip Spec      0A (10) '1.0'
021A 021A 0001 03          Created OS            03 (3) 'Unix'
021B 021B 0001 0A          Extract Zip Spec      0A (10) '1.0'
021C 021C 0001 00          Extract OS            00 (0) 'MS-DOS'
021D 021E 0002 08 00       General Purpose Flag  0008 (8)
                           [Bit  3]              1 'Streamed'
021F 0220 0002 00 00       Compression Method    0000 (0) 'Stored'
0221 0224 0004 BC A5 8E 58 Modification Time     588EA5BC (1485743548) 'Sun Apr 14 20:45:56 2024'
0225 0228 0004 FF E7 0E F9 CRC                   F90EE7FF (4178503679)
0229 022C 0004 BE 01 00 00 Compressed Size       000001BE (446)
022D 0230 0004 BE 01 00 00 Uncompressed Size     000001BE (446)
0231 0232 0002 09 00       Filename Length       0009 (9)
0233 0234 0002 20 00       Extra Length          0020 (32)
0235 0236 0002 00 00       Comment Length        0000 (0)
0237 0238 0002 00 00       Disk Start            0000 (0)
0239 023A 0002 00 00       Int File Attributes   0000 (0)
                           [Bit 0]               0 'Binary Data'
023B 023E 0004 00 00 ED 81 Ext File Attributes   81ED0000 (2179792896)
                           [Bits 16-24]          01ED (493) 'Unix attrib: rwxr-xr-x'
                           [Bits 28-31]          08 (8) 'Regular File'
023F 0242 0004 00 00 00 00 Local Header Offset   00000000 (0)
0243 024B 0009 6C 6F 72 65 Filename              'lorem.txt'
               6D 2E 74 78
               74
024C 024D 0002 55 54       Extra ID #1           5455 (21589) 'Extended Timestamp [UT]'
024E 024F 0002 0D 00         Length              000D (13)
0250 0250 0001 07            Flags               07 (7) 'Modification Access Creation'
0251 0254 0004 74 32 1C 66   Modification Time   661C3274 (1713123956) 'Sun Apr 14 19:45:56 2024'
#
# INFO: Offset 0x255: Extra Field 'Extended Timestamp [UT]' (ID 0x5455): Unexpected 'Access Time' present
#
0255 0258 0004 A8 32 1C 66   Access Time         661C32A8 (1713124008) 'Sun Apr 14 19:46:48 2024'
#
# INFO: Offset 0x259: Extra Field 'Extended Timestamp [UT]' (ID 0x5455): Unexpected 'Creation Time' present
#
0259 025C 0004 74 32 1C 66   Creation Time       661C3274 (1713123956) 'Sun Apr 14 19:45:56 2024'
025D 025E 0002 75 78       Extra ID #2           7875 (30837) 'Unix Extra type 3 [ux]'
025F 0260 0002 0B 00         Length              000B (11)
0261 0261 0001 01            Version             01 (1)
0262 0262 0001 04            UID Size            04 (4)
0263 0266 0004 E8 03 00 00   UID                 000003E8 (1000)
0267 0267 0001 04            GID Size            04 (4)
0268 026B 0004 E8 03 00 00   GID                 000003E8 (1000)

026C 026F 0004 50 4B 05 06 END CENTRAL HEADER    06054B50 (101010256)
0270 0271 0002 00 00       Number of this disk   0000 (0)
0272 0273 0002 00 00       Central Dir Disk no   0000 (0)
0274 0275 0002 01 00       Entries in this disk  0001 (1)
0276 0277 0002 01 00       Total Entries         0001 (1)
0278 027B 0004 57 00 00 00 Size of Central Dir   00000057 (87)
027C 027F 0004 15 02 00 00 Offset to Central Dir 00000215 (533)
0280 0281 0002 00 00       Comment Length        0000 (0)
#
# Info Count: 2
#
# Done
