
0000 0003 0004 50 4B 03 04 LOCAL HEADER #1       04034B50 (67324752)
0004 0004 0001 2D          Extract Zip Spec      2D (45) '4.5'
0005 0005 0001 00          Extract OS            00 (0) 'MS-DOS'
0006 0007 0002 00 00       General Purpose Flag  0000 (0)
0008 0009 0002 00 00       Compression Method    0000 (0) 'Stored'
000A 000D 0004 61 88 C1 50 Modification Time     50C18861 (1354860641) 'Mon Jun  1 17:03:02 2020'
000E 0011 0004 12 13 05 72 CRC                   72051312 (1912935186)
0012 0015 0004 FF FF FF FF Compressed Size       FFFFFFFF (4294967295)
0016 0019 0004 FF FF FF FF Uncompressed Size     FFFFFFFF (4294967295)
001A 001B 0002 08 00       Filename Length       0008 (8)
001C 001D 0002 30 00       Extra Length          0030 (48)
001E 0025 0008 64 61 74 61 Filename              'data.txt'
               2E 74 78 74
0026 0027 0002 55 54       Extra ID #1           5455 (21589) 'Extended Timestamp [UT]'
0028 0029 0002 09 00         Length              0009 (9)
002A 002A 0001 03            Flags               03 (3) 'Modification Access'
002B 002E 0004 B6 26 D5 5E   Modification Time   5ED526B6 (1591027382) 'Mon Jun  1 16:03:02 2020'
002F 0032 0004 B6 26 D5 5E   Access Time         5ED526B6 (1591027382) 'Mon Jun  1 16:03:02 2020'
0033 0034 0002 75 78       Extra ID #2           7875 (30837) 'Unix Extra type 3 [ux]'
0035 0036 0002 0B 00         Length              000B (11)
0037 0037 0001 01            Version             01 (1)
0038 0038 0001 04            UID Size            04 (4)
0039 003C 0004 E8 03 00 00   UID                 000003E8 (1000)
003D 003D 0001 04            GID Size            04 (4)
003E 0041 0004 E8 03 00 00   GID                 000003E8 (1000)
0042 0043 0002 01 00       Extra ID #3           0001 (1) 'ZIP64'
0044 0045 0002 10 00         Length              0010 (16)
0046 004D 0008 0F 00 00 00   Uncompressed Size   000000000000000F (15)
               00 00 00 00
004E 0055 0008 0F 00 00 00   Compressed Size     000000000000000F (15)
               00 00 00 00
0056 0064 000F 74 68 69 73 PAYLOAD               this is a test.
               20 69 73 20
               61 20 74 65
               73 74 0A

0065 0068 0004 50 4B 01 02 CENTRAL HEADER #1     02014B50 (33639248)
0069 0069 0001 1E          Created Zip Spec      1E (30) '3.0'
006A 006A 0001 03          Created OS            03 (3) 'Unix'
006B 006B 0001 2D          Extract Zip Spec      2D (45) '4.5'
006C 006C 0001 00          Extract OS            00 (0) 'MS-DOS'
006D 006E 0002 00 00       General Purpose Flag  0000 (0)
006F 0070 0002 00 00       Compression Method    0000 (0) 'Stored'
0071 0074 0004 61 88 C1 50 Modification Time     50C18861 (1354860641) 'Mon Jun  1 17:03:02 2020'
0075 0078 0004 12 13 05 72 CRC                   72051312 (1912935186)
0079 007C 0004 0F 00 00 00 Compressed Size       0000000F (15)
007D 0080 0004 FF FF FF FF Uncompressed Size     FFFFFFFF (4294967295)
0081 0082 0002 08 00       Filename Length       0008 (8)
0083 0084 0002 24 00       Extra Length          0024 (36)
0085 0086 0002 00 00       Comment Length        0000 (0)
0087 0088 0002 00 00       Disk Start            0000 (0)
0089 008A 0002 01 00       Int File Attributes   0001 (1)
                           [Bit 0]               1 'Text Data'
008B 008E 0004 00 00 B4 81 Ext File Attributes   81B40000 (2176057344)
                           [Bits 16-24]          01B4 (436) 'Unix attrib: rw-rw-r--'
                           [Bits 28-31]          08 (8) 'Regular File'
008F 0092 0004 00 00 00 00 Local Header Offset   00000000 (0)
0093 009A 0008 64 61 74 61 Filename              'data.txt'
               2E 74 78 74
009B 009C 0002 55 54       Extra ID #1           5455 (21589) 'Extended Timestamp [UT]'
009D 009E 0002 05 00         Length              0005 (5)
009F 009F 0001 03            Flags               03 (3) 'Modification Access'
00A0 00A3 0004 B6 26 D5 5E   Modification Time   5ED526B6 (1591027382) 'Mon Jun  1 16:03:02 2020'
00A4 00A5 0002 75 78       Extra ID #2           7875 (30837) 'Unix Extra type 3 [ux]'
00A6 00A7 0002 0B 00         Length              000B (11)
00A8 00A8 0001 01            Version             01 (1)
00A9 00A9 0001 04            UID Size            04 (4)
00AA 00AD 0004 E8 03 00 00   UID                 000003E8 (1000)
00AE 00AE 0001 04            GID Size            04 (4)
00AF 00B2 0004 E8 03 00 00   GID                 000003E8 (1000)
00B3 00B4 0002 01 00       Extra ID #3           0001 (1) 'ZIP64'
00B5 00B6 0002 08 00         Length              0008 (8)
00B7 00BE 0008 0F 00 00 00   Uncompressed Size   000000000000000F (15)
               00 00 00 00

00BF 00C2 0004 50 4B 06 06 ZIP64 END CENTRAL DIR 06064B50 (101075792)
                           RECORD
00C3 00CA 0008 2C 00 00 00 Size of record        000000000000002C (44)
               00 00 00 00
00CB 00CB 0001 1E          Created Zip Spec      1E (30) '3.0'
00CC 00CC 0001 03          Created OS            03 (3) 'Unix'
00CD 00CD 0001 2D          Extract Zip Spec      2D (45) '4.5'
00CE 00CE 0001 00          Extract OS            00 (0) 'MS-DOS'
00CF 00D2 0004 00 00 00 00 Number of this disk   00000000 (0)
00D3 00D6 0004 00 00 00 00 Central Dir Disk no   00000000 (0)
00D7 00DE 0008 01 00 00 00 Entries in this disk  0000000000000001 (1)
               00 00 00 00
00DF 00E6 0008 01 00 00 00 Total Entries         0000000000000001 (1)
               00 00 00 00
00E7 00EE 0008 5A 00 00 00 Size of Central Dir   000000000000005A (90)
               00 00 00 00
00EF 00F6 0008 65 00 00 00 Offset to Central dir 0000000000000065 (101)
               00 00 00 00

00F7 00FA 0004 50 4B 06 07 ZIP64 END CENTRAL DIR 07064B50 (117853008)
                           LOCATOR
00FB 00FE 0004 00 00 00 00 Central Dir Disk no   00000000 (0)
00FF 0106 0008 BF 00 00 00 Offset to Zip64 EOCD  00000000000000BF (191)
               00 00 00 00
0107 010A 0004 00 00 00 00 Total no of Disks     00000000 (0)

010B 010E 0004 50 4B 05 06 END CENTRAL HEADER    06054B50 (101010256)
010F 0110 0002 00 00       Number of this disk   0000 (0)
0111 0112 0002 00 00       Central Dir Disk no   0000 (0)
0113 0114 0002 01 00       Entries in this disk  0001 (1)
0115 0116 0002 01 00       Total Entries         0001 (1)
0117 011A 0004 5A 00 00 00 Size of Central Dir   0000005A (90)
011B 011E 0004 FF FF FF FF Offset to Central Dir FFFFFFFF (4294967295)
011F 0120 0002 00 00       Comment Length        0000 (0)
#
# Done
