
0000 0003 0004 50 4B 03 04 LOCAL HEADER #1       0x04034B50 [67324752]
0004 0004 0001 19          Extract Zip Spec      0x19 [25] '2.5'
0005 0005 0001 00          Extract OS            0x00 [0] 'MS-DOS'
0006 0007 0002 00 08       General Purpose Flag  0x0800 [2048]
                           [Bit 11]              1 'Language Encoding'
0008 0009 0002 0A 00       Compression Method    0x000A [10] 'PKWARE Data Compression Library Imploding'
000A 000D 0004 D3 78 F6 54 Last Mod Time         0x54F678D3 [1425438931] 'Fri Jul 22 15:06:38 2022'
000E 0011 0004 FF E7 0E F9 CRC                   0xF90EE7FF [4178503679]
0012 0015 0004 5D 01 00 00 Compressed Length     0x0000015D [349]
0016 0019 0004 BE 01 00 00 Uncompressed Length   0x000001BE [446]
001A 001B 0002 09 00       Filename Length       0x0009 [9]
001C 001D 0002 00 00       Extra Length          0x0000 [0]
001E 0026 0009 6C 6F 72 65 Filename              'lorem.txt'
               6D 2E 74 78
               74
0027 0183 015D ...         PAYLOAD

0184 0187 0004 50 4B 03 04 LOCAL HEADER #2       0x04034B50 [67324752]
0188 0188 0001 19          Extract Zip Spec      0x19 [25] '2.5'
0189 0189 0001 00          Extract OS            0x00 [0] 'MS-DOS'
018A 018B 0002 00 08       General Purpose Flag  0x0800 [2048]
                           [Bit 11]              1 'Language Encoding'
018C 018D 0002 0A 00       Compression Method    0x000A [10] 'PKWARE Data Compression Library Imploding'
018E 0191 0004 A5 6E FD 54 Last Mod Time         0x54FD6EA5 [1425895077] 'Fri Jul 29 13:53:10 2022'
0192 0195 0004 3C C8 F5 41 CRC                   0x41F5C83C [1106626620]
0196 0199 0004 5F 01 00 00 Compressed Length     0x0000015F [351]
019A 019D 0004 BF 01 00 00 Uncompressed Length   0x000001BF [447]
019E 019F 0002 0A 00       Filename Length       0x000A [10]
01A0 01A1 0002 00 00       Extra Length          0x0000 [0]
01A2 01AB 000A 6C 6F 72 65 Filename              'lorem2.txt'
               6D 32 2E 74
               78 74
01AC 030A 015F ...         PAYLOAD

030B 030E 0004 50 4B 01 02 CENTRAL HEADER #1     0x02014B50 [33639248]
030F 030F 0001 41          Created Zip Spec      0x41 [65] '6.5'
0310 0310 0001 00          Created OS            0x00 [0] 'MS-DOS'
0311 0311 0001 19          Extract Zip Spec      0x19 [25] '2.5'
0312 0312 0001 00          Extract OS            0x00 [0] 'MS-DOS'
0313 0314 0002 00 08       General Purpose Flag  0x0800 [2048]
                           [Bit 11]              1 'Language Encoding'
0315 0316 0002 0A 00       Compression Method    0x000A [10] 'PKWARE Data Compression Library Imploding'
0317 031A 0004 D3 78 F6 54 Last Mod Time         0x54F678D3 [1425438931] 'Fri Jul 22 15:06:38 2022'
031B 031E 0004 FF E7 0E F9 CRC                   0xF90EE7FF [4178503679]
031F 0322 0004 5D 01 00 00 Compressed Length     0x0000015D [349]
0323 0326 0004 BE 01 00 00 Uncompressed Length   0x000001BE [446]
0327 0328 0002 09 00       Filename Length       0x0009 [9]
0329 032A 0002 24 00       Extra Length          0x0024 [36]
032B 032C 0002 00 00       Comment Length        0x0000 [0]
032D 032E 0002 00 00       Disk Start            0x0000 [0]
032F 0330 0002 01 00       Int File Attributes   0x0001 [1]
                           [Bit 0]               1 'Text Data'
0331 0334 0004 20 00 00 00 Ext File Attributes   0x00000020 [32]
                           [Bit 5]               Archive
0335 0338 0004 00 00 00 00 Local Header Offset   0x00000000 [0]
0339 0341 0009 6C 6F 72 65 Filename              'lorem.txt'
               6D 2E 74 78
               74
0342 0343 0002 0A 00       Extra ID #1           0x000A [10] 'NTFS FileTimes'
0344 0345 0002 20 00         Length              0x0020 [32]
0346 0349 0004 00 00 00 00   Reserved            0x00000000 [0]
034A 034B 0002 01 00         Tag1                0x0001 [1]
034C 034D 0002 18 00         Size1               0x0018 [24]
034E 0355 0008 00 6B 65 42   Mtime               0x01D89DD442656B00 [133029723980000000] 'Fri Jul 22 14:06:38 2022 0ns'
               D4 9D D8 01
0356 035D 0008 A2 97 3A E1   Atime               0x01D8A4B6E13A97A2 [133037294377146274] 'Sun Jul 31 08:23:57 2022 714627400ns'
               B6 A4 D8 01
035E 0365 0008 1D FB 7D DB   Ctime               0x01D89F5FDB7DFB1D [133031423060605725] 'Sun Jul 24 13:18:26 2022 60572500ns'
               5F 9F D8 01

0366 0369 0004 50 4B 01 02 CENTRAL HEADER #2     0x02014B50 [33639248]
036A 036A 0001 41          Created Zip Spec      0x41 [65] '6.5'
036B 036B 0001 00          Created OS            0x00 [0] 'MS-DOS'
036C 036C 0001 19          Extract Zip Spec      0x19 [25] '2.5'
036D 036D 0001 00          Extract OS            0x00 [0] 'MS-DOS'
036E 036F 0002 00 08       General Purpose Flag  0x0800 [2048]
                           [Bit 11]              1 'Language Encoding'
0370 0371 0002 0A 00       Compression Method    0x000A [10] 'PKWARE Data Compression Library Imploding'
0372 0375 0004 A5 6E FD 54 Last Mod Time         0x54FD6EA5 [1425895077] 'Fri Jul 29 13:53:10 2022'
0376 0379 0004 3C C8 F5 41 CRC                   0x41F5C83C [1106626620]
037A 037D 0004 5F 01 00 00 Compressed Length     0x0000015F [351]
037E 0381 0004 BF 01 00 00 Uncompressed Length   0x000001BF [447]
0382 0383 0002 0A 00       Filename Length       0x000A [10]
0384 0385 0002 24 00       Extra Length          0x0024 [36]
0386 0387 0002 00 00       Comment Length        0x0000 [0]
0388 0389 0002 00 00       Disk Start            0x0000 [0]
038A 038B 0002 01 00       Int File Attributes   0x0001 [1]
                           [Bit 0]               1 'Text Data'
038C 038F 0004 20 00 00 00 Ext File Attributes   0x00000020 [32]
                           [Bit 5]               Archive
0390 0393 0004 84 01 00 00 Local Header Offset   0x00000184 [388]
0394 039D 000A 6C 6F 72 65 Filename              'lorem2.txt'
               6D 32 2E 74
               78 74
039E 039F 0002 0A 00       Extra ID #1           0x000A [10] 'NTFS FileTimes'
03A0 03A1 0002 20 00         Length              0x0020 [32]
03A2 03A5 0004 00 00 00 00   Reserved            0x00000000 [0]
03A6 03A7 0002 01 00         Tag1                0x0001 [1]
03A8 03A9 0002 18 00         Size1               0x0018 [24]
03AA 03B1 0008 14 EA 72 27   Mtime               0x01D8A34A2772EA14 [133035727892179476] 'Fri Jul 29 12:53:09 2022 217947600ns'
               4A A3 D8 01
03B2 03B9 0008 A2 97 3A E1   Atime               0x01D8A4B6E13A97A2 [133037294377146274] 'Sun Jul 31 08:23:57 2022 714627400ns'
               B6 A4 D8 01
03BA 03C1 0008 C3 C8 58 21   Ctime               0x01D8A34A2158C8C3 [133035727789803715] 'Fri Jul 29 12:52:58 2022 980371500ns'
               4A A3 D8 01

03C2 03C5 0004 50 4B 05 06 END CENTRAL HEADER    0x06054B50 [101010256]
03C6 03C7 0002 00 00       Number of this disk   0x0000 [0]
03C8 03C9 0002 00 00       Central Dir Disk no   0x0000 [0]
03CA 03CB 0002 02 00       Entries in this disk  0x0002 [2]
03CC 03CD 0002 02 00       Total Entries         0x0002 [2]
03CE 03D1 0004 B7 00 00 00 Size of Central Dir   0x000000B7 [183]
03D2 03D5 0004 0B 03 00 00 Offset to Central Dir 0x0000030B [779]
03D6 03D7 0002 00 00       Comment Length        0x0000 [0]
#
# Done
