
0000 0003 0004 50 4B 03 04 LOCAL HEADER #1       04034B50
0004 0004 0001 2D          Extract Zip Spec      2D '4.5'
0005 0005 0001 00          Extract OS            00 'MS-DOS'
0006 0007 0002 08 00       General Purpose Flag  0008
                           [Bits 1-2]            0 'Normal Compression'
                           [Bit  3]              1 'Streamed'
0008 0009 0002 08 00       Compression Method    0008 'Deflated'
000A 000D 0004 A4 82 97 55 Last Mod Time         559782A4 'Fri Dec 23 16:21:08 2022'
000E 0011 0004 00 00 00 00 CRC                   00000000
0012 0015 0004 FF FF FF FF Compressed Length     FFFFFFFF
0016 0019 0004 FF FF FF FF Uncompressed Length   FFFFFFFF
001A 001B 0002 09 00       Filename Length       0009
001C 001D 0002 14 00       Extra Length          0014
001E 0026 0009 6C 6F 72 65 Filename              'lorem.txt'
               6D 2E 74 78
               74
0027 0028 0002 01 00       Extra ID #0001        0001 'ZIP64'
0029 002A 0002 10 00         Length              0010
002B 0032 0008 00 00 00 00   Uncompressed Size   0000000000000000
               00 00 00 00
0033 003A 0008 00 00 00 00   Compressed Size     0000000000000000
               00 00 00 00
003B 0148 010E ...         PAYLOAD

0149 014C 0004 50 4B 07 08 DATA DESCRIPTOR       08074B50
014D 0150 0004 FF E7 0E F9 CRC                   F90EE7FF
#
# ERROR: Offset 0x14D: 'DATA DESCRIPTOR': expected 64-bit values, got 32-bit
#
0151 0154 0004 0E 01 00 00 Compressed Length     0000010E
0155 0158 0004 BE 01 00 00 Uncompressed Length   000001BE

0159 015C 0004 50 4B 01 02 CENTRAL HEADER #1     02014B50
015D 015D 0001 2D          Created Zip Spec      2D '4.5'
015E 015E 0001 03          Created OS            03 'Unix'
015F 015F 0001 2D          Extract Zip Spec      2D '4.5'
0160 0160 0001 00          Extract OS            00 'MS-DOS'
0161 0162 0002 08 00       General Purpose Flag  0008
                           [Bits 1-2]            0 'Normal Compression'
                           [Bit  3]              1 'Streamed'
0163 0164 0002 08 00       Compression Method    0008 'Deflated'
0165 0168 0004 A4 82 97 55 Last Mod Time         559782A4 'Fri Dec 23 16:21:08 2022'
0169 016C 0004 FF E7 0E F9 CRC                   F90EE7FF
016D 0170 0004 0E 01 00 00 Compressed Length     0000010E
0171 0174 0004 BE 01 00 00 Uncompressed Length   000001BE
0175 0176 0002 09 00       Filename Length       0009
0177 0178 0002 00 00       Extra Length          0000
0179 017A 0002 00 00       Comment Length        0000
017B 017C 0002 00 00       Disk Start            0000
017D 017E 0002 01 00       Int File Attributes   0001
                           [Bit 0]               1 'Text Data'
017F 0182 0004 00 00 A4 81 Ext File Attributes   81A40000
                           [Bits 16-24]          01A4 'Unix attrib: rw-r--r--'
                           [Bits 28-31]          08 'Regular File'
0183 0186 0004 00 00 00 00 Local Header Offset   00000000
0187 018F 0009 6C 6F 72 65 Filename              'lorem.txt'
               6D 2E 74 78
               74

0190 0193 0004 50 4B 06 06 ZIP64 END CENTRAL DIR 06064B50
                           RECORD
0194 019B 0008 2C 00 00 00 Size of record        000000000000002C
               00 00 00 00
019C 019C 0001 2D          Created Zip Spec      2D '4.5'
019D 019D 0001 03          Created OS            03 'Unix'
019E 019E 0001 2D          Extract Zip Spec      2D '4.5'
019F 019F 0001 00          Extract OS            00 'MS-DOS'
01A0 01A3 0004 00 00 00 00 Number of this disk   00000000
01A4 01A7 0004 00 00 00 00 Central Dir Disk no   00000000
01A8 01AF 0008 01 00 00 00 Entries in this disk  0000000000000001
               00 00 00 00
01B0 01B7 0008 01 00 00 00 Total Entries         0000000000000001
               00 00 00 00
01B8 01BF 0008 37 00 00 00 Size of Central Dir   0000000000000037
               00 00 00 00
01C0 01C7 0008 59 01 00 00 Offset to Central dir 0000000000000159
               00 00 00 00

01C8 01CB 0004 50 4B 06 07 ZIP64 END CENTRAL DIR 07064B50
                           LOCATOR
01CC 01CF 0004 00 00 00 00 Central Dir Disk no   00000000
01D0 01D7 0008 90 01 00 00 Offset to Zip64 EOCD  0000000000000190
               00 00 00 00
01D8 01DB 0004 01 00 00 00 Total no of Disks     00000001

01DC 01DF 0004 50 4B 05 06 END CENTRAL HEADER    06054B50
01E0 01E1 0002 00 00       Number of this disk   0000
01E2 01E3 0002 00 00       Central Dir Disk no   0000
01E4 01E5 0002 01 00       Entries in this disk  0001
01E6 01E7 0002 01 00       Total Entries         0001
01E8 01EB 0004 37 00 00 00 Size of Central Dir   00000037
01EC 01EF 0004 FF FF FF FF Offset to Central Dir FFFFFFFF
01F0 01F1 0002 00 00       Comment Length        0000
#
# Error Count: 1
#
# Done
