
0000 0003 0004 50 4B 03 04 LOCAL HEADER #1       04034B50 [67324752]
0004 0004 0001 14          Extract Zip Spec      14 [20] '2.0'
0005 0005 0001 00          Extract OS            00 [0] 'MS-DOS'
0006 0007 0002 00 00       General Purpose Flag  0000 [0]
0008 0009 0002 00 00       Compression Method    0000 [0] 'Stored'
000A 000D 0004 63 6E 6C 55 Last Mod Time         556C6E63 [1433169507] 'Sat Nov 12 13:51:06 2022'
000E 0011 0004 65 D8 87 85 CRC                   8587D865 [2240272485]
0012 0015 0004 05 00 00 00 Compressed Length     00000005 [5]
0016 0019 0004 05 00 00 00 Uncompressed Length   00000005 [5]
001A 001B 0002 08 00       Filename Length       0008 [8]
001C 001D 0002 09 00       Extra Length          0009 [9]
001E 0025 0008 66 69 6C 65 Filename              'filename'
               6E 61 6D 65
0026 0027 0002 75 78       Extra ID #1           7875 [30837] 'Unix Extra type 3 [ux]'
0028 0029 0002 05 00         Length              0005 [5]
002A 002A 0001 01            Version             01 [1]
002B 002B 0001 04            UID Size            04 [4]
002C 002E 0003 61 62 63      Bad Extra Data      abc
#
# ERROR: Offset 0x2C: Extra Field 'Unix Extra type 3 [ux]' (ID 0x7875): truncated reading 'UID'
#        Expected 0x4 [4] bytes, got 0x3 [3] bytes
#
002F 0033 0005 61 62 63 64 PAYLOAD               abcde
               65

0034 0037 0004 50 4B 01 02 CENTRAL HEADER #1     02014B50 [33639248]
0038 0038 0001 14          Created Zip Spec      14 [20] '2.0'
0039 0039 0001 03          Created OS            03 [3] 'Unix'
003A 003A 0001 14          Extract Zip Spec      14 [20] '2.0'
003B 003B 0001 00          Extract OS            00 [0] 'MS-DOS'
003C 003D 0002 00 00       General Purpose Flag  0000 [0]
003E 003F 0002 00 00       Compression Method    0000 [0] 'Stored'
0040 0043 0004 63 6E 6C 55 Last Mod Time         556C6E63 [1433169507] 'Sat Nov 12 13:51:06 2022'
0044 0047 0004 65 D8 87 85 CRC                   8587D865 [2240272485]
0048 004B 0004 05 00 00 00 Compressed Length     00000005 [5]
004C 004F 0004 05 00 00 00 Uncompressed Length   00000005 [5]
0050 0051 0002 08 00       Filename Length       0008 [8]
0052 0053 0002 09 00       Extra Length          0009 [9]
0054 0055 0002 00 00       Comment Length        0000 [0]
0056 0057 0002 00 00       Disk Start            0000 [0]
0058 0059 0002 00 00       Int File Attributes   0000 [0]
                           [Bit 0]               0 'Binary Data'
005A 005D 0004 00 00 A4 81 Ext File Attributes   81A40000 [2175008768]
                           [Bits 16-24]          01A4 [420] 'Unix attrib: rw-r--r--'
                           [Bits 28-31]          08 [8] 'Regular File'
005E 0061 0004 00 00 00 00 Local Header Offset   00000000 [0]
0062 0069 0008 66 69 6C 65 Filename              'filename'
               6E 61 6D 65
006A 006B 0002 75 78       Extra ID #1           7875 [30837] 'Unix Extra type 3 [ux]'
006C 006D 0002 05 00         Length              0005 [5]
006E 006E 0001 01            Version             01 [1]
006F 006F 0001 04            UID Size            04 [4]
0070 0072 0003 61 62 63      Bad Extra Data      abc
#
# ERROR: Offset 0x70: Extra Field 'Unix Extra type 3 [ux]' (ID 0x7875): truncated reading 'UID'
#        Expected 0x4 [4] bytes, got 0x3 [3] bytes
#

0073 0076 0004 50 4B 05 06 END CENTRAL HEADER    06054B50 [101010256]
0077 0078 0002 00 00       Number of this disk   0000 [0]
0079 007A 0002 00 00       Central Dir Disk no   0000 [0]
007B 007C 0002 01 00       Entries in this disk  0001 [1]
007D 007E 0002 01 00       Total Entries         0001 [1]
007F 0082 0004 3F 00 00 00 Size of Central Dir   0000003F [63]
0083 0086 0004 34 00 00 00 Offset to Central Dir 00000034 [52]
0087 0088 0002 00 00       Comment Length        0000 [0]
#
# Error Count: 2
#
# Done
