
0000 0003 0004 50 4B 03 04 LOCAL HEADER #1       04034B50 (67324752)
0004 0004 0001 14          Extract Zip Spec      14 (20) '2.0'
0005 0005 0001 00          Extract OS            00 (0) 'MS-DOS'
0006 0007 0002 00 00       General Purpose Flag  0000 (0)
                           [Bits 1-2]            0 'Normal Compression'
0008 0009 0002 08 00       Compression Method    0008 (8) 'Deflated'
000A 000D 0004 67 5F B0 5C Modification Time     5CB05F67 (1555062631) 'Sat May 16 11:59:14 2026'
000E 0011 0004 11 CD 82 ED CRC                   ED82CD11 (3984772369)
0012 0015 0004 06 00 00 00 Compressed Size       00000006 (6)
0016 0019 0004 04 00 00 00 Uncompressed Size     00000004 (4)
001A 001B 0002 04 00       Filename Length       0004 (4)
001C 001D 0002 11 00       Extra Length          0011 (17)
001E 0021 0004 74 65 73 74 Filename              'test'
0022 0023 0002 75 78       Extra ID #1           7875 (30837) 'Unix Extra type 3 [ux]'
0024 0025 0002 0D 00         Length              000D (13)
0026 0026 0001 01            Version             01 (1)
0027 0027 0001 05            UID Size            05 (5)
0028 002C 0005 05 05 05 05   UID                 Invalid UID Value: 05 05 05 05 05
               05
#
# INFO: Offset 0x28: Extra Field 'Unix Extra type 3 [ux]' (ID 0x7875): UID value is not a valid value
#
002D 002D 0001 05            GID Size            05 (5)
002E 0032 0005 05 05 05 05   GID                 Invalid GID Value: 05 05 05 05 05
               05
#
# INFO: Offset 0x2E: Extra Field 'Unix Extra type 3 [ux]' (ID 0x7875):  GID value is not a valid value
#
0033 0038 0006 4B 4C 4A 4E PAYLOAD               KLJN..
               01 00

0039 003C 0004 50 4B 01 02 CENTRAL HEADER #1     02014B50 (33639248)
003D 003D 0001 14          Created Zip Spec      14 (20) '2.0'
003E 003E 0001 03          Created OS            03 (3) 'Unix'
003F 003F 0001 14          Extract Zip Spec      14 (20) '2.0'
0040 0040 0001 00          Extract OS            00 (0) 'MS-DOS'
0041 0042 0002 00 00       General Purpose Flag  0000 (0)
                           [Bits 1-2]            0 'Normal Compression'
0043 0044 0002 08 00       Compression Method    0008 (8) 'Deflated'
0045 0048 0004 67 5F B0 5C Modification Time     5CB05F67 (1555062631) 'Sat May 16 11:59:14 2026'
0049 004C 0004 11 CD 82 ED CRC                   ED82CD11 (3984772369)
004D 0050 0004 06 00 00 00 Compressed Size       00000006 (6)
0051 0054 0004 04 00 00 00 Uncompressed Size     00000004 (4)
0055 0056 0002 04 00       Filename Length       0004 (4)
0057 0058 0002 11 00       Extra Length          0011 (17)
0059 005A 0002 00 00       Comment Length        0000 (0)
005B 005C 0002 00 00       Disk Start            0000 (0)
005D 005E 0002 00 00       Int File Attributes   0000 (0)
                           [Bit 0]               0 'Binary Data'
005F 0062 0004 00 00 A4 81 Ext File Attributes   81A40000 (2175008768)
                           [Bits 16-24]          01A4 (420) 'Unix attrib: rw-r--r--'
                           [Bits 28-31]          08 (8) 'Regular File'
0063 0066 0004 00 00 00 00 Local Header Offset   00000000 (0)
0067 006A 0004 74 65 73 74 Filename              'test'
006B 006C 0002 75 78       Extra ID #1           7875 (30837) 'Unix Extra type 3 [ux]'
006D 006E 0002 0D 00         Length              000D (13)
006F 006F 0001 01            Version             01 (1)
0070 0070 0001 05            UID Size            05 (5)
0071 0075 0005 05 05 05 05   UID                 Invalid UID Value: 05 05 05 05 05
               05
#
# INFO: Offset 0x71: Extra Field 'Unix Extra type 3 [ux]' (ID 0x7875): UID value is not a valid value
#
0076 0076 0001 05            GID Size            05 (5)
0077 007B 0005 05 05 05 05   GID                 Invalid GID Value: 05 05 05 05 05
               05
#
# INFO: Offset 0x77: Extra Field 'Unix Extra type 3 [ux]' (ID 0x7875):  GID value is not a valid value
#

007C 007F 0004 50 4B 05 06 END CENTRAL HEADER    06054B50 (101010256)
0080 0081 0002 00 00       Number of this disk   0000 (0)
0082 0083 0002 00 00       Central Dir Disk no   0000 (0)
0084 0085 0002 01 00       Entries in this disk  0001 (1)
0086 0087 0002 01 00       Total Entries         0001 (1)
0088 008B 0004 43 00 00 00 Size of Central Dir   00000043 (67)
008C 008F 0004 39 00 00 00 Offset to Central Dir 00000039 (57)
0090 0091 0002 00 00       Comment Length        0000 (0)
#
# Info Count: 4
#
# Done
