
0000 0003 0004 50 4B 03 04 LOCAL HEADER #1       67324752 (0x4034B50)
0004 0004 0001 0A          Extract Zip Spec      10 (0xA) '1.0'
0005 0005 0001 00          Extract OS            0 (0x0) 'MS-DOS'
0006 0007 0002 08 00       General Purpose Flag  8 (0x8)
                           [Bit  3]              1 'Streamed'
0008 0009 0002 00 00       Compression Method    0 (0x0) 'Stored'
000A 000D 0004 78 79 89 55 Last Mod Time         1435072888 (0x55897978) 'Fri Dec  9 15:11:48 2022'
000E 0011 0004 00 00 00 00 CRC                   0 (0x0)
0012 0015 0004 08 02 00 00 Compressed Length     520 (0x208)
0016 0019 0004 08 02 00 00 Uncompressed Length   520 (0x208)
001A 001B 0002 0A 00       Filename Length       10 (0xA)
001C 001D 0002 00 00       Extra Length          0 (0x0)
001E 0027 000A 69 6E 6E 65 Filename              'inner2.zip'
               72 32 2E 7A
               69 70
0028 022F 0208 ...         PAYLOAD

0028 002B 0004 50 4B 03 04 LOCAL HEADER #2       67324752 (0x4034B50)
002C 002C 0001 0A          Extract Zip Spec      10 (0xA) '1.0'
002D 002D 0001 00          Extract OS            0 (0x0) 'MS-DOS'
002E 002F 0002 08 00       General Purpose Flag  8 (0x8)
                           [Bit  3]              1 'Streamed'
0030 0031 0002 00 00       Compression Method    0 (0x0) 'Stored'
0032 0035 0004 78 79 89 55 Last Mod Time         1435072888 (0x55897978) 'Fri Dec  9 15:11:48 2022'
0036 0039 0004 00 00 00 00 CRC                   0 (0x0)
003A 003D 0004 82 01 00 00 Compressed Length     386 (0x182)
003E 0041 0004 82 01 00 00 Uncompressed Length   386 (0x182)
0042 0043 0002 0A 00       Filename Length       10 (0xA)
0044 0045 0002 00 00       Extra Length          0 (0x0)
0046 004F 000A 69 6E 6E 65 Filename              'inner1.zip'
               72 31 2E 7A
               69 70
0050 01D1 0182 ...         PAYLOAD

0050 0053 0004 50 4B 03 04 LOCAL HEADER #3       67324752 (0x4034B50)
0054 0054 0001 14          Extract Zip Spec      20 (0x14) '2.0'
0055 0055 0001 00          Extract OS            0 (0x0) 'MS-DOS'
0056 0057 0002 00 00       General Purpose Flag  0 (0x0)
                           [Bits 1-2]            0 'Normal Compression'
0058 0059 0002 08 00       Compression Method    8 (0x8) 'Deflated'
005A 005D 0004 22 79 89 55 Last Mod Time         1435072802 (0x55897922) 'Fri Dec  9 15:09:04 2022'
005E 0061 0004 FF E7 0E F9 CRC                   4178503679 (0xF90EE7FF)
0062 0065 0004 0E 01 00 00 Compressed Length     270 (0x10E)
0066 0069 0004 BE 01 00 00 Uncompressed Length   446 (0x1BE)
006A 006B 0002 09 00       Filename Length       9 (0x9)
006C 006D 0002 00 00       Extra Length          0 (0x0)
006E 0076 0009 6C 6F 72 65 Filename              'lorem.txt'
               6D 2E 74 78
               74
0077 0184 010E ...         PAYLOAD

0185 0188 0004 50 4B 01 02 CENTRAL HEADER #1     33639248 (0x2014B50)
0189 0189 0001 1E          Created Zip Spec      30 (0x1E) '3.0'
018A 018A 0001 03          Created OS            3 (0x3) 'Unix'
018B 018B 0001 14          Extract Zip Spec      20 (0x14) '2.0'
018C 018C 0001 00          Extract OS            0 (0x0) 'MS-DOS'
018D 018E 0002 00 00       General Purpose Flag  0 (0x0)
                           [Bits 1-2]            0 'Normal Compression'
018F 0190 0002 08 00       Compression Method    8 (0x8) 'Deflated'
0191 0194 0004 22 79 89 55 Last Mod Time         1435072802 (0x55897922) 'Fri Dec  9 15:09:04 2022'
0195 0198 0004 FF E7 0E F9 CRC                   4178503679 (0xF90EE7FF)
0199 019C 0004 0E 01 00 00 Compressed Length     270 (0x10E)
019D 01A0 0004 BE 01 00 00 Uncompressed Length   446 (0x1BE)
01A1 01A2 0002 09 00       Filename Length       9 (0x9)
01A3 01A4 0002 00 00       Extra Length          0 (0x0)
01A5 01A6 0002 00 00       Comment Length        0 (0x0)
01A7 01A8 0002 00 00       Disk Start            0 (0x0)
01A9 01AA 0002 01 00       Int File Attributes   1 (0x1)
                           [Bit 0]               1 'Text Data'
01AB 01AE 0004 00 00 ED 81 Ext File Attributes   2179792896 (0x81ED0000)
                           [Bits 16-24]          493 (0x1ED) 'Unix attrib: rwxr-xr-x'
                           [Bits 28-31]          8 (0x8) 'Regular File'
01AF 01B2 0004 00 00 00 00 Local Header Offset   0 (0x0)
01B3 01BB 0009 6C 6F 72 65 Filename              'lorem.txt'
               6D 2E 74 78
               74

01BC 01BF 0004 50 4B 05 06 END CENTRAL HEADER    101010256 (0x6054B50)
01C0 01C1 0002 00 00       Number of this disk   0 (0x0)
01C2 01C3 0002 00 00       Central Dir Disk no   0 (0x0)
01C4 01C5 0002 01 00       Entries in this disk  1 (0x1)
01C6 01C7 0002 01 00       Total Entries         1 (0x1)
01C8 01CB 0004 37 00 00 00 Size of Central Dir   55 (0x37)
01CC 01CF 0004 35 01 00 00 Offset to Central Dir 309 (0x135)
01D0 01D1 0002 00 00       Comment Length        0 (0x0)

01D2 01D5 0004 50 4B 07 08 DATA DESCRIPTOR       134695760 (0x8074B50)
01D6 01D5 0000             Skipping nested
                           payload

01D6 01E1 000C D6 65 51 91 UNEXPECTED PADDING    .eQ.........
               82 01 00 00
               82 01 00 00
#
# INFO: Offset 0x1D6: 12 (0xC) Unexpected Padding bytes
#

01E2 01E5 0004 50 4B 01 02 CENTRAL HEADER #2     33639248 (0x2014B50)
01E6 01E6 0001 1E          Created Zip Spec      30 (0x1E) '3.0'
01E7 01E7 0001 03          Created OS            3 (0x3) 'Unix'
01E8 01E8 0001 0A          Extract Zip Spec      10 (0xA) '1.0'
01E9 01E9 0001 00          Extract OS            0 (0x0) 'MS-DOS'
01EA 01EB 0002 08 00       General Purpose Flag  8 (0x8)
                           [Bit  3]              1 'Streamed'
01EC 01ED 0002 00 00       Compression Method    0 (0x0) 'Stored'
01EE 01F1 0004 78 79 89 55 Last Mod Time         1435072888 (0x55897978) 'Fri Dec  9 15:11:48 2022'
01F2 01F5 0004 D6 65 51 91 CRC                   2438030806 (0x915165D6)
01F6 01F9 0004 82 01 00 00 Compressed Length     386 (0x182)
01FA 01FD 0004 82 01 00 00 Uncompressed Length   386 (0x182)
01FE 01FF 0002 0A 00       Filename Length       10 (0xA)
0200 0201 0002 00 00       Extra Length          0 (0x0)
0202 0203 0002 00 00       Comment Length        0 (0x0)
0204 0205 0002 00 00       Disk Start            0 (0x0)
0206 0207 0002 00 00       Int File Attributes   0 (0x0)
                           [Bit 0]               0 'Binary Data'
0208 020B 0004 00 00 B4 81 Ext File Attributes   2176057344 (0x81B40000)
                           [Bits 16-24]          436 (0x1B4) 'Unix attrib: rw-rw-r--'
                           [Bits 28-31]          8 (0x8) 'Regular File'
020C 020F 0004 00 00 00 00 Local Header Offset   0 (0x0)
0210 0219 000A 69 6E 6E 65 Filename              'inner1.zip'
               72 31 2E 7A
               69 70

021A 021D 0004 50 4B 05 06 END CENTRAL HEADER    101010256 (0x6054B50)
021E 021F 0002 00 00       Number of this disk   0 (0x0)
0220 0221 0002 00 00       Central Dir Disk no   0 (0x0)
0222 0223 0002 01 00       Entries in this disk  1 (0x1)
0224 0225 0002 01 00       Total Entries         1 (0x1)
0226 0229 0004 38 00 00 00 Size of Central Dir   56 (0x38)
022A 022D 0004 BA 01 00 00 Offset to Central Dir 442 (0x1BA)
022E 022F 0002 00 00       Comment Length        0 (0x0)

0230 0233 0004 50 4B 07 08 DATA DESCRIPTOR       134695760 (0x8074B50)
0234 0237 0004 39 61 23 B0 CRC                   2955108665 (0xB0236139)

0238 023F 0008 08 02 00 00 UNEXPECTED PADDING    ........
               08 02 00 00
#
# INFO: Offset 0x238: 8 (0x8) Unexpected Padding bytes
#

0240 0243 0004 50 4B 01 02 CENTRAL HEADER #3     33639248 (0x2014B50)
0244 0244 0001 1E          Created Zip Spec      30 (0x1E) '3.0'
0245 0245 0001 03          Created OS            3 (0x3) 'Unix'
0246 0246 0001 0A          Extract Zip Spec      10 (0xA) '1.0'
0247 0247 0001 00          Extract OS            0 (0x0) 'MS-DOS'
0248 0249 0002 08 00       General Purpose Flag  8 (0x8)
                           [Bit  3]              1 'Streamed'
024A 024B 0002 00 00       Compression Method    0 (0x0) 'Stored'
024C 024F 0004 78 79 89 55 Last Mod Time         1435072888 (0x55897978) 'Fri Dec  9 15:11:48 2022'
0250 0253 0004 39 61 23 B0 CRC                   2955108665 (0xB0236139)
0254 0257 0004 08 02 00 00 Compressed Length     520 (0x208)
0258 025B 0004 08 02 00 00 Uncompressed Length   520 (0x208)
025C 025D 0002 0A 00       Filename Length       10 (0xA)
025E 025F 0002 00 00       Extra Length          0 (0x0)
0260 0261 0002 00 00       Comment Length        0 (0x0)
0262 0263 0002 00 00       Disk Start            0 (0x0)
0264 0265 0002 00 00       Int File Attributes   0 (0x0)
                           [Bit 0]               0 'Binary Data'
0266 0269 0004 00 00 B4 81 Ext File Attributes   2176057344 (0x81B40000)
                           [Bits 16-24]          436 (0x1B4) 'Unix attrib: rw-rw-r--'
                           [Bits 28-31]          8 (0x8) 'Regular File'
026A 026D 0004 00 00 00 00 Local Header Offset   0 (0x0)
026E 0277 000A 69 6E 6E 65 Filename              'inner2.zip'
               72 32 2E 7A
               69 70

0278 027B 0004 50 4B 05 06 END CENTRAL HEADER    101010256 (0x6054B50)
027C 027D 0002 00 00       Number of this disk   0 (0x0)
027E 027F 0002 00 00       Central Dir Disk no   0 (0x0)
0280 0281 0002 01 00       Entries in this disk  1 (0x1)
0282 0283 0002 01 00       Total Entries         1 (0x1)
0284 0287 0004 38 00 00 00 Size of Central Dir   56 (0x38)
0288 028B 0004 40 02 00 00 Offset to Central Dir 576 (0x240)
028C 028D 0002 00 00       Comment Length        0 (0x0)
#
# INFO: Nested Zip files found: 1
#  Offset  Filename
#     0x0  'inner2.zip'
#
# ERROR: Offset 0x0: Filename 'inner2.zip': Missing 'Data Descriptor'
#
# WARNING: Offset 0x240: Filename 'inner2.zip': 'crc32' field mismatch': Central Header has '2955108665', Local Directory has '0'
#
# Error Count: 1
# Warning Count: 1
# Info Count: 3
#
# Done
