
0000 0003 0004 50 4B 03 04 LOCAL HEADER #1       67324752 (0x4034B50)
0004 0004 0001 14          Extract Zip Spec      20 (0x14) '2.0'
0005 0005 0001 00          Extract OS            0 (0x0) 'MS-DOS'
0006 0007 0002 00 00       General Purpose Flag  0 (0x0)
0008 0009 0002 00 00       Compression Method    0 (0x0) 'Stored'
000A 000D 0004 ED 5B 5C 55 Last Mod Time         1432116205 (0x555C5BED) 'Fri Oct 28 11:31:26 2022'
000E 0011 0004 65 D8 87 85 CRC                   2240272485 (0x8587D865)
0012 0015 0004 05 00 00 00 Compressed Length     5 (0x5)
0016 0019 0004 05 00 00 00 Uncompressed Length   5 (0x5)
001A 001B 0002 08 00       Filename Length       8 (0x8)
001C 001D 0002 12 00       Extra Length          18 (0x12)
001E 0025 0008 66 69 6C 65 Filename              'filename'
               6E 61 6D 65
0026 0027 0002 55 58       Extra ID #1           22613 (0x5855) 'Unix Extra type 1 [UX]'
0028 0029 0002 0E 00         Length              14 (0xE)
#
# ERROR: Offset 0x28: Extra Field 'Unix Extra type 1 [UX]' (ID 0x5855): 'Length' field invalid: expected 12 (0xC), got 14 (0xE)
#
002A 0037 000E 78 78 78 78   Extra Payload       xxxxxxxxxxxxxx
               78 78 78 78
               78 78 78 78
               78 78
0038 003C 0005 61 62 63 64 PAYLOAD               abcde
               65

003D 0040 0004 50 4B 01 02 CENTRAL HEADER #1     33639248 (0x2014B50)
0041 0041 0001 14          Created Zip Spec      20 (0x14) '2.0'
0042 0042 0001 03          Created OS            3 (0x3) 'Unix'
0043 0043 0001 14          Extract Zip Spec      20 (0x14) '2.0'
0044 0044 0001 00          Extract OS            0 (0x0) 'MS-DOS'
0045 0046 0002 00 00       General Purpose Flag  0 (0x0)
0047 0048 0002 00 00       Compression Method    0 (0x0) 'Stored'
0049 004C 0004 ED 5B 5C 55 Last Mod Time         1432116205 (0x555C5BED) 'Fri Oct 28 11:31:26 2022'
004D 0050 0004 65 D8 87 85 CRC                   2240272485 (0x8587D865)
0051 0054 0004 05 00 00 00 Compressed Length     5 (0x5)
0055 0058 0004 05 00 00 00 Uncompressed Length   5 (0x5)
0059 005A 0002 08 00       Filename Length       8 (0x8)
005B 005C 0002 00 00       Extra Length          0 (0x0)
005D 005E 0002 00 00       Comment Length        0 (0x0)
005F 0060 0002 00 00       Disk Start            0 (0x0)
0061 0062 0002 00 00       Int File Attributes   0 (0x0)
                           [Bit 0]               0 'Binary Data'
0063 0066 0004 00 00 A4 81 Ext File Attributes   2175008768 (0x81A40000)
                           [Bits 16-24]          420 (0x1A4) 'Unix attrib: rw-r--r--'
                           [Bits 28-31]          8 (0x8) 'Regular File'
0067 006A 0004 00 00 00 00 Local Header Offset   0 (0x0)
006B 0072 0008 66 69 6C 65 Filename              'filename'
               6E 61 6D 65

0073 0076 0004 50 4B 05 06 END CENTRAL HEADER    101010256 (0x6054B50)
0077 0078 0002 00 00       Number of this disk   0 (0x0)
0079 007A 0002 00 00       Central Dir Disk no   0 (0x0)
007B 007C 0002 01 00       Entries in this disk  1 (0x1)
007D 007E 0002 01 00       Total Entries         1 (0x1)
007F 0082 0004 36 00 00 00 Size of Central Dir   54 (0x36)
0083 0086 0004 3D 00 00 00 Offset to Central Dir 61 (0x3D)
0087 0088 0002 00 00       Comment Length        0 (0x0)
#
# Error Count: 1
#
# Done
