
0000 0003 0004 50 4B 03 04 LOCAL HEADER #1       67324752 (0x4034B50)
0004 0004 0001 0A          Extract Zip Spec      10 (0xA) '1.0'
0005 0005 0001 00          Extract OS            0 (0x0) 'MS-DOS'
0006 0007 0002 00 00       General Purpose Flag  0 (0x0)
0008 0009 0002 00 00       Compression Method    0 (0x0) 'Stored'
000A 000D 0004 71 85 98 52 Last Mod Time         1385727345 (0x52988571) 'Sat Apr 24 16:43:34 2021'
000E 0011 0004 FF E7 0E F9 CRC                   4178503679 (0xF90EE7FF)
0012 0015 0004 BE 01 00 00 Compressed Length     446 (0x1BE)
0016 0019 0004 BE 01 00 00 Uncompressed Length   446 (0x1BE)
001A 001B 0002 09 00       Filename Length       9 (0x9)
001C 001D 0002 1C 00       Extra Length          28 (0x1C)
001E 0026 0009 6C 6F 72 65 Filename              'lorem.txt'
               6D 2E 74 78
               74
0027 0028 0002 55 54       Extra ID #1           21589 (0x5455) 'Extended Timestamp [UT]'
0029 002A 0002 09 00         Length              9 (0x9)
002B 002B 0001 03            Flags               3 (0x3) 'mod access'
002C 002F 0004 A6 3C 84 60   Mod Time            1619279014 (0x60843CA6) 'Sat Apr 24 15:43:34 2021'
0030 0033 0004 E7 3D 84 60   Access Time         1619279335 (0x60843DE7) 'Sat Apr 24 15:48:55 2021'
0034 0035 0002 75 78       Extra ID #2           30837 (0x7875) 'Unix Extra type 3 [ux]'
0036 0037 0002 0B 00         Length              11 (0xB)
0038 0038 0001 01            Version             1 (0x1)
0039 0039 0001 04            UID Size            4 (0x4)
003A 003D 0004 E8 03 00 00   UID                 1000 (0x3E8)
003E 003E 0001 04            GID Size            4 (0x4)
003F 0042 0004 E8 03 00 00   GID                 1000 (0x3E8)
0043 0200 01BE ...         PAYLOAD

0201 0204 0004 50 4B 01 02 CENTRAL HEADER #1     33639248 (0x2014B50)
0205 0205 0001 1E          Created Zip Spec      30 (0x1E) '3.0'
0206 0206 0001 03          Created OS            3 (0x3) 'Unix'
0207 0207 0001 0A          Extract Zip Spec      10 (0xA) '1.0'
0208 0208 0001 00          Extract OS            0 (0x0) 'MS-DOS'
0209 020A 0002 00 00       General Purpose Flag  0 (0x0)
020B 020C 0002 00 00       Compression Method    0 (0x0) 'Stored'
020D 0210 0004 71 85 98 52 Last Mod Time         1385727345 (0x52988571) 'Sat Apr 24 16:43:34 2021'
0211 0214 0004 FF E7 0E F9 CRC                   4178503679 (0xF90EE7FF)
0215 0218 0004 BE 01 00 00 Compressed Length     446 (0x1BE)
0219 021C 0004 BE 01 00 00 Uncompressed Length   446 (0x1BE)
021D 021E 0002 09 00       Filename Length       9 (0x9)
021F 0220 0002 18 00       Extra Length          24 (0x18)
0221 0222 0002 00 00       Comment Length        0 (0x0)
0223 0224 0002 00 00       Disk Start            0 (0x0)
0225 0226 0002 00 00       Int File Attributes   0 (0x0)
                           [Bit 0]               0 'Binary Data'
0227 022A 0004 00 00 ED 81 Ext File Attributes   2179792896 (0x81ED0000)
                           [Bits 16-24]          493 (0x1ED) 'Unix attrib: rwxr-xr-x'
                           [Bits 28-31]          8 (0x8) 'Regular File'
022B 022E 0004 00 00 00 00 Local Header Offset   0 (0x0)
022F 0237 0009 6C 6F 72 65 Filename              'lorem.txt'
               6D 2E 74 78
               74
0238 0239 0002 55 54       Extra ID #1           21589 (0x5455) 'Extended Timestamp [UT]'
023A 023B 0002 05 00         Length              5 (0x5)
023C 023C 0001 03            Flags               3 (0x3) 'mod access'
023D 0240 0004 A6 3C 84 60   Mod Time            1619279014 (0x60843CA6) 'Sat Apr 24 15:43:34 2021'
0241 0242 0002 75 78       Extra ID #2           30837 (0x7875) 'Unix Extra type 3 [ux]'
0243 0244 0002 0B 00         Length              11 (0xB)
0245 0245 0001 01            Version             1 (0x1)
0246 0246 0001 04            UID Size            4 (0x4)
0247 024A 0004 E8 03 00 00   UID                 1000 (0x3E8)
024B 024B 0001 04            GID Size            4 (0x4)
024C 024F 0004 E8 03 00 00   GID                 1000 (0x3E8)

0250 0253 0004 50 4B 05 06 END CENTRAL HEADER    101010256 (0x6054B50)
0254 0255 0002 00 00       Number of this disk   0 (0x0)
0256 0257 0002 00 00       Central Dir Disk no   0 (0x0)
0258 0259 0002 01 00       Entries in this disk  1 (0x1)
025A 025B 0002 01 00       Total Entries         1 (0x1)
025C 025F 0004 4F 00 00 00 Size of Central Dir   79 (0x4F)
0260 0263 0004 01 02 00 00 Offset to Central Dir 513 (0x201)
0264 0265 0002 00 00       Comment Length        0 (0x0)
#
# Done
