
0000 0003 0004 50 4B 03 04 LOCAL HEADER #1       67324752 (0x4034B50)
0004 0004 0001 14          Extract Zip Spec      20 (0x14) '2.0'
0005 0005 0001 00          Extract OS            0 (0x0) 'MS-DOS'
0006 0007 0002 00 00       General Purpose Flag  0 (0x0)
0008 0009 0002 00 10       Compression Method    4096 (0x1000) 'Unknown Method'
#
# INFO: Offset 0x8: Unknown 'Compression Method' ID 4096 (0x1000)
#
000A 000D 0004 71 85 98 52 Last Mod Time         1385727345 (0x52988571) 'Sat Apr 24 16:43:34 2021'
000E 0011 0004 FF E7 0E F9 CRC                   4178503679 (0xF90EE7FF)
0012 0015 0004 0E 01 00 00 Compressed Length     270 (0x10E)
0016 0019 0004 BE 01 00 00 Uncompressed Length   446 (0x1BE)
001A 001B 0002 09 00       Filename Length       9 (0x9)
001C 001D 0002 1C 00       Extra Length          28 (0x1C)
001E 0026 0009 6C 6F 72 65 Filename              'lorem.txt'
               6D 2E 74 78
               74
0027 0028 0002 55 54       Extra ID #1           21589 (0x5455) 'Extended Timestamp [UT]'
0029 002A 0002 09 00         Length              9 (0x9)
002B 002B 0001 03            Flags               3 (0x3) 'mod access'
002C 002F 0004 A6 3C 84 60   Mod Time            1619279014 (0x60843CA6) 'Sat Apr 24 15:43:34 2021'
0030 0033 0004 E7 3D 84 60   Access Time         1619279335 (0x60843DE7) 'Sat Apr 24 15:48:55 2021'
0034 0035 0002 75 78       Extra ID #2           30837 (0x7875) 'Unix Extra type 3 [ux]'
0036 0037 0002 0B 00         Length              11 (0xB)
0038 0038 0001 01            Version             1 (0x1)
0039 0039 0001 04            UID Size            4 (0x4)
003A 003D 0004 E8 03 00 00   UID                 1000 (0x3E8)
003E 003E 0001 04            GID Size            4 (0x4)
003F 0042 0004 E8 03 00 00   GID                 1000 (0x3E8)
0043 0150 010E ...         PAYLOAD

0151 0154 0004 50 4B 01 02 CENTRAL HEADER #1     33639248 (0x2014B50)
0155 0155 0001 1E          Created Zip Spec      30 (0x1E) '3.0'
0156 0156 0001 03          Created OS            3 (0x3) 'Unix'
0157 0157 0001 14          Extract Zip Spec      20 (0x14) '2.0'
0158 0158 0001 00          Extract OS            0 (0x0) 'MS-DOS'
0159 015A 0002 00 00       General Purpose Flag  0 (0x0)
015B 015C 0002 FF 00       Compression Method    255 (0xFF) 'Unknown Method'
#
# INFO: Offset 0x15B: Unknown 'Compression Method' ID 255 (0xFF)
#
015D 0160 0004 71 85 98 52 Last Mod Time         1385727345 (0x52988571) 'Sat Apr 24 16:43:34 2021'
0161 0164 0004 FF E7 0E F9 CRC                   4178503679 (0xF90EE7FF)
0165 0168 0004 0E 01 00 00 Compressed Length     270 (0x10E)
0169 016C 0004 BE 01 00 00 Uncompressed Length   446 (0x1BE)
016D 016E 0002 09 00       Filename Length       9 (0x9)
016F 0170 0002 18 00       Extra Length          24 (0x18)
0171 0172 0002 00 00       Comment Length        0 (0x0)
0173 0174 0002 00 00       Disk Start            0 (0x0)
0175 0176 0002 01 00       Int File Attributes   1 (0x1)
                           [Bit 0]               1 'Text Data'
0177 017A 0004 00 00 ED 81 Ext File Attributes   2179792896 (0x81ED0000)
                           [Bits 16-24]          493 (0x1ED) 'Unix attrib: rwxr-xr-x'
                           [Bits 28-31]          8 (0x8) 'Regular File'
017B 017E 0004 00 00 00 00 Local Header Offset   0 (0x0)
017F 0187 0009 6C 6F 72 65 Filename              'lorem.txt'
               6D 2E 74 78
               74
0188 0189 0002 55 54       Extra ID #1           21589 (0x5455) 'Extended Timestamp [UT]'
018A 018B 0002 05 00         Length              5 (0x5)
018C 018C 0001 03            Flags               3 (0x3) 'mod access'
018D 0190 0004 A6 3C 84 60   Mod Time            1619279014 (0x60843CA6) 'Sat Apr 24 15:43:34 2021'
0191 0192 0002 75 78       Extra ID #2           30837 (0x7875) 'Unix Extra type 3 [ux]'
0193 0194 0002 0B 00         Length              11 (0xB)
0195 0195 0001 01            Version             1 (0x1)
0196 0196 0001 04            UID Size            4 (0x4)
0197 019A 0004 E8 03 00 00   UID                 1000 (0x3E8)
019B 019B 0001 04            GID Size            4 (0x4)
019C 019F 0004 E8 03 00 00   GID                 1000 (0x3E8)

01A0 01A3 0004 50 4B 05 06 END CENTRAL HEADER    101010256 (0x6054B50)
01A4 01A5 0002 00 00       Number of this disk   0 (0x0)
01A6 01A7 0002 00 00       Central Dir Disk no   0 (0x0)
01A8 01A9 0002 01 00       Entries in this disk  1 (0x1)
01AA 01AB 0002 01 00       Total Entries         1 (0x1)
01AC 01AF 0004 4F 00 00 00 Size of Central Dir   79 (0x4F)
01B0 01B3 0004 51 01 00 00 Offset to Central Dir 337 (0x151)
01B4 01B5 0002 00 00       Comment Length        0 (0x0)
#
# Info Count: 2
#
# Done
