
0000 0003 0004 50 4B 03 04 LOCAL HEADER #1       04034B50 (67324752)
0004 0004 0001 2D          Extract Zip Spec      2D (45) '4.5'
0005 0005 0001 00          Extract OS            00 (0) 'MS-DOS'
0006 0007 0002 08 00       General Purpose Flag  0008 (8)
                           [Bits 1-2]            0 'Normal Compression'
                           [Bit  3]              1 'Streamed'
0008 0009 0002 08 00       Compression Method    0008 (8) 'Deflated'
000A 000D 0004 07 55 94 55 Last Mod Time         55945507 (1435784455) 'Tue Dec 20 10:40:14 2022'
000E 0011 0004 00 00 00 00 CRC                   00000000 (0)
0012 0015 0004 FF FF FF FF Compressed Length     FFFFFFFF (4294967295)
0016 0019 0004 FF FF FF FF Uncompressed Length   FFFFFFFF (4294967295)
001A 001B 0002 09 00       Filename Length       0009 (9)
001C 001D 0002 14 00       Extra Length          0014 (20)
001E 0026 0009 6C 6F 72 65 Filename              'lorem.txt'
               6D 2E 74 78
               74
0027 0028 0002 01 00       Extra ID #1           0001 (1) 'ZIP64'
0029 002A 0002 10 00         Length              0010 (16)
002B 0032 0008 00 00 00 00   Uncompressed Size   0000000000000000 (0)
               00 00 00 00
0033 003A 0008 00 00 00 00   Compressed Size     0000000000000000 (0)
               00 00 00 00
003B 0148 010E ...         PAYLOAD

                           Missing DATA          08074B50 (134695760)
                           DESCRIPTOR Signature
#
# ERROR: Offset 0x149: Missimg DATA DESCRIPTOR Signature
#
0149 014C 0004 FF E7 0E F9 CRC                   F90EE7FF (4178503679)
014D 0154 0008 0E 01 00 00 Compressed Length     000000000000010E (270)
               00 00 00 00
0155 015C 0008 BE 01 00 00 Uncompressed Length   00000000000001BE (446)
               00 00 00 00

015D 0160 0004 50 4B 01 02 CENTRAL HEADER #1     02014B50 (33639248)
0161 0161 0001 2D          Created Zip Spec      2D (45) '4.5'
0162 0162 0001 03          Created OS            03 (3) 'Unix'
0163 0163 0001 2D          Extract Zip Spec      2D (45) '4.5'
0164 0164 0001 00          Extract OS            00 (0) 'MS-DOS'
0165 0166 0002 08 00       General Purpose Flag  0008 (8)
                           [Bits 1-2]            0 'Normal Compression'
                           [Bit  3]              1 'Streamed'
0167 0168 0002 08 00       Compression Method    0008 (8) 'Deflated'
0169 016C 0004 07 55 94 55 Last Mod Time         55945507 (1435784455) 'Tue Dec 20 10:40:14 2022'
016D 0170 0004 FF E7 0E F9 CRC                   F90EE7FF (4178503679)
0171 0174 0004 0E 01 00 00 Compressed Length     0000010E (270)
0175 0178 0004 BE 01 00 00 Uncompressed Length   000001BE (446)
0179 017A 0002 09 00       Filename Length       0009 (9)
017B 017C 0002 00 00       Extra Length          0000 (0)
017D 017E 0002 00 00       Comment Length        0000 (0)
017F 0180 0002 00 00       Disk Start            0000 (0)
0181 0182 0002 01 00       Int File Attributes   0001 (1)
                           [Bit 0]               1 'Text Data'
0183 0186 0004 00 00 A4 81 Ext File Attributes   81A40000 (2175008768)
                           [Bits 16-24]          01A4 (420) 'Unix attrib: rw-r--r--'
                           [Bits 28-31]          08 (8) 'Regular File'
0187 018A 0004 00 00 00 00 Local Header Offset   00000000 (0)
018B 0193 0009 6C 6F 72 65 Filename              'lorem.txt'
               6D 2E 74 78
               74

0194 0197 0004 50 4B 06 06 ZIP64 END CENTRAL DIR 06064B50 (101075792)
                           RECORD
0198 019F 0008 2C 00 00 00 Size of record        000000000000002C (44)
               00 00 00 00
01A0 01A0 0001 2D          Created Zip Spec      2D (45) '4.5'
01A1 01A1 0001 03          Created OS            03 (3) 'Unix'
01A2 01A2 0001 2D          Extract Zip Spec      2D (45) '4.5'
01A3 01A3 0001 00          Extract OS            00 (0) 'MS-DOS'
01A4 01A7 0004 00 00 00 00 Number of this disk   00000000 (0)
01A8 01AB 0004 00 00 00 00 Central Dir Disk no   00000000 (0)
01AC 01B3 0008 01 00 00 00 Entries in this disk  0000000000000001 (1)
               00 00 00 00
01B4 01BB 0008 01 00 00 00 Total Entries         0000000000000001 (1)
               00 00 00 00
01BC 01C3 0008 37 00 00 00 Size of Central Dir   0000000000000037 (55)
               00 00 00 00
01C4 01CB 0008 5D 01 00 00 Offset to Central dir 000000000000015D (349)
               00 00 00 00

01CC 01CF 0004 50 4B 06 07 ZIP64 END CENTRAL DIR 07064B50 (117853008)
                           LOCATOR
01D0 01D3 0004 00 00 00 00 Central Dir Disk no   00000000 (0)
01D4 01DB 0008 94 01 00 00 Offset to Zip64 EOCD  0000000000000194 (404)
               00 00 00 00
01DC 01DF 0004 01 00 00 00 Total no of Disks     00000001 (1)

01E0 01E3 0004 50 4B 05 06 END CENTRAL HEADER    06054B50 (101010256)
01E4 01E5 0002 00 00       Number of this disk   0000 (0)
01E6 01E7 0002 00 00       Central Dir Disk no   0000 (0)
01E8 01E9 0002 01 00       Entries in this disk  0001 (1)
01EA 01EB 0002 01 00       Total Entries         0001 (1)
01EC 01EF 0004 37 00 00 00 Size of Central Dir   00000037 (55)
01F0 01F3 0004 FF FF FF FF Offset to Central Dir FFFFFFFF (4294967295)
01F4 01F5 0002 00 00       Comment Length        0000 (0)
#
# Error Count: 1
#
# Done
