
0000 0004 50 4B 03 04 LOCAL HEADER #1       04034B50
0004 0001 14          Extract Zip Spec      14 '2.0'
0005 0001 00          Extract OS            00 'MS-DOS'
0006 0002 00 00       General Purpose Flag  0000
0008 0002 00 00       Compression Method    0000 'Stored'
000A 0004 DD 8A 5D 55 Last Mod Time         555D8ADD 'Sat Oct 29 17:22:58 2022'
000E 0004 65 D8 87 85 CRC                   8587D865
0012 0004 05 00 00 00 Compressed Length     00000005
0016 0004 05 00 00 00 Uncompressed Length   00000005
001A 0002 08 00       Filename Length       0008
001C 0002 07 00       Extra Length          0007
001E 0008 66 69 6C 65 Filename              'filename'
          6E 61 6D 65
0026 0002 FF FF       Extra ID #0001        FFFF 'DUMMY'
0028 0002 03 00         Length              0003
002A 0004 31 32 33 61   Data                61333231
