
0000 0003 0004 50 4B 03 04 LOCAL HEADER #1       04034B50 (67324752)
0004 0004 0001 14          Extract Zip Spec      14 (20) '2.0'
0005 0005 0001 00          Extract OS            00 (0) 'MS-DOS'
0006 0007 0002 00 00       General Purpose Flag  0000 (0)
0008 0009 0002 00 00       Compression Method    0000 (0) 'Stored'
000A 000D 0004 DD 8A 5D 55 Last Mod Date/Time    555D8ADD (1432193757) 'Sat Oct 29 17:22:58 2022'
000E 0011 0004 65 D8 87 85 CRC                   8587D865 (2240272485)
0012 0015 0004 05 00 00 00 Compressed Length     00000005 (5)
0016 0019 0004 05 00 00 00 Uncompressed Length   00000005 (5)
001A 001B 0002 08 00       Filename Length       0008 (8)
001C 001D 0002 07 00       Extra Length          0007 (7)
001E 0025 0008 66 69 6C 65 Filename              'filename'
               6E 61 6D 65
0026 0027 0002 FF FF       Extra ID #1           FFFF (65535) 'DUMMY'
0028 0029 0002 03 00         Length              0003 (3)
002A 002D 0004 31 32 33 61   Data                61333231 (1630745137)
