
0000 0004 50 4B 03 04 LOCAL HEADER #1       04034B50
0004 0001 14          Extract Zip Spec      14 '2.0'
0005 0001 00          Extract OS            00 'MS-DOS'
0006 0002 01 00       General Purpose Flag  0001
                      [Bit  0]              1 'Encryption'
                      [Bits 1-2]            0 'Normal Compression'
0008 0002 08 00       Compression Method    0008 'Deflated'
000A 0004 A4 3D 07 55 Last Mod Time         55073DA4 'Sun Aug  7 07:45:08 2022'
000E 0004 FF E7 0E F9 CRC                   F90EE7FF
0012 0004 16 01 00 00 Compressed Length     00000116
0016 0004 BE 01 00 00 Uncompressed Length   000001BE
001A 0002 09 00       Filename Length       0009
001C 0002 00 00       Extra Length          0000
001E 0009 6C 6F 72 65 Filename              'lorem.txt'
          6D 2E 74 78
          74
0027 0116 ...         PAYLOAD

013D 0004 50 4B 01 02 CENTRAL HEADER #1     02014B50
0141 0001 14          Created Zip Spec      14 '2.0'
0142 0001 00          Created OS            00 'MS-DOS'
0143 0001 14          Extract Zip Spec      14 '2.0'
0144 0001 00          Extract OS            00 'MS-DOS'
0145 0002 01 00       General Purpose Flag  0001
                      [Bit  0]              1 'Encryption'
                      [Bits 1-2]            0 'Normal Compression'
0147 0002 08 00       Compression Method    0008 'Deflated'
0149 0004 A4 3D 07 55 Last Mod Time         55073DA4 'Sun Aug  7 07:45:08 2022'
014D 0004 FF E7 0E F9 CRC                   F90EE7FF
0151 0004 16 01 00 00 Compressed Length     00000116
0155 0004 BE 01 00 00 Uncompressed Length   000001BE
0159 0002 09 00       Filename Length       0009
015B 0002 00 00       Extra Length          0000
015D 0002 00 00       Comment Length        0000
015F 0002 00 00       Disk Start            0000
0161 0002 01 00       Int File Attributes   0001
                      [Bit 0]               1 Text Data
0163 0004 20 00 00 00 Ext File Attributes   00000020
                      [Bit 5]               Archive
0167 0004 00 00 00 00 Local Header Offset   00000000
016B 0009 6C 6F 72 65 Filename              'lorem.txt'
          6D 2E 74 78
          74

0174 0004 50 4B 05 06 END CENTRAL HEADER    06054B50
0178 0002 00 00       Number of this disk   0000
017A 0002 00 00       Central Dir Disk no   0000
017C 0002 01 00       Entries in this disk  0001
017E 0002 01 00       Total Entries         0001
0180 0004 37 00 00 00 Size of Central Dir   00000037
0184 0004 3D 01 00 00 Offset to Central Dir 0000013D
0188 0002 00 00       Comment Length        0000
Done
