
0000 0003 0004 50 4B 03 04 LOCAL HEADER #1       04034B50
0004 0004 0001 14          Extract Zip Spec      14 '2.0'
0005 0005 0001 00          Extract OS            00 'MS-DOS'
0006 0007 0002 01 00       General Purpose Flag  0001
                           [Bit  0]              1 'Encryption'
                           [Bits 1-2]            0 'Normal Compression'
0008 0009 0002 08 00       Compression Method    0008 'Deflated'
000A 000D 0004 A4 3D 07 55 Last Mod Time         55073DA4 'Sun Aug  7 07:45:08 2022'
000E 0011 0004 FF E7 0E F9 CRC                   F90EE7FF
0012 0015 0004 16 01 00 00 Compressed Length     00000116
0016 0019 0004 BE 01 00 00 Uncompressed Length   000001BE
001A 001B 0002 09 00       Filename Length       0009
001C 001D 0002 00 00       Extra Length          0000
001E 0026 0009 6C 6F 72 65 Filename              'lorem.txt'
               6D 2E 74 78
               74
0027 013C 0116 ...         PAYLOAD

013D 0140 0004 50 4B 01 02 CENTRAL HEADER #1     02014B50
0141 0141 0001 14          Created Zip Spec      14 '2.0'
0142 0142 0001 00          Created OS            00 'MS-DOS'
0143 0143 0001 14          Extract Zip Spec      14 '2.0'
0144 0144 0001 00          Extract OS            00 'MS-DOS'
0145 0146 0002 01 00       General Purpose Flag  0001
                           [Bit  0]              1 'Encryption'
                           [Bits 1-2]            0 'Normal Compression'
0147 0148 0002 08 00       Compression Method    0008 'Deflated'
0149 014C 0004 A4 3D 07 55 Last Mod Time         55073DA4 'Sun Aug  7 07:45:08 2022'
014D 0150 0004 FF E7 0E F9 CRC                   F90EE7FF
0151 0154 0004 16 01 00 00 Compressed Length     00000116
0155 0158 0004 BE 01 00 00 Uncompressed Length   000001BE
0159 015A 0002 09 00       Filename Length       0009
015B 015C 0002 00 00       Extra Length          0000
015D 015E 0002 00 00       Comment Length        0000
015F 0160 0002 00 00       Disk Start            0000
0161 0162 0002 01 00       Int File Attributes   0001
                           [Bit 0]               1 'Text Data'
0163 0166 0004 20 00 00 00 Ext File Attributes   00000020
                           [Bit 5]               Archive
0167 016A 0004 00 00 00 00 Local Header Offset   00000000
016B 0173 0009 6C 6F 72 65 Filename              'lorem.txt'
               6D 2E 74 78
               74

0174 0177 0004 50 4B 05 06 END CENTRAL HEADER    06054B50
0178 0179 0002 00 00       Number of this disk   0000
017A 017B 0002 00 00       Central Dir Disk no   0000
017C 017D 0002 01 00       Entries in this disk  0001
017E 017F 0002 01 00       Total Entries         0001
0180 0183 0004 37 00 00 00 Size of Central Dir   00000037
0184 0187 0004 3D 01 00 00 Offset to Central Dir 0000013D
0188 0189 0002 00 00       Comment Length        0000
#
# Done
