
0000 0003 0004 50 4B 03 04 LOCAL HEADER #1       67324752 (0x4034B50)
0004 0004 0001 14          Extract Zip Spec      20 (0x14) '2.0'
0005 0005 0001 00          Extract OS            0 (0x0) 'MS-DOS'
0006 0007 0002 01 00       General Purpose Flag  1 (0x1)
                           [Bit  0]              1 'Encryption'
                           [Bits 1-2]            0 'Normal Compression'
0008 0009 0002 08 00       Compression Method    8 (0x8) 'Deflated'
000A 000D 0004 A4 3D 07 55 Last Mod Time         1426537892 (0x55073DA4) 'Sun Aug  7 07:45:08 2022'
000E 0011 0004 FF E7 0E F9 CRC                   4178503679 (0xF90EE7FF)
0012 0015 0004 16 01 00 00 Compressed Length     278 (0x116)
0016 0019 0004 BE 01 00 00 Uncompressed Length   446 (0x1BE)
001A 001B 0002 09 00       Filename Length       9 (0x9)
001C 001D 0002 00 00       Extra Length          0 (0x0)
001E 0026 0009 6C 6F 72 65 Filename              'lorem.txt'
               6D 2E 74 78
               74
0027 013C 0116 ...         PAYLOAD

013D 0140 0004 50 4B 01 02 CENTRAL HEADER #1     33639248 (0x2014B50)
0141 0141 0001 14          Created Zip Spec      20 (0x14) '2.0'
0142 0142 0001 00          Created OS            0 (0x0) 'MS-DOS'
0143 0143 0001 14          Extract Zip Spec      20 (0x14) '2.0'
0144 0144 0001 00          Extract OS            0 (0x0) 'MS-DOS'
0145 0146 0002 01 00       General Purpose Flag  1 (0x1)
                           [Bit  0]              1 'Encryption'
                           [Bits 1-2]            0 'Normal Compression'
0147 0148 0002 08 00       Compression Method    8 (0x8) 'Deflated'
0149 014C 0004 A4 3D 07 55 Last Mod Time         1426537892 (0x55073DA4) 'Sun Aug  7 07:45:08 2022'
014D 0150 0004 FF E7 0E F9 CRC                   4178503679 (0xF90EE7FF)
0151 0154 0004 16 01 00 00 Compressed Length     278 (0x116)
0155 0158 0004 BE 01 00 00 Uncompressed Length   446 (0x1BE)
0159 015A 0002 09 00       Filename Length       9 (0x9)
015B 015C 0002 00 00       Extra Length          0 (0x0)
015D 015E 0002 00 00       Comment Length        0 (0x0)
015F 0160 0002 00 00       Disk Start            0 (0x0)
0161 0162 0002 01 00       Int File Attributes   1 (0x1)
                           [Bit 0]               1 'Text Data'
0163 0166 0004 20 00 00 00 Ext File Attributes   32 (0x20)
                           [Bit 5]               Archive
0167 016A 0004 00 00 00 00 Local Header Offset   0 (0x0)
016B 0173 0009 6C 6F 72 65 Filename              'lorem.txt'
               6D 2E 74 78
               74

0174 0177 0004 50 4B 05 06 END CENTRAL HEADER    101010256 (0x6054B50)
0178 0179 0002 00 00       Number of this disk   0 (0x0)
017A 017B 0002 00 00       Central Dir Disk no   0 (0x0)
017C 017D 0002 01 00       Entries in this disk  1 (0x1)
017E 017F 0002 01 00       Total Entries         1 (0x1)
0180 0183 0004 37 00 00 00 Size of Central Dir   55 (0x37)
0184 0187 0004 3D 01 00 00 Offset to Central Dir 317 (0x13D)
0188 0189 0002 00 00       Comment Length        0 (0x0)
#
# Done
