
0000 0003 0004 50 4B 03 04 LOCAL HEADER #1       04034B50
0004 0004 0001 14          Extract Zip Spec      14 '2.0'
0005 0005 0001 00          Extract OS            00 'MS-DOS'
0006 0007 0002 06 00       General Purpose Flag  0006
                           [Bits 1-2]            3 'Super Fast Compression'
0008 0009 0002 08 00       Compression Method    0008 'Deflated'
000A 000D 0004 00 00 21 00 Last Mod Time         00210000 'Tue Jan  1 00:00:00 1980'
000E 0011 0004 DF A4 D2 6C CRC                   6CD2A4DF
0012 0015 0004 5A 01 00 00 Compressed Length     0000015A
0016 0019 0004 20 05 00 00 Uncompressed Length   00000520
001A 001B 0002 13 00       Filename Length       0013
001C 001D 0002 08 02       Extra Length          0208
001E 0030 0013 5B 43 6F 6E Filename              '[Content_Types].xml'
               74 65 6E 74
               5F 54 79 70
               65 73 5D 2E
               78 6D 6C
0031 0032 0002 20 A2       Extra ID #0001        A220 'Open Packaging Growth Hint'
0033 0034 0002 04 02         Length              0204
0035 0036 0002 28 A0         Signature           A028
0037 0038 0002 00 02         Initial Value       0200
0039 0238 0200 00 00 00 00   Padding             00 00 00 00 00 00 00 00 00 00 00 00
               00 00 00 00                       00 00 00 00 00 00 00 00 00 00 00 00
               00 00 00 00                       00 00 00 00 00 00 00 00 00 00 00 00
               00 00 00 00                       00 00 00 00 00 00 00 00 00 00 00 00
               00 00 00 00                       00 00 00 00 00 00 00 00 00 00 00 00
               00 00 00 00                       00 00 00 00 00 00 00 00 00 00 00 00
               00 00 00 00                       00 00 00 00 00 00 00 00 00 00 00 00
               00 00 00 00                       00 00 00 00 00 00 00 00 00 00 00 00
               00 00 00 00                       00 00 00 00 00 00 00 00 00 00 00 00
               00 00 00 00                       00 00 00 00 00 00 00 00 00 00 00 00
               00 00 00 00                       00 00 00 00 00 00 00 00 00 00 00 00
               00 00 00 00                       00 00 00 00 00 00 00 00 00 00 00 00
               00 00 00 00                       00 00 00 00 00 00 00 00 00 00 00 00
               00 00 00 00                       00 00 00 00 00 00 00 00 00 00 00 00
               00 00 00 00                       00 00 00 00 00 00 00 00 00 00 00 00
               00 00 00 00                       00 00 00 00 00 00 00 00 00 00 00 00
               00 00 00 00                       00 00 00 00 00 00 00 00 00 00 00 00
               00 00 00 00                       00 00 00 00 00 00 00 00 00 00 00 00
               00 00 00 00                       00 00 00 00 00 00 00 00 00 00 00 00
               00 00 00 00                       00 00 00 00 00 00 00 00 00 00 00 00
               00 00 00 00                       00 00 00 00 00 00 00 00 00 00 00 00
               00 00 00 00                       00 00 00 00 00 00 00 00 00 00 00 00
               00 00 00 00                       00 00 00 00 00 00 00 00 00 00 00 00
               00 00 00 00                       00 00 00 00 00 00 00 00 00 00 00 00
               00 00 00 00                       00 00 00 00 00 00 00 00 00 00 00 00
               00 00 00 00                       00 00 00 00 00 00 00 00 00 00 00 00
               00 00 00 00                       00 00 00 00 00 00 00 00 00 00 00 00
               00 00 00 00                       00 00 00 00 00 00 00 00 00 00 00 00
               00 00 00 00                       00 00 00 00 00 00 00 00 00 00 00 00
               00 00 00 00                       00 00 00 00 00 00 00 00 00 00 00 00
               00 00 00 00                       00 00 00 00 00 00 00 00 00 00 00 00
               00 00 00 00                       00 00 00 00 00 00 00 00 00 00 00 00
               00 00 00 00                       00 00 00 00 00 00 00 00 00 00 00 00
               00 00 00 00                       00 00 00 00 00 00 00 00 00 00 00 00
               00 00 00 00                       00 00 00 00 00 00 00 00 00 00 00 00
               00 00 00 00                       00 00 00 00 00 00 00 00 00 00 00 00
               00 00 00 00                       00 00 00 00 00 00 00 00 00 00 00 00
               00 00 00 00                       00 00 00 00 00 00 00 00 00 00 00 00
               00 00 00 00                       00 00 00 00 00 00 00 00 00 00 00 00
               00 00 00 00                       00 00 00 00 00 00 00 00 00 00 00 00
               00 00 00 00                       00 00 00 00 00 00 00 00 00 00 00 00
               00 00 00 00                       00 00 00 00 00 00 00 00 00 00 00 00
               00 00 00 00                       00 00 00 00 00 00 00 00
               00 00 00 00
               00 00 00 00
               00 00 00 00
               00 00 00 00
               00 00 00 00
               00 00 00 00
               00 00 00 00
               00 00 00 00
               00 00 00 00
               00 00 00 00
               00 00 00 00
               00 00 00 00
               00 00 00 00
               00 00 00 00
               00 00 00 00
               00 00 00 00
               00 00 00 00
               00 00 00 00
               00 00 00 00
               00 00 00 00
               00 00 00 00
               00 00 00 00
               00 00 00 00
               00 00 00 00
               00 00 00 00
               00 00 00 00
               00 00 00 00
               00 00 00 00
               00 00 00 00
               00 00 00 00
               00 00 00 00
               00 00 00 00
               00 00 00 00
               00 00 00 00
               00 00 00 00
               00 00 00 00
               00 00 00 00
               00 00 00 00
               00 00 00 00
               00 00 00 00
               00 00 00 00
               00 00 00 00
               00 00 00 00
               00 00 00 00
               00 00 00 00
               00 00 00 00
               00 00 00 00
               00 00 00 00
               00 00 00 00
               00 00 00 00
               00 00 00 00
               00 00 00 00
               00 00 00 00
               00 00 00 00
               00 00 00 00
               00 00 00 00
               00 00 00 00
               00 00 00 00
               00 00 00 00
               00 00 00 00
               00 00 00 00
               00 00 00 00
               00 00 00 00
               00 00 00 00
               00 00 00 00
               00 00 00 00
               00 00 00 00
               00 00 00 00
               00 00 00 00
               00 00 00 00
               00 00 00 00
               00 00 00 00
               00 00 00 00
               00 00 00 00
               00 00 00 00
               00 00 00 00
               00 00 00 00
               00 00 00 00
               00 00 00 00
               00 00 00 00
               00 00 00 00
               00 00 00 00
               00 00 00 00
               00 00 00 00
               00 00 00 00
0239 0392 015A ...         PAYLOAD

0393 0396 0004 50 4B 03 04 LOCAL HEADER #2       04034B50
0397 0397 0001 14          Extract Zip Spec      14 '2.0'
0398 0398 0001 00          Extract OS            00 'MS-DOS'
0399 039A 0002 06 00       General Purpose Flag  0006
                           [Bits 1-2]            3 'Super Fast Compression'
039B 039C 0002 08 00       Compression Method    0008 'Deflated'
039D 03A0 0004 00 00 21 00 Last Mod Time         00210000 'Tue Jan  1 00:00:00 1980'
03A1 03A4 0004 1E 91 1A B7 CRC                   B71A911E
03A5 03A8 0004 EF 00 00 00 Compressed Length     000000EF
03A9 03AC 0004 4E 02 00 00 Uncompressed Length   0000024E
03AD 03AE 0002 0B 00       Filename Length       000B
03AF 03B0 0002 08 02       Extra Length          0208
03B1 03BB 000B 5F 72 65 6C Filename              '_rels/.rels'
               73 2F 2E 72
               65 6C 73
03BC 03BD 0002 20 A2       Extra ID #0001        A220 'Open Packaging Growth Hint'
03BE 03BF 0002 04 02         Length              0204
03C0 03C1 0002 28 A0         Signature           A028
03C2 03C3 0002 00 02         Initial Value       0200
03C4 05C3 0200 00 00 00 00   Padding             00 00 00 00 00 00 00 00 00 00 00 00
               00 00 00 00                       00 00 00 00 00 00 00 00 00 00 00 00
               00 00 00 00                       00 00 00 00 00 00 00 00 00 00 00 00
               00 00 00 00                       00 00 00 00 00 00 00 00 00 00 00 00
               00 00 00 00                       00 00 00 00 00 00 00 00 00 00 00 00
               00 00 00 00                       00 00 00 00 00 00 00 00 00 00 00 00
               00 00 00 00                       00 00 00 00 00 00 00 00 00 00 00 00
               00 00 00 00                       00 00 00 00 00 00 00 00 00 00 00 00
               00 00 00 00                       00 00 00 00 00 00 00 00 00 00 00 00
               00 00 00 00                       00 00 00 00 00 00 00 00 00 00 00 00
               00 00 00 00                       00 00 00 00 00 00 00 00 00 00 00 00
               00 00 00 00                       00 00 00 00 00 00 00 00 00 00 00 00
               00 00 00 00                       00 00 00 00 00 00 00 00 00 00 00 00
               00 00 00 00                       00 00 00 00 00 00 00 00 00 00 00 00
               00 00 00 00                       00 00 00 00 00 00 00 00 00 00 00 00
               00 00 00 00                       00 00 00 00 00 00 00 00 00 00 00 00
               00 00 00 00                       00 00 00 00 00 00 00 00 00 00 00 00
               00 00 00 00                       00 00 00 00 00 00 00 00 00 00 00 00
               00 00 00 00                       00 00 00 00 00 00 00 00 00 00 00 00
               00 00 00 00                       00 00 00 00 00 00 00 00 00 00 00 00
               00 00 00 00                       00 00 00 00 00 00 00 00 00 00 00 00
               00 00 00 00                       00 00 00 00 00 00 00 00 00 00 00 00
               00 00 00 00                       00 00 00 00 00 00 00 00 00 00 00 00
               00 00 00 00                       00 00 00 00 00 00 00 00 00 00 00 00
               00 00 00 00                       00 00 00 00 00 00 00 00 00 00 00 00
               00 00 00 00                       00 00 00 00 00 00 00 00 00 00 00 00
               00 00 00 00                       00 00 00 00 00 00 00 00 00 00 00 00
               00 00 00 00                       00 00 00 00 00 00 00 00 00 00 00 00
               00 00 00 00                       00 00 00 00 00 00 00 00 00 00 00 00
               00 00 00 00                       00 00 00 00 00 00 00 00 00 00 00 00
               00 00 00 00                       00 00 00 00 00 00 00 00 00 00 00 00
               00 00 00 00                       00 00 00 00 00 00 00 00 00 00 00 00
               00 00 00 00                       00 00 00 00 00 00 00 00 00 00 00 00
               00 00 00 00                       00 00 00 00 00 00 00 00 00 00 00 00
               00 00 00 00                       00 00 00 00 00 00 00 00 00 00 00 00
               00 00 00 00                       00 00 00 00 00 00 00 00 00 00 00 00
               00 00 00 00                       00 00 00 00 00 00 00 00 00 00 00 00
               00 00 00 00                       00 00 00 00 00 00 00 00 00 00 00 00
               00 00 00 00                       00 00 00 00 00 00 00 00 00 00 00 00
               00 00 00 00                       00 00 00 00 00 00 00 00 00 00 00 00
               00 00 00 00                       00 00 00 00 00 00 00 00 00 00 00 00
               00 00 00 00                       00 00 00 00 00 00 00 00 00 00 00 00
               00 00 00 00                       00 00 00 00 00 00 00 00
               00 00 00 00
               00 00 00 00
               00 00 00 00
               00 00 00 00
               00 00 00 00
               00 00 00 00
               00 00 00 00
               00 00 00 00
               00 00 00 00
               00 00 00 00
               00 00 00 00
               00 00 00 00
               00 00 00 00
               00 00 00 00
               00 00 00 00
               00 00 00 00
               00 00 00 00
               00 00 00 00
               00 00 00 00
               00 00 00 00
               00 00 00 00
               00 00 00 00
               00 00 00 00
               00 00 00 00
               00 00 00 00
               00 00 00 00
               00 00 00 00
               00 00 00 00
               00 00 00 00
               00 00 00 00
               00 00 00 00
               00 00 00 00
               00 00 00 00
               00 00 00 00
               00 00 00 00
               00 00 00 00
               00 00 00 00
               00 00 00 00
               00 00 00 00
               00 00 00 00
               00 00 00 00
               00 00 00 00
               00 00 00 00
               00 00 00 00
               00 00 00 00
               00 00 00 00
               00 00 00 00
               00 00 00 00
               00 00 00 00
               00 00 00 00
               00 00 00 00
               00 00 00 00
               00 00 00 00
               00 00 00 00
               00 00 00 00
               00 00 00 00
               00 00 00 00
               00 00 00 00
               00 00 00 00
               00 00 00 00
               00 00 00 00
               00 00 00 00
               00 00 00 00
               00 00 00 00
               00 00 00 00
               00 00 00 00
               00 00 00 00
               00 00 00 00
               00 00 00 00
               00 00 00 00
               00 00 00 00
               00 00 00 00
               00 00 00 00
               00 00 00 00
               00 00 00 00
               00 00 00 00
               00 00 00 00
               00 00 00 00
               00 00 00 00
               00 00 00 00
               00 00 00 00
               00 00 00 00
               00 00 00 00
               00 00 00 00
               00 00 00 00
05C4 06B2 00EF AC 92 C1 6A PAYLOAD               ...j.0.@......Q....N/c......[IL...j..
               C3 30 0C 40                       .<...].aG.....zs.Fu..]...U......^.[..
               EF 83 FD 83                       x.....1x.p.....f..#I)...Y............
               D1 BD 51 DA                       .*D....i")..c$...qU...~3..1..jH[{..=E
               C1 18 A3 4E                       ......~.f?..3-.....].T...2.j).,.l0/%.
               2F 63 D0 DB                       .b.......z......,..../.|f\.Z.....?6.!
               18 D9 07 08                       Y._.o..]A........
               5B 49 4C 13
               DB D8 6A D7
               FE FD 3C D8
               D8 02 5D E9
               61 47 CB D2
               D3 93 D0 7A
               73 9C 46 75
               E0 94 5D F0
               1A 96 55 0D
               8A BD 09 D6
               F9 5E C3 5B
               FB BC 78 00
               95 85 BC A5
               31 78 D6 70
               E2 0C 9B E6
               F6 66 FD CA
               23 49 29 CA
               83 8B 59 15
               8A CF 1A 06
               91 F8 88 98
               CD C0 13 E5
               2A 44 F6 E5
               A7 0B 69 22
               29 CF D4 63
               24 B3 A3 9E
               71 55 D7 F7
               98 7E 33 A0
               99 31 D5 D6
               6A 48 5B 7B
               07 AA 3D 45
               BE 86 1D BA
               CE 19 7E 0A
               66 3F B1 97
               33 2D 90 8F
               C2 DE B2 5D
               C4 54 EA 93
               B8 32 8D 6A
               29 F5 2C 1A
               6C 30 2F 25
               9C 91 62 AC
               0A 1A F0 BC
               D1 EA 7A A3
               BF A7 C5 89
               85 2C 09 A1
               09 89 2F FB
               7C 66 5C 12
               5A FE E7 8A
               E6 19 3F 36
               EF 21 59 B4
               5F E1 6F 1B
               9C 5D 41 F3
               01 00 00 FF
               FF 03 00

06B3 06B6 0004 50 4B 03 04 LOCAL HEADER #3       04034B50
06B7 06B7 0001 14          Extract Zip Spec      14 '2.0'
06B8 06B8 0001 00          Extract OS            00 'MS-DOS'
06B9 06BA 0002 06 00       General Purpose Flag  0006
                           [Bits 1-2]            3 'Super Fast Compression'
06BB 06BC 0002 08 00       Compression Method    0008 'Deflated'
06BD 06C0 0004 00 00 21 00 Last Mod Time         00210000 'Tue Jan  1 00:00:00 1980'
06C1 06C4 0004 87 D6 82 5E CRC                   5E82D687
06C5 06C8 0004 BE 02 00 00 Compressed Length     000002BE
06C9 06CC 0004 80 0A 00 00 Uncompressed Length   00000A80
06CD 06CE 0002 11 00       Filename Length       0011
06CF 06D0 0002 00 00       Extra Length          0000
06D1 06E1 0011 77 6F 72 64 Filename              'word/document.xml'
               2F 64 6F 63
               75 6D 65 6E
               74 2E 78 6D
               6C
06E2 099F 02BE ...         PAYLOAD

09A0 09A3 0004 50 4B 03 04 LOCAL HEADER #4       04034B50
09A4 09A4 0001 14          Extract Zip Spec      14 '2.0'
09A5 09A5 0001 00          Extract OS            00 'MS-DOS'
09A6 09A7 0002 06 00       General Purpose Flag  0006
                           [Bits 1-2]            3 'Super Fast Compression'
09A8 09A9 0002 08 00       Compression Method    0008 'Deflated'
09AA 09AD 0004 00 00 21 00 Last Mod Time         00210000 'Tue Jan  1 00:00:00 1980'
09AE 09B1 0004 D6 64 B3 51 CRC                   51B364D6
09B2 09B5 0004 F4 00 00 00 Compressed Length     000000F4
09B6 09B9 0004 31 03 00 00 Uncompressed Length   00000331
09BA 09BB 0002 1C 00       Filename Length       001C
09BC 09BD 0002 08 01       Extra Length          0108
09BE 09D9 001C 77 6F 72 64 Filename              'word/_rels/document.xml.rels'
               2F 5F 72 65
               6C 73 2F 64
               6F 63 75 6D
               65 6E 74 2E
               78 6D 6C 2E
               72 65 6C 73
09DA 09DB 0002 20 A2       Extra ID #0001        A220 'Open Packaging Growth Hint'
09DC 09DD 0002 04 01         Length              0104
09DE 09DF 0002 28 A0         Signature           A028
09E0 09E1 0002 00 01         Initial Value       0100
09E2 0AE1 0100 00 00 00 00   Padding             00 00 00 00 00 00 00 00 00 00 00 00
               00 00 00 00                       00 00 00 00 00 00 00 00 00 00 00 00
               00 00 00 00                       00 00 00 00 00 00 00 00 00 00 00 00
               00 00 00 00                       00 00 00 00 00 00 00 00 00 00 00 00
               00 00 00 00                       00 00 00 00 00 00 00 00 00 00 00 00
               00 00 00 00                       00 00 00 00 00 00 00 00 00 00 00 00
               00 00 00 00                       00 00 00 00 00 00 00 00 00 00 00 00
               00 00 00 00                       00 00 00 00 00 00 00 00 00 00 00 00
               00 00 00 00                       00 00 00 00 00 00 00 00 00 00 00 00
               00 00 00 00                       00 00 00 00 00 00 00 00 00 00 00 00
               00 00 00 00                       00 00 00 00 00 00 00 00 00 00 00 00
               00 00 00 00                       00 00 00 00 00 00 00 00 00 00 00 00
               00 00 00 00                       00 00 00 00 00 00 00 00 00 00 00 00
               00 00 00 00                       00 00 00 00 00 00 00 00 00 00 00 00
               00 00 00 00                       00 00 00 00 00 00 00 00 00 00 00 00
               00 00 00 00                       00 00 00 00 00 00 00 00 00 00 00 00
               00 00 00 00                       00 00 00 00 00 00 00 00 00 00 00 00
               00 00 00 00                       00 00 00 00 00 00 00 00 00 00 00 00
               00 00 00 00                       00 00 00 00 00 00 00 00 00 00 00 00
               00 00 00 00                       00 00 00 00 00 00 00 00 00 00 00 00
               00 00 00 00                       00 00 00 00 00 00 00 00 00 00 00 00
               00 00 00 00                       00 00 00 00
               00 00 00 00
               00 00 00 00
               00 00 00 00
               00 00 00 00
               00 00 00 00
               00 00 00 00
               00 00 00 00
               00 00 00 00
               00 00 00 00
               00 00 00 00
               00 00 00 00
               00 00 00 00
               00 00 00 00
               00 00 00 00
               00 00 00 00
               00 00 00 00
               00 00 00 00
               00 00 00 00
               00 00 00 00
               00 00 00 00
               00 00 00 00
               00 00 00 00
               00 00 00 00
               00 00 00 00
               00 00 00 00
               00 00 00 00
               00 00 00 00
               00 00 00 00
               00 00 00 00
               00 00 00 00
               00 00 00 00
               00 00 00 00
               00 00 00 00
               00 00 00 00
               00 00 00 00
               00 00 00 00
               00 00 00 00
               00 00 00 00
               00 00 00 00
               00 00 00 00
               00 00 00 00
               00 00 00 00
0AE2 0BD5 00F4 AC 92 CB 6A PAYLOAD               ...j.0.E.....}-;}PB.lJ!....E.?.,.....
               C3 30 10 45                       .HI..`..r..s..6....w..{...r....{.*x..
               F7 85 FE 83                       ..A.kWk..*..`[^^l..jNK...D.8R.1...d:.
               98 7D 2D 3B                       4e>.K/....4.V.m^u.r..w2N.P.0..V.w.5.j
               7D 50 42 E4                       ....o....7o.:>S!?p....8JX.[d..0KD..EV
               6C 4A 21 DB                       K....c2.P,......a...]...........s.Y..
               D6 FD 00 45                       ..+......(!O>z........
               1E 3F A8 2C
               09 CD F4 E1
               BF AF 48 49
               EB D0 60 BA
               F0 72 AE 98
               73 CF 80 36
               DB CF C1 8A
               77 8C D4 7B
               A7 A0 C8 72
               10 E8 8C AF
               7B D7 2A 78
               A9 1E AF EE
               41 10 6B 57
               6B EB 1D 2A
               18 91 60 5B
               5E 5E 6C 9E
               D0 6A 4E 4B
               D4 F5 81 44
               A2 38 52 D0
               31 87 B5 94
               64 3A 1C 34
               65 3E A0 4B
               2F 8D 8F 83
               E6 34 C6 56
               06 6D 5E 75
               8B 72 95 E7
               77 32 4E 19
               50 9E 30 C5
               AE 56 10 77
               F5 35 88 6A
               0C F8 1F B6
               6F 9A DE E0
               83 37 6F 03
               3A 3E 53 21
               3F 70 FF 8C
               CC E9 38 4A
               58 1D 5B 64
               05 93 30 4B
               44 90 E7 45
               56 4B 8A D0
               1F 8B 63 32
               A7 50 2C AA
               C0 A3 C5 A9
               C0 61 9E AB
               BF 5D B2 9E
               D3 2E FE B6
               1F C6 EF B0
               98 73 B8 59
               D2 A1 F1 8E
               2B BD B7 13
               8F 9F E8 28
               21 4F 3E 7A
               F9 05 00 00
               FF FF 03 00

0BD6 0BD9 0004 50 4B 03 04 LOCAL HEADER #5       04034B50
0BDA 0BDA 0001 14          Extract Zip Spec      14 '2.0'
0BDB 0BDB 0001 00          Extract OS            00 'MS-DOS'
0BDC 0BDD 0002 06 00       General Purpose Flag  0006
                           [Bits 1-2]            3 'Super Fast Compression'
0BDE 0BDF 0002 08 00       Compression Method    0008 'Deflated'
0BE0 0BE3 0004 00 00 21 00 Last Mod Time         00210000 'Tue Jan  1 00:00:00 1980'
0BE4 0BE7 0004 B6 F4 67 98 CRC                   9867F4B6
0BE8 0BEB 0004 D2 06 00 00 Compressed Length     000006D2
0BEC 0BEF 0004 C9 20 00 00 Uncompressed Length   000020C9
0BF0 0BF1 0002 15 00       Filename Length       0015
0BF2 0BF3 0002 00 00       Extra Length          0000
0BF4 0C08 0015 77 6F 72 64 Filename              'word/theme/theme1.xml'
               2F 74 68 65
               6D 65 2F 74
               68 65 6D 65
               31 2E 78 6D
               6C
0C09 12DA 06D2 ...         PAYLOAD

12DB 12DE 0004 50 4B 03 04 LOCAL HEADER #6       04034B50
12DF 12DF 0001 14          Extract Zip Spec      14 '2.0'
12E0 12E0 0001 00          Extract OS            00 'MS-DOS'
12E1 12E2 0002 06 00       General Purpose Flag  0006
                           [Bits 1-2]            3 'Super Fast Compression'
12E3 12E4 0002 08 00       Compression Method    0008 'Deflated'
12E5 12E8 0004 00 00 21 00 Last Mod Time         00210000 'Tue Jan  1 00:00:00 1980'
12E9 12EC 0004 54 A2 FA 4F CRC                   4FFAA254
12ED 12F0 0004 1F 04 00 00 Compressed Length     0000041F
12F1 12F4 0004 C4 0B 00 00 Uncompressed Length   00000BC4
12F5 12F6 0002 11 00       Filename Length       0011
12F7 12F8 0002 00 00       Extra Length          0000
12F9 1309 0011 77 6F 72 64 Filename              'word/settings.xml'
               2F 73 65 74
               74 69 6E 67
               73 2E 78 6D
               6C
130A 1728 041F ...         PAYLOAD

1729 172C 0004 50 4B 03 04 LOCAL HEADER #7       04034B50
172D 172D 0001 14          Extract Zip Spec      14 '2.0'
172E 172E 0001 00          Extract OS            00 'MS-DOS'
172F 1730 0002 06 00       General Purpose Flag  0006
                           [Bits 1-2]            3 'Super Fast Compression'
1731 1732 0002 08 00       Compression Method    0008 'Deflated'
1733 1736 0004 00 00 21 00 Last Mod Time         00210000 'Tue Jan  1 00:00:00 1980'
1737 173A 0004 B2 11 CF 70 CRC                   70CF11B2
173B 173E 0004 67 0B 00 00 Compressed Length     00000B67
173F 1742 0004 CF 71 00 00 Uncompressed Length   000071CF
1743 1744 0002 0F 00       Filename Length       000F
1745 1746 0002 00 00       Extra Length          0000
1747 1755 000F 77 6F 72 64 Filename              'word/styles.xml'
               2F 73 74 79
               6C 65 73 2E
               78 6D 6C
1756 22BC 0B67 ...         PAYLOAD

22BD 22C0 0004 50 4B 03 04 LOCAL HEADER #8       04034B50
22C1 22C1 0001 14          Extract Zip Spec      14 '2.0'
22C2 22C2 0001 00          Extract OS            00 'MS-DOS'
22C3 22C4 0002 06 00       General Purpose Flag  0006
                           [Bits 1-2]            3 'Super Fast Compression'
22C5 22C6 0002 08 00       Compression Method    0008 'Deflated'
22C7 22CA 0004 00 00 21 00 Last Mod Time         00210000 'Tue Jan  1 00:00:00 1980'
22CB 22CE 0004 40 C1 FF F1 CRC                   F1FFC140
22CF 22D2 0004 39 01 00 00 Compressed Length     00000139
22D3 22D6 0004 23 03 00 00 Uncompressed Length   00000323
22D7 22D8 0002 14 00       Filename Length       0014
22D9 22DA 0002 00 00       Extra Length          0000
22DB 22EE 0014 77 6F 72 64 Filename              'word/webSettings.xml'
               2F 77 65 62
               53 65 74 74
               69 6E 67 73
               2E 78 6D 6C
22EF 2427 0139 ...         PAYLOAD

2428 242B 0004 50 4B 03 04 LOCAL HEADER #9       04034B50
242C 242C 0001 14          Extract Zip Spec      14 '2.0'
242D 242D 0001 00          Extract OS            00 'MS-DOS'
242E 242F 0002 06 00       General Purpose Flag  0006
                           [Bits 1-2]            3 'Super Fast Compression'
2430 2431 0002 08 00       Compression Method    0008 'Deflated'
2432 2435 0004 00 00 21 00 Last Mod Time         00210000 'Tue Jan  1 00:00:00 1980'
2436 2439 0004 9A D4 97 9A CRC                   9A97D49A
243A 243D 0004 DA 01 00 00 Compressed Length     000001DA
243E 2441 0004 1F 06 00 00 Uncompressed Length   0000061F
2442 2443 0002 12 00       Filename Length       0012
2444 2445 0002 00 00       Extra Length          0000
2446 2457 0012 77 6F 72 64 Filename              'word/fontTable.xml'
               2F 66 6F 6E
               74 54 61 62
               6C 65 2E 78
               6D 6C
2458 2631 01DA ...         PAYLOAD

2632 2635 0004 50 4B 03 04 LOCAL HEADER #A       04034B50
2636 2636 0001 14          Extract Zip Spec      14 '2.0'
2637 2637 0001 00          Extract OS            00 'MS-DOS'
2638 2639 0002 06 00       General Purpose Flag  0006
                           [Bits 1-2]            3 'Super Fast Compression'
263A 263B 0002 08 00       Compression Method    0008 'Deflated'
263C 263F 0004 00 00 21 00 Last Mod Time         00210000 'Tue Jan  1 00:00:00 1980'
2640 2643 0004 56 E9 1D 96 CRC                   961DE956
2644 2647 0004 71 01 00 00 Compressed Length     00000171
2648 264B 0004 F1 02 00 00 Uncompressed Length   000002F1
264C 264D 0002 11 00       Filename Length       0011
264E 264F 0002 08 01       Extra Length          0108
2650 2660 0011 64 6F 63 50 Filename              'docProps/core.xml'
               72 6F 70 73
               2F 63 6F 72
               65 2E 78 6D
               6C
2661 2662 0002 20 A2       Extra ID #0001        A220 'Open Packaging Growth Hint'
2663 2664 0002 04 01         Length              0104
2665 2666 0002 28 A0         Signature           A028
2667 2668 0002 00 01         Initial Value       0100
2669 2768 0100 00 00 00 00   Padding             00 00 00 00 00 00 00 00 00 00 00 00
               00 00 00 00                       00 00 00 00 00 00 00 00 00 00 00 00
               00 00 00 00                       00 00 00 00 00 00 00 00 00 00 00 00
               00 00 00 00                       00 00 00 00 00 00 00 00 00 00 00 00
               00 00 00 00                       00 00 00 00 00 00 00 00 00 00 00 00
               00 00 00 00                       00 00 00 00 00 00 00 00 00 00 00 00
               00 00 00 00                       00 00 00 00 00 00 00 00 00 00 00 00
               00 00 00 00                       00 00 00 00 00 00 00 00 00 00 00 00
               00 00 00 00                       00 00 00 00 00 00 00 00 00 00 00 00
               00 00 00 00                       00 00 00 00 00 00 00 00 00 00 00 00
               00 00 00 00                       00 00 00 00 00 00 00 00 00 00 00 00
               00 00 00 00                       00 00 00 00 00 00 00 00 00 00 00 00
               00 00 00 00                       00 00 00 00 00 00 00 00 00 00 00 00
               00 00 00 00                       00 00 00 00 00 00 00 00 00 00 00 00
               00 00 00 00                       00 00 00 00 00 00 00 00 00 00 00 00
               00 00 00 00                       00 00 00 00 00 00 00 00 00 00 00 00
               00 00 00 00                       00 00 00 00 00 00 00 00 00 00 00 00
               00 00 00 00                       00 00 00 00 00 00 00 00 00 00 00 00
               00 00 00 00                       00 00 00 00 00 00 00 00 00 00 00 00
               00 00 00 00                       00 00 00 00 00 00 00 00 00 00 00 00
               00 00 00 00                       00 00 00 00 00 00 00 00 00 00 00 00
               00 00 00 00                       00 00 00 00
               00 00 00 00
               00 00 00 00
               00 00 00 00
               00 00 00 00
               00 00 00 00
               00 00 00 00
               00 00 00 00
               00 00 00 00
               00 00 00 00
               00 00 00 00
               00 00 00 00
               00 00 00 00
               00 00 00 00
               00 00 00 00
               00 00 00 00
               00 00 00 00
               00 00 00 00
               00 00 00 00
               00 00 00 00
               00 00 00 00
               00 00 00 00
               00 00 00 00
               00 00 00 00
               00 00 00 00
               00 00 00 00
               00 00 00 00
               00 00 00 00
               00 00 00 00
               00 00 00 00
               00 00 00 00
               00 00 00 00
               00 00 00 00
               00 00 00 00
               00 00 00 00
               00 00 00 00
               00 00 00 00
               00 00 00 00
               00 00 00 00
               00 00 00 00
               00 00 00 00
               00 00 00 00
               00 00 00 00
2769 28D9 0171 ...         PAYLOAD

28DA 28DD 0004 50 4B 03 04 LOCAL HEADER #B       04034B50
28DE 28DE 0001 14          Extract Zip Spec      14 '2.0'
28DF 28DF 0001 00          Extract OS            00 'MS-DOS'
28E0 28E1 0002 06 00       General Purpose Flag  0006
                           [Bits 1-2]            3 'Super Fast Compression'
28E2 28E3 0002 08 00       Compression Method    0008 'Deflated'
28E4 28E7 0004 00 00 21 00 Last Mod Time         00210000 'Tue Jan  1 00:00:00 1980'
28E8 28EB 0004 9A 18 1A 87 CRC                   871A189A
28EC 28EF 0004 6C 01 00 00 Compressed Length     0000016C
28F0 28F3 0004 C5 02 00 00 Uncompressed Length   000002C5
28F4 28F5 0002 10 00       Filename Length       0010
28F6 28F7 0002 08 01       Extra Length          0108
28F8 2907 0010 64 6F 63 50 Filename              'docProps/app.xml'
               72 6F 70 73
               2F 61 70 70
               2E 78 6D 6C
2908 2909 0002 20 A2       Extra ID #0001        A220 'Open Packaging Growth Hint'
290A 290B 0002 04 01         Length              0104
290C 290D 0002 28 A0         Signature           A028
290E 290F 0002 00 01         Initial Value       0100
2910 2A0F 0100 00 00 00 00   Padding             00 00 00 00 00 00 00 00 00 00 00 00
               00 00 00 00                       00 00 00 00 00 00 00 00 00 00 00 00
               00 00 00 00                       00 00 00 00 00 00 00 00 00 00 00 00
               00 00 00 00                       00 00 00 00 00 00 00 00 00 00 00 00
               00 00 00 00                       00 00 00 00 00 00 00 00 00 00 00 00
               00 00 00 00                       00 00 00 00 00 00 00 00 00 00 00 00
               00 00 00 00                       00 00 00 00 00 00 00 00 00 00 00 00
               00 00 00 00                       00 00 00 00 00 00 00 00 00 00 00 00
               00 00 00 00                       00 00 00 00 00 00 00 00 00 00 00 00
               00 00 00 00                       00 00 00 00 00 00 00 00 00 00 00 00
               00 00 00 00                       00 00 00 00 00 00 00 00 00 00 00 00
               00 00 00 00                       00 00 00 00 00 00 00 00 00 00 00 00
               00 00 00 00                       00 00 00 00 00 00 00 00 00 00 00 00
               00 00 00 00                       00 00 00 00 00 00 00 00 00 00 00 00
               00 00 00 00                       00 00 00 00 00 00 00 00 00 00 00 00
               00 00 00 00                       00 00 00 00 00 00 00 00 00 00 00 00
               00 00 00 00                       00 00 00 00 00 00 00 00 00 00 00 00
               00 00 00 00                       00 00 00 00 00 00 00 00 00 00 00 00
               00 00 00 00                       00 00 00 00 00 00 00 00 00 00 00 00
               00 00 00 00                       00 00 00 00 00 00 00 00 00 00 00 00
               00 00 00 00                       00 00 00 00 00 00 00 00 00 00 00 00
               00 00 00 00                       00 00 00 00
               00 00 00 00
               00 00 00 00
               00 00 00 00
               00 00 00 00
               00 00 00 00
               00 00 00 00
               00 00 00 00
               00 00 00 00
               00 00 00 00
               00 00 00 00
               00 00 00 00
               00 00 00 00
               00 00 00 00
               00 00 00 00
               00 00 00 00
               00 00 00 00
               00 00 00 00
               00 00 00 00
               00 00 00 00
               00 00 00 00
               00 00 00 00
               00 00 00 00
               00 00 00 00
               00 00 00 00
               00 00 00 00
               00 00 00 00
               00 00 00 00
               00 00 00 00
               00 00 00 00
               00 00 00 00
               00 00 00 00
               00 00 00 00
               00 00 00 00
               00 00 00 00
               00 00 00 00
               00 00 00 00
               00 00 00 00
               00 00 00 00
               00 00 00 00
               00 00 00 00
               00 00 00 00
               00 00 00 00
2A10 2B7B 016C ...         PAYLOAD

2B7C 2B7F 0004 50 4B 01 02 CENTRAL HEADER #1     02014B50
2B80 2B80 0001 2D          Created Zip Spec      2D '4.5'
2B81 2B81 0001 00          Created OS            00 'MS-DOS'
2B82 2B82 0001 14          Extract Zip Spec      14 '2.0'
2B83 2B83 0001 00          Extract OS            00 'MS-DOS'
2B84 2B85 0002 06 00       General Purpose Flag  0006
                           [Bits 1-2]            3 'Super Fast Compression'
2B86 2B87 0002 08 00       Compression Method    0008 'Deflated'
2B88 2B8B 0004 00 00 21 00 Last Mod Time         00210000 'Tue Jan  1 00:00:00 1980'
2B8C 2B8F 0004 DF A4 D2 6C CRC                   6CD2A4DF
2B90 2B93 0004 5A 01 00 00 Compressed Length     0000015A
2B94 2B97 0004 20 05 00 00 Uncompressed Length   00000520
2B98 2B99 0002 13 00       Filename Length       0013
2B9A 2B9B 0002 00 00       Extra Length          0000
2B9C 2B9D 0002 00 00       Comment Length        0000
2B9E 2B9F 0002 00 00       Disk Start            0000
2BA0 2BA1 0002 00 00       Int File Attributes   0000
                           [Bit 0]               0 'Binary Data'
2BA2 2BA5 0004 00 00 00 00 Ext File Attributes   00000000
2BA6 2BA9 0004 00 00 00 00 Local Header Offset   00000000
2BAA 2BBC 0013 5B 43 6F 6E Filename              '[Content_Types].xml'
               74 65 6E 74
               5F 54 79 70
               65 73 5D 2E
               78 6D 6C

2BBD 2BC0 0004 50 4B 01 02 CENTRAL HEADER #2     02014B50
2BC1 2BC1 0001 2D          Created Zip Spec      2D '4.5'
2BC2 2BC2 0001 00          Created OS            00 'MS-DOS'
2BC3 2BC3 0001 14          Extract Zip Spec      14 '2.0'
2BC4 2BC4 0001 00          Extract OS            00 'MS-DOS'
2BC5 2BC6 0002 06 00       General Purpose Flag  0006
                           [Bits 1-2]            3 'Super Fast Compression'
2BC7 2BC8 0002 08 00       Compression Method    0008 'Deflated'
2BC9 2BCC 0004 00 00 21 00 Last Mod Time         00210000 'Tue Jan  1 00:00:00 1980'
2BCD 2BD0 0004 1E 91 1A B7 CRC                   B71A911E
2BD1 2BD4 0004 EF 00 00 00 Compressed Length     000000EF
2BD5 2BD8 0004 4E 02 00 00 Uncompressed Length   0000024E
2BD9 2BDA 0002 0B 00       Filename Length       000B
2BDB 2BDC 0002 00 00       Extra Length          0000
2BDD 2BDE 0002 00 00       Comment Length        0000
2BDF 2BE0 0002 00 00       Disk Start            0000
2BE1 2BE2 0002 00 00       Int File Attributes   0000
                           [Bit 0]               0 'Binary Data'
2BE3 2BE6 0004 00 00 00 00 Ext File Attributes   00000000
2BE7 2BEA 0004 93 03 00 00 Local Header Offset   00000393
2BEB 2BF5 000B 5F 72 65 6C Filename              '_rels/.rels'
               73 2F 2E 72
               65 6C 73

2BF6 2BF9 0004 50 4B 01 02 CENTRAL HEADER #3     02014B50
2BFA 2BFA 0001 2D          Created Zip Spec      2D '4.5'
2BFB 2BFB 0001 00          Created OS            00 'MS-DOS'
2BFC 2BFC 0001 14          Extract Zip Spec      14 '2.0'
2BFD 2BFD 0001 00          Extract OS            00 'MS-DOS'
2BFE 2BFF 0002 06 00       General Purpose Flag  0006
                           [Bits 1-2]            3 'Super Fast Compression'
2C00 2C01 0002 08 00       Compression Method    0008 'Deflated'
2C02 2C05 0004 00 00 21 00 Last Mod Time         00210000 'Tue Jan  1 00:00:00 1980'
2C06 2C09 0004 87 D6 82 5E CRC                   5E82D687
2C0A 2C0D 0004 BE 02 00 00 Compressed Length     000002BE
2C0E 2C11 0004 80 0A 00 00 Uncompressed Length   00000A80
2C12 2C13 0002 11 00       Filename Length       0011
2C14 2C15 0002 00 00       Extra Length          0000
2C16 2C17 0002 00 00       Comment Length        0000
2C18 2C19 0002 00 00       Disk Start            0000
2C1A 2C1B 0002 00 00       Int File Attributes   0000
                           [Bit 0]               0 'Binary Data'
2C1C 2C1F 0004 00 00 00 00 Ext File Attributes   00000000
2C20 2C23 0004 B3 06 00 00 Local Header Offset   000006B3
2C24 2C34 0011 77 6F 72 64 Filename              'word/document.xml'
               2F 64 6F 63
               75 6D 65 6E
               74 2E 78 6D
               6C

2C35 2C38 0004 50 4B 01 02 CENTRAL HEADER #4     02014B50
2C39 2C39 0001 2D          Created Zip Spec      2D '4.5'
2C3A 2C3A 0001 00          Created OS            00 'MS-DOS'
2C3B 2C3B 0001 14          Extract Zip Spec      14 '2.0'
2C3C 2C3C 0001 00          Extract OS            00 'MS-DOS'
2C3D 2C3E 0002 06 00       General Purpose Flag  0006
                           [Bits 1-2]            3 'Super Fast Compression'
2C3F 2C40 0002 08 00       Compression Method    0008 'Deflated'
2C41 2C44 0004 00 00 21 00 Last Mod Time         00210000 'Tue Jan  1 00:00:00 1980'
2C45 2C48 0004 D6 64 B3 51 CRC                   51B364D6
2C49 2C4C 0004 F4 00 00 00 Compressed Length     000000F4
2C4D 2C50 0004 31 03 00 00 Uncompressed Length   00000331
2C51 2C52 0002 1C 00       Filename Length       001C
2C53 2C54 0002 00 00       Extra Length          0000
2C55 2C56 0002 00 00       Comment Length        0000
2C57 2C58 0002 00 00       Disk Start            0000
2C59 2C5A 0002 00 00       Int File Attributes   0000
                           [Bit 0]               0 'Binary Data'
2C5B 2C5E 0004 00 00 00 00 Ext File Attributes   00000000
2C5F 2C62 0004 A0 09 00 00 Local Header Offset   000009A0
2C63 2C7E 001C 77 6F 72 64 Filename              'word/_rels/document.xml.rels'
               2F 5F 72 65
               6C 73 2F 64
               6F 63 75 6D
               65 6E 74 2E
               78 6D 6C 2E
               72 65 6C 73

2C7F 2C82 0004 50 4B 01 02 CENTRAL HEADER #5     02014B50
2C83 2C83 0001 2D          Created Zip Spec      2D '4.5'
2C84 2C84 0001 00          Created OS            00 'MS-DOS'
2C85 2C85 0001 14          Extract Zip Spec      14 '2.0'
2C86 2C86 0001 00          Extract OS            00 'MS-DOS'
2C87 2C88 0002 06 00       General Purpose Flag  0006
                           [Bits 1-2]            3 'Super Fast Compression'
2C89 2C8A 0002 08 00       Compression Method    0008 'Deflated'
2C8B 2C8E 0004 00 00 21 00 Last Mod Time         00210000 'Tue Jan  1 00:00:00 1980'
2C8F 2C92 0004 B6 F4 67 98 CRC                   9867F4B6
2C93 2C96 0004 D2 06 00 00 Compressed Length     000006D2
2C97 2C9A 0004 C9 20 00 00 Uncompressed Length   000020C9
2C9B 2C9C 0002 15 00       Filename Length       0015
2C9D 2C9E 0002 00 00       Extra Length          0000
2C9F 2CA0 0002 00 00       Comment Length        0000
2CA1 2CA2 0002 00 00       Disk Start            0000
2CA3 2CA4 0002 00 00       Int File Attributes   0000
                           [Bit 0]               0 'Binary Data'
2CA5 2CA8 0004 00 00 00 00 Ext File Attributes   00000000
2CA9 2CAC 0004 D6 0B 00 00 Local Header Offset   00000BD6
2CAD 2CC1 0015 77 6F 72 64 Filename              'word/theme/theme1.xml'
               2F 74 68 65
               6D 65 2F 74
               68 65 6D 65
               31 2E 78 6D
               6C

2CC2 2CC5 0004 50 4B 01 02 CENTRAL HEADER #6     02014B50
2CC6 2CC6 0001 2D          Created Zip Spec      2D '4.5'
2CC7 2CC7 0001 00          Created OS            00 'MS-DOS'
2CC8 2CC8 0001 14          Extract Zip Spec      14 '2.0'
2CC9 2CC9 0001 00          Extract OS            00 'MS-DOS'
2CCA 2CCB 0002 06 00       General Purpose Flag  0006
                           [Bits 1-2]            3 'Super Fast Compression'
2CCC 2CCD 0002 08 00       Compression Method    0008 'Deflated'
2CCE 2CD1 0004 00 00 21 00 Last Mod Time         00210000 'Tue Jan  1 00:00:00 1980'
2CD2 2CD5 0004 54 A2 FA 4F CRC                   4FFAA254
2CD6 2CD9 0004 1F 04 00 00 Compressed Length     0000041F
2CDA 2CDD 0004 C4 0B 00 00 Uncompressed Length   00000BC4
2CDE 2CDF 0002 11 00       Filename Length       0011
2CE0 2CE1 0002 00 00       Extra Length          0000
2CE2 2CE3 0002 00 00       Comment Length        0000
2CE4 2CE5 0002 00 00       Disk Start            0000
2CE6 2CE7 0002 00 00       Int File Attributes   0000
                           [Bit 0]               0 'Binary Data'
2CE8 2CEB 0004 00 00 00 00 Ext File Attributes   00000000
2CEC 2CEF 0004 DB 12 00 00 Local Header Offset   000012DB
2CF0 2D00 0011 77 6F 72 64 Filename              'word/settings.xml'
               2F 73 65 74
               74 69 6E 67
               73 2E 78 6D
               6C

2D01 2D04 0004 50 4B 01 02 CENTRAL HEADER #7     02014B50
2D05 2D05 0001 2D          Created Zip Spec      2D '4.5'
2D06 2D06 0001 00          Created OS            00 'MS-DOS'
2D07 2D07 0001 14          Extract Zip Spec      14 '2.0'
2D08 2D08 0001 00          Extract OS            00 'MS-DOS'
2D09 2D0A 0002 06 00       General Purpose Flag  0006
                           [Bits 1-2]            3 'Super Fast Compression'
2D0B 2D0C 0002 08 00       Compression Method    0008 'Deflated'
2D0D 2D10 0004 00 00 21 00 Last Mod Time         00210000 'Tue Jan  1 00:00:00 1980'
2D11 2D14 0004 B2 11 CF 70 CRC                   70CF11B2
2D15 2D18 0004 67 0B 00 00 Compressed Length     00000B67
2D19 2D1C 0004 CF 71 00 00 Uncompressed Length   000071CF
2D1D 2D1E 0002 0F 00       Filename Length       000F
2D1F 2D20 0002 00 00       Extra Length          0000
2D21 2D22 0002 00 00       Comment Length        0000
2D23 2D24 0002 00 00       Disk Start            0000
2D25 2D26 0002 00 00       Int File Attributes   0000
                           [Bit 0]               0 'Binary Data'
2D27 2D2A 0004 00 00 00 00 Ext File Attributes   00000000
2D2B 2D2E 0004 29 17 00 00 Local Header Offset   00001729
2D2F 2D3D 000F 77 6F 72 64 Filename              'word/styles.xml'
               2F 73 74 79
               6C 65 73 2E
               78 6D 6C

2D3E 2D41 0004 50 4B 01 02 CENTRAL HEADER #8     02014B50
2D42 2D42 0001 2D          Created Zip Spec      2D '4.5'
2D43 2D43 0001 00          Created OS            00 'MS-DOS'
2D44 2D44 0001 14          Extract Zip Spec      14 '2.0'
2D45 2D45 0001 00          Extract OS            00 'MS-DOS'
2D46 2D47 0002 06 00       General Purpose Flag  0006
                           [Bits 1-2]            3 'Super Fast Compression'
2D48 2D49 0002 08 00       Compression Method    0008 'Deflated'
2D4A 2D4D 0004 00 00 21 00 Last Mod Time         00210000 'Tue Jan  1 00:00:00 1980'
2D4E 2D51 0004 40 C1 FF F1 CRC                   F1FFC140
2D52 2D55 0004 39 01 00 00 Compressed Length     00000139
2D56 2D59 0004 23 03 00 00 Uncompressed Length   00000323
2D5A 2D5B 0002 14 00       Filename Length       0014
2D5C 2D5D 0002 00 00       Extra Length          0000
2D5E 2D5F 0002 00 00       Comment Length        0000
2D60 2D61 0002 00 00       Disk Start            0000
2D62 2D63 0002 00 00       Int File Attributes   0000
                           [Bit 0]               0 'Binary Data'
2D64 2D67 0004 00 00 00 00 Ext File Attributes   00000000
2D68 2D6B 0004 BD 22 00 00 Local Header Offset   000022BD
2D6C 2D7F 0014 77 6F 72 64 Filename              'word/webSettings.xml'
               2F 77 65 62
               53 65 74 74
               69 6E 67 73
               2E 78 6D 6C

2D80 2D83 0004 50 4B 01 02 CENTRAL HEADER #9     02014B50
2D84 2D84 0001 2D          Created Zip Spec      2D '4.5'
2D85 2D85 0001 00          Created OS            00 'MS-DOS'
2D86 2D86 0001 14          Extract Zip Spec      14 '2.0'
2D87 2D87 0001 00          Extract OS            00 'MS-DOS'
2D88 2D89 0002 06 00       General Purpose Flag  0006
                           [Bits 1-2]            3 'Super Fast Compression'
2D8A 2D8B 0002 08 00       Compression Method    0008 'Deflated'
2D8C 2D8F 0004 00 00 21 00 Last Mod Time         00210000 'Tue Jan  1 00:00:00 1980'
2D90 2D93 0004 9A D4 97 9A CRC                   9A97D49A
2D94 2D97 0004 DA 01 00 00 Compressed Length     000001DA
2D98 2D9B 0004 1F 06 00 00 Uncompressed Length   0000061F
2D9C 2D9D 0002 12 00       Filename Length       0012
2D9E 2D9F 0002 00 00       Extra Length          0000
2DA0 2DA1 0002 00 00       Comment Length        0000
2DA2 2DA3 0002 00 00       Disk Start            0000
2DA4 2DA5 0002 00 00       Int File Attributes   0000
                           [Bit 0]               0 'Binary Data'
2DA6 2DA9 0004 00 00 00 00 Ext File Attributes   00000000
2DAA 2DAD 0004 28 24 00 00 Local Header Offset   00002428
2DAE 2DBF 0012 77 6F 72 64 Filename              'word/fontTable.xml'
               2F 66 6F 6E
               74 54 61 62
               6C 65 2E 78
               6D 6C

2DC0 2DC3 0004 50 4B 01 02 CENTRAL HEADER #A     02014B50
2DC4 2DC4 0001 2D          Created Zip Spec      2D '4.5'
2DC5 2DC5 0001 00          Created OS            00 'MS-DOS'
2DC6 2DC6 0001 14          Extract Zip Spec      14 '2.0'
2DC7 2DC7 0001 00          Extract OS            00 'MS-DOS'
2DC8 2DC9 0002 06 00       General Purpose Flag  0006
                           [Bits 1-2]            3 'Super Fast Compression'
2DCA 2DCB 0002 08 00       Compression Method    0008 'Deflated'
2DCC 2DCF 0004 00 00 21 00 Last Mod Time         00210000 'Tue Jan  1 00:00:00 1980'
2DD0 2DD3 0004 56 E9 1D 96 CRC                   961DE956
2DD4 2DD7 0004 71 01 00 00 Compressed Length     00000171
2DD8 2DDB 0004 F1 02 00 00 Uncompressed Length   000002F1
2DDC 2DDD 0002 11 00       Filename Length       0011
2DDE 2DDF 0002 00 00       Extra Length          0000
2DE0 2DE1 0002 00 00       Comment Length        0000
2DE2 2DE3 0002 00 00       Disk Start            0000
2DE4 2DE5 0002 00 00       Int File Attributes   0000
                           [Bit 0]               0 'Binary Data'
2DE6 2DE9 0004 00 00 00 00 Ext File Attributes   00000000
2DEA 2DED 0004 32 26 00 00 Local Header Offset   00002632
2DEE 2DFE 0011 64 6F 63 50 Filename              'docProps/core.xml'
               72 6F 70 73
               2F 63 6F 72
               65 2E 78 6D
               6C

2DFF 2E02 0004 50 4B 01 02 CENTRAL HEADER #B     02014B50
2E03 2E03 0001 2D          Created Zip Spec      2D '4.5'
2E04 2E04 0001 00          Created OS            00 'MS-DOS'
2E05 2E05 0001 14          Extract Zip Spec      14 '2.0'
2E06 2E06 0001 00          Extract OS            00 'MS-DOS'
2E07 2E08 0002 06 00       General Purpose Flag  0006
                           [Bits 1-2]            3 'Super Fast Compression'
2E09 2E0A 0002 08 00       Compression Method    0008 'Deflated'
2E0B 2E0E 0004 00 00 21 00 Last Mod Time         00210000 'Tue Jan  1 00:00:00 1980'
2E0F 2E12 0004 9A 18 1A 87 CRC                   871A189A
2E13 2E16 0004 6C 01 00 00 Compressed Length     0000016C
2E17 2E1A 0004 C5 02 00 00 Uncompressed Length   000002C5
2E1B 2E1C 0002 10 00       Filename Length       0010
2E1D 2E1E 0002 00 00       Extra Length          0000
2E1F 2E20 0002 00 00       Comment Length        0000
2E21 2E22 0002 00 00       Disk Start            0000
2E23 2E24 0002 00 00       Int File Attributes   0000
                           [Bit 0]               0 'Binary Data'
2E25 2E28 0004 00 00 00 00 Ext File Attributes   00000000
2E29 2E2C 0004 DA 28 00 00 Local Header Offset   000028DA
2E2D 2E3C 0010 64 6F 63 50 Filename              'docProps/app.xml'
               72 6F 70 73
               2F 61 70 70
               2E 78 6D 6C

2E3D 2E40 0004 50 4B 05 06 END CENTRAL HEADER    06054B50
2E41 2E42 0002 00 00       Number of this disk   0000
2E43 2E44 0002 00 00       Central Dir Disk no   0000
2E45 2E46 0002 0B 00       Entries in this disk  000B
2E47 2E48 0002 0B 00       Total Entries         000B
2E49 2E4C 0004 C1 02 00 00 Size of Central Dir   000002C1
2E4D 2E50 0004 7C 2B 00 00 Offset to Central Dir 00002B7C
2E51 2E52 0002 00 00       Comment Length        0000
#
# Done
