
0000 0003 0004 50 4B 03 04 LOCAL HEADER #1       04034B50
0004 0004 0001 14          Extract Zip Spec      14 '2.0'
0005 0005 0001 00          Extract OS            00 'MS-DOS'
0006 0007 0002 00 00       General Purpose Flag  0000
0008 0009 0002 00 00       Compression Method    0000 'Stored'
000A 000D 0004 B5 6E 6C 55 Last Mod Time         556C6EB5 'Sat Nov 12 13:53:42 2022'
000E 0011 0004 65 D8 87 85 CRC                   8587D865
0012 0015 0004 05 00 00 00 Compressed Length     00000005
0016 0019 0004 05 00 00 00 Uncompressed Length   00000005
001A 001B 0002 08 00       Filename Length       0008
001C 001D 0002 0A 00       Extra Length          000A
001E 0025 0008 66 69 6C 65 Filename              'filename'
               6E 61 6D 65
0026 0027 0002 75 78       Extra ID #0001        7875 'Unix Extra type 3 [ux]'
0028 0029 0002 06 00         Length              0006
002A 002A 0001 01            Version             01
002B 002B 0001 04            UID Size            04
002C 002F 0004 61 62 63 64   UID                 64636261
#
# ERROR: Offset 0x30: Extra Field 'Unix Extra type 3 [ux]' (ID 0x7875): truncated reading 'GID Size'
#        Expected 0x010x4 bytes, got 0x0 bytes
#
0030 0034 0005 61 62 63 64 PAYLOAD               abcde
               65

0035 0038 0004 50 4B 01 02 CENTRAL HEADER #1     02014B50
0039 0039 0001 14          Created Zip Spec      14 '2.0'
003A 003A 0001 03          Created OS            03 'Unix'
003B 003B 0001 14          Extract Zip Spec      14 '2.0'
003C 003C 0001 00          Extract OS            00 'MS-DOS'
003D 003E 0002 00 00       General Purpose Flag  0000
003F 0040 0002 00 00       Compression Method    0000 'Stored'
0041 0044 0004 B5 6E 6C 55 Last Mod Time         556C6EB5 'Sat Nov 12 13:53:42 2022'
0045 0048 0004 65 D8 87 85 CRC                   8587D865
0049 004C 0004 05 00 00 00 Compressed Length     00000005
004D 0050 0004 05 00 00 00 Uncompressed Length   00000005
0051 0052 0002 08 00       Filename Length       0008
0053 0054 0002 0A 00       Extra Length          000A
0055 0056 0002 00 00       Comment Length        0000
0057 0058 0002 00 00       Disk Start            0000
0059 005A 0002 00 00       Int File Attributes   0000
                           [Bit 0]               0 'Binary Data'
005B 005E 0004 00 00 A4 81 Ext File Attributes   81A40000
005F 0062 0004 00 00 00 00 Local Header Offset   00000000
0063 006A 0008 66 69 6C 65 Filename              'filename'
               6E 61 6D 65
006B 006C 0002 75 78       Extra ID #0001        7875 'Unix Extra type 3 [ux]'
006D 006E 0002 06 00         Length              0006
006F 006F 0001 01            Version             01
0070 0070 0001 04            UID Size            04
0071 0074 0004 61 62 63 64   UID                 64636261
#
# ERROR: Offset 0x75: Extra Field 'Unix Extra type 3 [ux]' (ID 0x7875): truncated reading 'GID Size'
#        Expected 0x010x4 bytes, got 0x0 bytes
#

0075 0078 0004 50 4B 05 06 END CENTRAL HEADER    06054B50
0079 007A 0002 00 00       Number of this disk   0000
007B 007C 0002 00 00       Central Dir Disk no   0000
007D 007E 0002 01 00       Entries in this disk  0001
007F 0080 0002 01 00       Total Entries         0001
0081 0084 0004 40 00 00 00 Size of Central Dir   00000040
0085 0088 0004 35 00 00 00 Offset to Central Dir 00000035
0089 008A 0002 00 00       Comment Length        0000
#
# Error Count: 2
#
# Done
