
0000 0003 0004 50 4B 03 04 LOCAL HEADER #1       04034B50 (67324752)
0004 0004 0001 14          Extract Zip Spec      14 (20) '2.0'
0005 0005 0001 00          Extract OS            00 (0) 'MS-DOS'
0006 0007 0002 02 00       General Purpose Flag  0002 (2)
                           [Bits 1-2]            1 'Maximum Compression'
0008 0009 0002 08 00       Compression Method    0008 (8) 'Deflated'
000A 000D 0004 19 0F F3 56 Last Mod Time         56F30F19 (1458769689) 'Wed Jul 19 01:56:50 2023'
000E 0011 0004 FF E7 0E F9 CRC                   F90EE7FF (4178503679)
0012 0015 0004 09 01 00 00 Compressed Length     00000109 (265)
0016 0019 0004 BE 01 00 00 Uncompressed Length   000001BE (446)
001A 001B 0002 09 00       Filename Length       0009 (9)
001C 001D 0002 00 00       Extra Length          0000 (0)
001E 0026 0009 6C 6F 72 65 Filename              'lorem.txt'
               6D 2E 74 78
               74
0027 012F 0109 ...         PAYLOAD

0130 0133 0004 50 4B 01 02 CENTRAL HEADER #1     02014B50 (33639248)
0134 0134 0001 14          Created Zip Spec      14 (20) '2.0'
0135 0135 0001 00          Created OS            00 (0) 'MS-DOS'
0136 0136 0001 14          Extract Zip Spec      14 (20) '2.0'
0137 0137 0001 00          Extract OS            00 (0) 'MS-DOS'
0138 0139 0002 02 00       General Purpose Flag  0002 (2)
                           [Bits 1-2]            1 'Maximum Compression'
013A 013B 0002 08 00       Compression Method    0008 (8) 'Deflated'
013C 013F 0004 19 0F F3 56 Last Mod Time         56F30F19 (1458769689) 'Wed Jul 19 01:56:50 2023'
0140 0143 0004 FF E7 0E F9 CRC                   F90EE7FF (4178503679)
0144 0147 0004 09 01 00 00 Compressed Length     00000109 (265)
0148 014B 0004 BE 01 00 00 Uncompressed Length   000001BE (446)
014C 014D 0002 09 00       Filename Length       0009 (9)
014E 014F 0002 24 00       Extra Length          0024 (36)
0150 0151 0002 00 00       Comment Length        0000 (0)
0152 0153 0002 00 00       Disk Start            0000 (0)
0154 0155 0002 01 00       Int File Attributes   0001 (1)
                           [Bit 0]               1 'Text Data'
0156 0159 0004 20 00 00 00 Ext File Attributes   00000020 (32)
                           [Bit 5]               Archive
015A 015D 0004 00 00 00 00 Local Header Offset   00000000 (0)
015E 0166 0009 6C 6F 72 65 Filename              'lorem.txt'
               6D 2E 74 78
               74
0167 0168 0002 0A 00       Extra ID #1           000A (10) 'NTFS FileTimes'
0169 016A 0002 20 00         Length              0020 (32)
016B 016E 0004 00 00 00 00   Reserved            00000000 (0)
016F 0170 0002 01 00         Tag1                0001 (1)
0171 0172 0002 18 00         Size1               0018 (24)
0173 017A 0008 40 8C 6C F4   Mtime               01D9BA1EF46C8C40 (133342306096680000) 'Wed Jul 19 08:56:49 2023 668000000ns'
               1E BA D9 01
017B 0182 0008 40 8C 6C F4   Atime               01D9BA1EF46C8C40 (133342306096680000) 'Wed Jul 19 08:56:49 2023 668000000ns'
               1E BA D9 01
0183 018A 0008 10 17 6C F4   Ctime               01D9BA1EF46C1710 (133342306096650000) 'Wed Jul 19 08:56:49 2023 665000000ns'
               1E BA D9 01

018B 018E 0004 50 4B 05 06 END CENTRAL HEADER    06054B50 (101010256)
018F 0190 0002 00 00       Number of this disk   0000 (0)
0191 0192 0002 00 00       Central Dir Disk no   0000 (0)
0193 0194 0002 01 00       Entries in this disk  0001 (1)
0195 0196 0002 01 00       Total Entries         0001 (1)
0197 019A 0004 5B 00 00 00 Size of Central Dir   0000005B (91)
019B 019E 0004 30 01 00 00 Offset to Central Dir 00000130 (304)
019F 01A0 0002 00 00       Comment Length        0000 (0)
#
# Done
