
000000000 000000003 000000004 50 4B 03 04 LOCAL HEADER #1       04034B50 (67324752)
000000004 000000004 000000001 2D          Extract Zip Spec      2D (45) '4.5'
000000005 000000005 000000001 00          Extract OS            00 (0) 'MS-DOS'
000000006 000000007 000000002 00 08       General Purpose Flag  0800 (2048)
                                          [Bit 11]              1 'Language Encoding'
000000008 000000009 000000002 00 00       Compression Method    0000 (0) 'Stored'
00000000A 00000000D 000000004 25 6F 07 55 Modification Time     55076F25 (1426550565) 'Sun Aug  7 13:57:10 2022'
00000000E 000000011 000000004 C6 D9 B0 65 CRC                   65B0D9C6 (1706088902)
000000012 000000015 000000004 FF FF FF FF Compressed Size       FFFFFFFF (4294967295)
000000016 000000019 000000004 FF FF FF FF Uncompressed Size     FFFFFFFF (4294967295)
00000001A 00000001B 000000002 03 00       Filename Length       0003 (3)
00000001C 00000001D 000000002 14 00       Extra Length          0014 (20)
00000001E 000000020 000000003 78 78 78    Filename              'xxx'
000000021 000000022 000000002 01 00       Extra ID #1           0001 (1) 'ZIP64'
000000023 000000024 000000002 10 00         Length              0010 (16)
000000025 00000002C 000000008 FF FF FF FF   Uncompressed Size   00000000FFFFFFFF (4294967295)
                              00 00 00 00
00000002D 000000034 000000008 FF FF FF FF   Compressed Size     00000000FFFFFFFF (4294967295)
                              00 00 00 00
000000035 100000033 0FFFFFFFF ...         PAYLOAD

100000034 100000037 000000004 50 4B 01 02 CENTRAL HEADER #1     02014B50 (33639248)
100000038 100000038 000000001 41          Created Zip Spec      41 (65) '6.5'
100000039 100000039 000000001 00          Created OS            00 (0) 'MS-DOS'
10000003A 10000003A 000000001 2D          Extract Zip Spec      2D (45) '4.5'
10000003B 10000003B 000000001 00          Extract OS            00 (0) 'MS-DOS'
10000003C 10000003D 000000002 00 08       General Purpose Flag  0800 (2048)
                                          [Bit 11]              1 'Language Encoding'
10000003E 10000003F 000000002 00 00       Compression Method    0000 (0) 'Stored'
100000040 100000043 000000004 25 6F 07 55 Modification Time     55076F25 (1426550565) 'Sun Aug  7 13:57:10 2022'
100000044 100000047 000000004 C6 D9 B0 65 CRC                   65B0D9C6 (1706088902)
100000048 10000004B 000000004 FF FF FF FF Compressed Size       FFFFFFFF (4294967295)
10000004C 10000004F 000000004 FF FF FF FF Uncompressed Size     FFFFFFFF (4294967295)
100000050 100000051 000000002 03 00       Filename Length       0003 (3)
100000052 100000053 000000002 38 00       Extra Length          0038 (56)
100000054 100000055 000000002 00 00       Comment Length        0000 (0)
100000056 100000057 000000002 00 00       Disk Start            0000 (0)
100000058 100000059 000000002 00 00       Int File Attributes   0000 (0)
                                          [Bit 0]               0 'Binary Data'
10000005A 10000005D 000000004 20 00 00 00 Ext File Attributes   00000020 (32)
                                          [Bit 5]               Archive
10000005E 100000061 000000004 00 00 00 00 Local Header Offset   00000000 (0)
100000062 100000064 000000003 78 78 78    Filename              'xxx'
100000065 100000066 000000002 01 00       Extra ID #1           0001 (1) 'ZIP64'
100000067 100000068 000000002 10 00         Length              0010 (16)
100000069 100000070 000000008 FF FF FF FF   Uncompressed Size   00000000FFFFFFFF (4294967295)
                              00 00 00 00
100000071 100000078 000000008 FF FF FF FF   Compressed Size     00000000FFFFFFFF (4294967295)
                              00 00 00 00
100000079 10000007A 000000002 0A 00       Extra ID #2           000A (10) 'NTFS FileTimes'
10000007B 10000007C 000000002 20 00         Length              0020 (32)
10000007D 100000080 000000004 00 00 00 00   Reserved            00000000 (0)
100000081 100000082 000000002 01 00         Tag1                0001 (1)
100000083 100000084 000000002 18 00         Size1               0018 (24)
100000085 10000008C 000000008 98 77 AF 33   Mtime               01D8AA5D33AF7798 (133043506283247512) 'Sun Aug  7 12:57:08 2022 324751200ns'
                              5D AA D8 01
10000008D 100000094 000000008 98 77 AF 33   Atime               01D8AA5D33AF7798 (133043506283247512) 'Sun Aug  7 12:57:08 2022 324751200ns'
                              5D AA D8 01
100000095 10000009C 000000008 D3 EA 45 31   Ctime               01D8AA5D3145EAD3 (133043506242775763) 'Sun Aug  7 12:57:04 2022 277576300ns'
                              5D AA D8 01

10000009D 1000000A0 000000004 50 4B 06 06 ZIP64 END CENTRAL DIR 06064B50 (101075792)
                                          RECORD
1000000A1 1000000A8 000000008 2C 00 00 00 Size of record        000000000000002C (44)
                              00 00 00 00
1000000A9 1000000A9 000000001 41          Created Zip Spec      41 (65) '6.5'
1000000AA 1000000AA 000000001 00          Created OS            00 (0) 'MS-DOS'
1000000AB 1000000AB 000000001 2D          Extract Zip Spec      2D (45) '4.5'
1000000AC 1000000AC 000000001 00          Extract OS            00 (0) 'MS-DOS'
1000000AD 1000000B0 000000004 00 00 00 00 Number of this disk   00000000 (0)
1000000B1 1000000B4 000000004 00 00 00 00 Central Dir Disk no   00000000 (0)
1000000B5 1000000BC 000000008 01 00 00 00 Entries in this disk  0000000000000001 (1)
                              00 00 00 00
1000000BD 1000000C4 000000008 01 00 00 00 Total Entries         0000000000000001 (1)
                              00 00 00 00
1000000C5 1000000CC 000000008 69 00 00 00 Size of Central Dir   0000000000000069 (105)
                              00 00 00 00
1000000CD 1000000D4 000000008 34 00 00 00 Offset to Central dir 0000000100000034 (4294967348)
                              01 00 00 00

1000000D5 1000000D8 000000004 50 4B 06 07 ZIP64 END CENTRAL DIR 07064B50 (117853008)
                                          LOCATOR
1000000D9 1000000DC 000000004 00 00 00 00 Central Dir Disk no   00000000 (0)
1000000DD 1000000E4 000000008 9D 00 00 00 Offset to Zip64 EOCD  000000010000009D (4294967453)
                              01 00 00 00
1000000E5 1000000E8 000000004 01 00 00 00 Total no of Disks     00000001 (1)

1000000E9 1000000EC 000000004 50 4B 05 06 END CENTRAL HEADER    06054B50 (101010256)
1000000ED 1000000EE 000000002 00 00       Number of this disk   0000 (0)
1000000EF 1000000F0 000000002 00 00       Central Dir Disk no   0000 (0)
1000000F1 1000000F2 000000002 01 00       Entries in this disk  0001 (1)
1000000F3 1000000F4 000000002 01 00       Total Entries         0001 (1)
1000000F5 1000000F8 000000004 69 00 00 00 Size of Central Dir   00000069 (105)
1000000F9 1000000FC 000000004 FF FF FF FF Offset to Central Dir FFFFFFFF (4294967295)
1000000FD 1000000FE 000000002 00 00       Comment Length        0000 (0)
#
# Done
