
0000 0003 0004 50 4B 03 04 LOCAL HEADER #1       04034B50
0004 0004 0001 14          Extract Zip Spec      14 '2.0'
0005 0005 0001 00          Extract OS            00 'MS-DOS'
0006 0007 0002 08 00       General Purpose Flag  0008
                           [Bits 1-2]            0 'Normal Compression'
                           [Bit  3]              1 'Streamed'
0008 0009 0002 08 00       Compression Method    0008 'Deflated'
000A 000D 0004 CF 53 94 55 Last Mod Time         559453CF 'Tue Dec 20 10:30:30 2022'
000E 0011 0004 00 00 00 00 CRC                   00000000
0012 0015 0004 00 00 00 00 Compressed Length     00000000
0016 0019 0004 00 00 00 00 Uncompressed Length   00000000
001A 001B 0002 09 00       Filename Length       0009
001C 001D 0002 00 00       Extra Length          0000
001E 0026 0009 6C 6F 72 65 Filename              'lorem.txt'
               6D 2E 74 78
               74
0027 0134 010E ...         PAYLOAD

                           Missing DATA          08074B50
                           DESCRIPTOR Signature
#
# ERROR: Offset 0x135: Missimg DATA DESCRIPTOR Signature
#
0135 0138 0004 FF E7 0E F9 CRC                   F90EE7FF
0139 013C 0004 0E 01 00 00 Compressed Length     0000010E
013D 0140 0004 BE 01 00 00 Uncompressed Length   000001BE

0141 0144 0004 50 4B 01 02 CENTRAL HEADER #1     02014B50
0145 0145 0001 14          Created Zip Spec      14 '2.0'
0146 0146 0001 03          Created OS            03 'Unix'
0147 0147 0001 14          Extract Zip Spec      14 '2.0'
0148 0148 0001 00          Extract OS            00 'MS-DOS'
0149 014A 0002 08 00       General Purpose Flag  0008
                           [Bits 1-2]            0 'Normal Compression'
                           [Bit  3]              1 'Streamed'
014B 014C 0002 08 00       Compression Method    0008 'Deflated'
014D 0150 0004 CF 53 94 55 Last Mod Time         559453CF 'Tue Dec 20 10:30:30 2022'
0151 0154 0004 FF E7 0E F9 CRC                   F90EE7FF
0155 0158 0004 0E 01 00 00 Compressed Length     0000010E
0159 015C 0004 BE 01 00 00 Uncompressed Length   000001BE
015D 015E 0002 09 00       Filename Length       0009
015F 0160 0002 00 00       Extra Length          0000
0161 0162 0002 00 00       Comment Length        0000
0163 0164 0002 00 00       Disk Start            0000
0165 0166 0002 01 00       Int File Attributes   0001
                           [Bit 0]               1 Text Data
0167 016A 0004 00 00 A4 81 Ext File Attributes   81A40000
016B 016E 0004 00 00 00 00 Local Header Offset   00000000
016F 0177 0009 6C 6F 72 65 Filename              'lorem.txt'
               6D 2E 74 78
               74

0178 017B 0004 50 4B 05 06 END CENTRAL HEADER    06054B50
017C 017D 0002 00 00       Number of this disk   0000
017E 017F 0002 00 00       Central Dir Disk no   0000
0180 0181 0002 01 00       Entries in this disk  0001
0182 0183 0002 01 00       Total Entries         0001
0184 0187 0004 37 00 00 00 Size of Central Dir   00000037
0188 018B 0004 41 01 00 00 Offset to Central Dir 00000141
018C 018D 0002 00 00       Comment Length        0000
#
# Error Count: 1
#
# Done
