
0000 0004 50 4B 03 04 LOCAL HEADER #1       04034B50
0004 0001 14          Extract Zip Spec      14 '2.0'
0005 0001 00          Extract OS            00 'MS-DOS'
0006 0002 00 00       General Purpose Flag  0000
                      [Bits 1-2]            0 'Normal Compression'
0008 0002 08 00       Compression Method    0008 'Deflated'
000A 0004 98 B3 F3 50 Last Mod Time         50F3B398 'Sun Jul 19 22:28:48 2020'
000E 0004 9D F9 7A CA CRC                   CA7AF99D
0012 0004 0B 00 00 00 Compressed Length     0000000B
0016 0004 06 00 00 00 Uncompressed Length   00000006
001A 0002 05 00       Filename Length       0005
001C 0002 00 00       Extra Length          0000
001E 0005 61 62 63 64 Filename              'abcde'
          65
0023 000B 01 06 00 F9 PAYLOAD               .....ancde.
          FF 61 6E 63
          64 65 0A

002E 0004 50 4B 01 02 CENTRAL HEADER #1     02014B50
0032 0001 14          Created Zip Spec      14 '2.0'
0033 0001 00          Created OS            00 'MS-DOS'
0034 0001 14          Extract Zip Spec      14 '2.0'
0035 0001 00          Extract OS            00 'MS-DOS'
0036 0002 00 00       General Purpose Flag  0000
                      [Bits 1-2]            0 'Normal Compression'
0038 0002 08 00       Compression Method    0008 'Deflated'
003A 0004 98 B3 F3 50 Last Mod Time         50F3B398 'Sun Jul 19 22:28:48 2020'
003E 0004 9D F9 7A CA CRC                   CA7AF99D
0042 0004 0B 00 00 00 Compressed Length     0000000B
0046 0004 06 00 00 00 Uncompressed Length   00000006
004A 0002 05 00       Filename Length       0005
004C 0002 24 00       Extra Length          0024
004E 0002 00 00       Comment Length        0000
0050 0002 00 00       Disk Start            0000
0052 0002 01 00       Int File Attributes   0001
                      [Bit 0]               1 Text Data
0054 0004 20 00 00 00 Ext File Attributes   00000020
                      [Bit 5]               Archive
0058 0004 00 00 00 00 Local Header Offset   00000000
005C 0005 61 62 63 64 Filename              'abcde'
          65
0061 0002 0A 00       Extra ID #0001        000A 'NTFS FileTimes'
0063 0002 20 00         Length              0020
0065 0004 00 00 00 00   Reserved            00000000
0069 0002 01 00         Tag1                0001
006B 0002 18 00         Size1               0018
006D 0008 60 06 9B 96   Mtime               01D65E13969B0660 'Sun Jul 19 21:28:47
          13 5E D6 01                       2020 814000000ns'
0075 0008 A0 A2 9B 96   Atime               01D65E13969BA2A0 'Sun Jul 19 21:28:47
          13 5E D6 01                       2020 818000000ns'
007D 0008 60 06 9B 96   Ctime               01D65E13969B0660 'Sun Jul 19 21:28:47
          13 5E D6 01                       2020 814000000ns'

0085 0004 50 4B 05 06 END CENTRAL HEADER    06054B50
0089 0002 00 00       Number of this disk   0000
008B 0002 00 00       Central Dir Disk no   0000
008D 0002 01 00       Entries in this disk  0001
008F 0002 01 00       Total Entries         0001
0091 0004 57 00 00 00 Size of Central Dir   00000057
0095 0004 2E 00 00 00 Offset to Central Dir 0000002E
0099 0002 00 00       Comment Length        0000
#
# Done
