
0000 0003 0004 50 4B 03 04 LOCAL HEADER #1       04034B50
0004 0004 0001 14          Extract Zip Spec      14 '2.0'
0005 0005 0001 00          Extract OS            00 'MS-DOS'
0006 0007 0002 00 00       General Purpose Flag  0000
0008 0009 0002 00 00       Compression Method    0000 'Stored'
000A 000D 0004 7D 61 61 56 Last Mod Time         5661617D 'Wed Mar  1 12:11:58 2023'
000E 0011 0004 C2 41 24 35 CRC                   352441C2
0012 0015 0004 03 00 00 00 Compressed Length     00000003
0016 0019 0004 03 00 00 00 Uncompressed Length   00000003
001A 001B 0002 08 00       Filename Length       0008
001C 001D 0002 0B 00       Extra Length          000B
001E 0025 0008 66 69 6C 65 Filename              'filename'
               6E 61 6D 65
0026 0027 0002 51 1A       Extra ID #0001        1A51 'Minizip Hash'
0028 0029 0002 07 00         Length              0007
002A 002B 0002 0A 00         Algorithm           000A 'MD5'
002C 002D 0002 02 00         Digest Size         0002
002E 002F 0002 01 02         Digest              01 02
0030 0030 0001 03            Unexpected Data     03
#
# ERROR: Offset 0x30: Extra Field 'Minizip Hash' (ID 0x1A51): 0x1 unexpected trailing bytes
#
0031 0033 0003 61 62 63    PAYLOAD               abc

0034 0037 0004 50 4B 01 02 CENTRAL HEADER #1     02014B50
0038 0038 0001 14          Created Zip Spec      14 '2.0'
0039 0039 0001 03          Created OS            03 'Unix'
003A 003A 0001 14          Extract Zip Spec      14 '2.0'
003B 003B 0001 00          Extract OS            00 'MS-DOS'
003C 003D 0002 00 00       General Purpose Flag  0000
003E 003F 0002 00 00       Compression Method    0000 'Stored'
0040 0043 0004 7D 61 61 56 Last Mod Time         5661617D 'Wed Mar  1 12:11:58 2023'
0044 0047 0004 C2 41 24 35 CRC                   352441C2
0048 004B 0004 03 00 00 00 Compressed Length     00000003
004C 004F 0004 03 00 00 00 Uncompressed Length   00000003
0050 0051 0002 08 00       Filename Length       0008
0052 0053 0002 0B 00       Extra Length          000B
0054 0055 0002 00 00       Comment Length        0000
0056 0057 0002 00 00       Disk Start            0000
0058 0059 0002 00 00       Int File Attributes   0000
                           [Bit 0]               0 'Binary Data'
005A 005D 0004 00 00 A4 81 Ext File Attributes   81A40000
                           [Bits 16-24]          01A4 'Unix attrib: rw-r--r--'
                           [Bits 28-31]          08 'Regular File'
005E 0061 0004 00 00 00 00 Local Header Offset   00000000
0062 0069 0008 66 69 6C 65 Filename              'filename'
               6E 61 6D 65
006A 006B 0002 51 1A       Extra ID #0001        1A51 'Minizip Hash'
006C 006D 0002 07 00         Length              0007
006E 006F 0002 0A 00         Algorithm           000A 'MD5'
0070 0071 0002 02 00         Digest Size         0002
0072 0073 0002 01 02         Digest              01 02
0074 0074 0001 03            Unexpected Data     03
#
# ERROR: Offset 0x74: Extra Field 'Minizip Hash' (ID 0x1A51): 0x1 unexpected trailing bytes
#

0075 0078 0004 50 4B 05 06 END CENTRAL HEADER    06054B50
0079 007A 0002 00 00       Number of this disk   0000
007B 007C 0002 00 00       Central Dir Disk no   0000
007D 007E 0002 01 00       Entries in this disk  0001
007F 0080 0002 01 00       Total Entries         0001
0081 0084 0004 41 00 00 00 Size of Central Dir   00000041
0085 0088 0004 34 00 00 00 Offset to Central Dir 00000034
0089 008A 0002 00 00       Comment Length        0000
#
# Error Count: 2
#
# Done
