#
# INFO: Offset 0x0: found 0x216 (534) bytes before beginning of zipfile
#

0000 0215 0216 ...         UNEXPECTED PADDING

0216 0219 0004 50 4B 03 04 LOCAL HEADER #1       04034B50 (67324752)
021A 021A 0001 14          Extract Zip Spec      14 (20) '2.0'
021B 021B 0001 00          Extract OS            00 (0) 'MS-DOS'
021C 021D 0002 09 08       General Purpose Flag  0809 (2057)
                           [Bit  0]              1 'Encryption'
                           [Bit  3]              1 'Streamed'
                           [Bit 11]              1 'Language Encoding'
021E 021F 0002 00 00       Compression Method    0000 (0) 'Stored'
0220 0223 0004 2F BE 9D 55 Last Mod Date/Time    559DBE2F (1436401199) 'Thu Dec 29 23:49:30 2022'
0224 0227 0004 00 00 00 00 CRC                   00000000 (0)
0228 022B 0004 00 00 00 00 Compressed Length     00000000 (0)
022C 022F 0004 6A 00 00 00 Uncompressed Length   0000006A (106)
0230 0231 0002 08 00       Filename Length       0008 (8)
0232 0233 0002 0C 00       Extra Length          000C (12)
0234 023B 0008 5F 5F 63 64 Filename              '__cdcd__'
               63 64 5F 5F
023C 023D 0002 CD CD       Extra ID #1           CDCD (52685) 'Minizip Central Directory'
023E 023F 0002 08 00         Length              0008 (8)
0240 0247 0008 01 00 00 00   Entries             0000000000000001 (1)
               00 00 00 00
0248 02BD 0076 C4 25 ED 20 PAYLOAD               .%. ..T.c5..;.0..].#I....?..T2....,....s..K_g8......Wc.....^*\..F...&......X....l.'....aI~;.3..~.v..Dg]..uS\i.G..V.V..
               87 88 54 BB
               63 35 E8 CF
               3B 8C 30 85
               07 5D 98 23
               49 19 E7 13
               C0 3F 96 A9
               54 32 1A 94
               85 D6 2C C2
               B1 A4 EC 73
               B8 12 4B 5F
               67 38 E1 A9
               FF 98 D8 0B
               57 63 C3 9F
               03 F3 A7 5E
               2A 5C A9 D2
               46 AE C4 B0
               26 11 93 D6
               8E 1C F6 58
               E5 7F 87 CE
               6C BD 27 0C
               D0 E4 E9 61
               49 7E 3B 18
               33 ED A7 7E
               B8 76 8A 8F
               44 67 5D 0E
               A4 75 53 5C
               69 13 47 03
               C9 56 C0 56
               EE EE

02BE 02C1 0004 50 4B 07 08 DATA DESCRIPTOR       08074B50 (134695760)
02C2 02C5 0004 AE 14 E1 9D CRC                   9DE114AE (2648773806)
02C6 02C9 0004 76 00 00 00 Compressed Length     00000076 (118)
02CA 02CD 0004 6A 00 00 00 Uncompressed Length   0000006A (106)

02CE 02D1 0004 50 4B 01 02 CENTRAL HEADER #1     02014B50 (33639248)
02D2 02D2 0001 3F          Created Zip Spec      3F (63) '6.3'
02D3 02D3 0001 03          Created OS            03 (3) 'Unix'
02D4 02D4 0001 14          Extract Zip Spec      14 (20) '2.0'
02D5 02D5 0001 00          Extract OS            00 (0) 'MS-DOS'
02D6 02D7 0002 09 08       General Purpose Flag  0809 (2057)
                           [Bit  0]              1 'Encryption'
                           [Bit  3]              1 'Streamed'
                           [Bit 11]              1 'Language Encoding'
02D8 02D9 0002 00 00       Compression Method    0000 (0) 'Stored'
02DA 02DD 0004 2F BE 9D 55 Last Mod Date/Time    559DBE2F (1436401199) 'Thu Dec 29 23:49:30 2022'
02DE 02E1 0004 AE 14 E1 9D CRC                   9DE114AE (2648773806)
02E2 02E5 0004 76 00 00 00 Compressed Length     00000076 (118)
02E6 02E9 0004 6A 00 00 00 Uncompressed Length   0000006A (106)
02EA 02EB 0002 08 00       Filename Length       0008 (8)
02EC 02ED 0002 34 00       Extra Length          0034 (52)
02EE 02EF 0002 00 00       Comment Length        0000 (0)
02F0 02F1 0002 00 00       Disk Start            0000 (0)
02F2 02F3 0002 00 00       Int File Attributes   0000 (0)
                           [Bit 0]               0 'Binary Data'
02F4 02F7 0004 00 00 00 00 Ext File Attributes   00000000 (0)
02F8 02FB 0004 16 02 00 00 Local Header Offset   00000216 (534)
02FC 0303 0008 5F 5F 63 64 Filename              '__cdcd__'
               63 64 5F 5F
0304 0305 0002 51 1A       Extra ID #1           1A51 (6737) 'Minizip Hash'
0306 0307 0002 24 00         Length              0024 (36)
0308 0309 0002 17 00         Algorithm           0017 (23) 'SHA256'
030A 030B 0002 20 00         Digest Size         0020 (32)
030C 032B 0020 3F 25 D5 04   Digest              3F 25 D5 04 0E 0C A1 F5 A2 2E 46 9C AA 1E 50 25
               0E 0C A1 F5                       CB 50 3B BC AA 39 5E 8A 68 FC 66 6F 73 07 30 B0
               A2 2E 46 9C
               AA 1E 50 25
               CB 50 3B BC
               AA 39 5E 8A
               68 FC 66 6F
               73 07 30 B0
032C 032D 0002 CD CD       Extra ID #2           CDCD (52685) 'Minizip Central Directory'
032E 032F 0002 08 00         Length              0008 (8)
0330 0337 0008 01 00 00 00   Entries             0000000000000001 (1)
               00 00 00 00

0338 033B 0004 50 4B 05 06 END CENTRAL HEADER    06054B50 (101010256)
033C 033D 0002 00 00       Number of this disk   0000 (0)
033E 033F 0002 00 00       Central Dir Disk no   0000 (0)
0340 0341 0002 02 00       Entries in this disk  0002 (2)
0342 0343 0002 02 00       Total Entries         0002 (2)
0344 0347 0004 6A 00 00 00 Size of Central Dir   0000006A (106)
0348 034B 0004 CE 02 00 00 Offset to Central Dir 000002CE (718)
034C 034D 0002 00 00       Comment Length        0000 (0)
#
# INFO: Zip file uses minizip-ng central directory encryption
#
# Info Count: 2
#
# Done
