
0000 0003 0004 50 4B 03 04 LOCAL HEADER #1       67324752 (0x4034B50)
0004 0004 0001 33          Extract Zip Spec      51 (0x33) '5.1'
0005 0005 0001 00          Extract OS            0 (0x0) 'MS-DOS'
0006 0007 0002 09 28       General Purpose Flag  10249 (0x2809)
                           [Bit  0]              1 'Encryption'
                           [Bit  3]              1 'Streamed'
                           [Bit 11]              1 'Language Encoding'
                           [Bit 13]              1 'Encrypted Central Dir'
0008 0009 0002 63 00       Compression Method    99 (0x63) 'AES Encryption'
000A 000D 0004 00 00 00 00 Last Mod Time         0 (0x0) 'No Date/Time'
000E 0011 0004 00 00 00 00 CRC                   0 (0x0)
0012 0015 0004 00 00 00 00 Compressed Length     0 (0x0)
0016 0019 0004 00 00 00 00 Uncompressed Length   0 (0x0)
001A 001B 0002 03 00       Filename Length       3 (0x3)
001C 001D 0002 0B 00       Extra Length          11 (0xB)
001E 0020 0003 30 5F 30    Filename              '0_0'
0021 0022 0002 01 99       Extra ID #1           39169 (0x9901) 'AES Encryption'
0023 0024 0002 07 00         Length              7 (0x7)
0025 0026 0002 01 00         Vendor Version      1 (0x1) 'AE-1'
0027 0028 0002 41 45         Vendor ID           17729 (0x4541) 'AE'
0029 0029 0001 03            Encryption Strength 3 (0x3) '256-bit encryption key'
002A 002B 0002 00 00         Compression Method  0 (0x0) 'Stored'
002C 003B 0010 C0 B8 C3 47 AES Salt              C0 B8 C3 47 12 0C CE 80 A8 4C 4A F3 0E B0 11 4B
               12 0C CE 80
               A8 4C 4A F3
               0E B0 11 4B
003C 003D 0002 46 7E       AES Pwd Ver           46 7E
003E 0047 000A 03 F5 BD A0 AES Auth              03 F5 BD A0 CF 53 2D 03 C6 5C
               CF 53 2D 03
               C6 5C
0048 0205 01BE ...         PAYLOAD

0206 0209 0004 50 4B 07 08 DATA DESCRIPTOR       134695760 (0x8074B50)
020A 020D 0004 00 00 00 00 CRC                   0 (0x0)
020E 0211 0004 DA 01 00 00 Compressed Length     474 (0x1DA)
0212 0215 0004 00 00 00 00 Uncompressed Length   0 (0x0)

0216 0219 0004 50 4B 03 04 LOCAL HEADER #2       67324752 (0x4034B50)
021A 021A 0001 14          Extract Zip Spec      20 (0x14) '2.0'
021B 021B 0001 00          Extract OS            0 (0x0) 'MS-DOS'
021C 021D 0002 09 08       General Purpose Flag  2057 (0x809)
                           [Bit  0]              1 'Encryption'
                           [Bit  3]              1 'Streamed'
                           [Bit 11]              1 'Language Encoding'
021E 021F 0002 00 00       Compression Method    0 (0x0) 'Stored'
0220 0223 0004 2F BE 9D 55 Last Mod Time         1436401199 (0x559DBE2F) 'Thu Dec 29 23:49:30 2022'
0224 0227 0004 00 00 00 00 CRC                   0 (0x0)
0228 022B 0004 00 00 00 00 Compressed Length     0 (0x0)
022C 022F 0004 6A 00 00 00 Uncompressed Length   106 (0x6A)
0230 0231 0002 08 00       Filename Length       8 (0x8)
0232 0233 0002 0C 00       Extra Length          12 (0xC)
0234 023B 0008 5F 5F 63 64 Filename              '__cdcd__'
               63 64 5F 5F
023C 023D 0002 CD CD       Extra ID #1           52685 (0xCDCD) 'Minizip Central Directory'
023E 023F 0002 08 00         Length              8 (0x8)
0240 0247 0008 01 00 00 00   Entries             1 (0x1)
               00 00 00 00
0248 02BD 0076 C4 25 ED 20 PAYLOAD               .%. ..T.c5..;.0..].#I....?..T2....,....s..K_g8......Wc.....^*\..F...&......X....l.'....aI~;.3..~.v..Dg]..uS\i.G..V.V..
               87 88 54 BB
               63 35 E8 CF
               3B 8C 30 85
               07 5D 98 23
               49 19 E7 13
               C0 3F 96 A9
               54 32 1A 94
               85 D6 2C C2
               B1 A4 EC 73
               B8 12 4B 5F
               67 38 E1 A9
               FF 98 D8 0B
               57 63 C3 9F
               03 F3 A7 5E
               2A 5C A9 D2
               46 AE C4 B0
               26 11 93 D6
               8E 1C F6 58
               E5 7F 87 CE
               6C BD 27 0C
               D0 E4 E9 61
               49 7E 3B 18
               33 ED A7 7E
               B8 76 8A 8F
               44 67 5D 0E
               A4 75 53 5C
               69 13 47 03
               C9 56 C0 56
               EE EE

02BE 02C1 0004 50 4B 07 08 DATA DESCRIPTOR       134695760 (0x8074B50)
02C2 02C5 0004 AE 14 E1 9D CRC                   2648773806 (0x9DE114AE)
02C6 02C9 0004 76 00 00 00 Compressed Length     118 (0x76)
02CA 02CD 0004 6A 00 00 00 Uncompressed Length   106 (0x6A)

02CE 02D1 0004 50 4B 01 02 CENTRAL HEADER #1     33639248 (0x2014B50)
02D2 02D2 0001 3F          Created Zip Spec      63 (0x3F) '6.3'
02D3 02D3 0001 03          Created OS            3 (0x3) 'Unix'
02D4 02D4 0001 14          Extract Zip Spec      20 (0x14) '2.0'
02D5 02D5 0001 00          Extract OS            0 (0x0) 'MS-DOS'
02D6 02D7 0002 09 08       General Purpose Flag  2057 (0x809)
                           [Bit  0]              1 'Encryption'
                           [Bit  3]              1 'Streamed'
                           [Bit 11]              1 'Language Encoding'
02D8 02D9 0002 00 00       Compression Method    0 (0x0) 'Stored'
02DA 02DD 0004 2F BE 9D 55 Last Mod Time         1436401199 (0x559DBE2F) 'Thu Dec 29 23:49:30 2022'
02DE 02E1 0004 AE 14 E1 9D CRC                   2648773806 (0x9DE114AE)
02E2 02E5 0004 76 00 00 00 Compressed Length     118 (0x76)
02E6 02E9 0004 6A 00 00 00 Uncompressed Length   106 (0x6A)
02EA 02EB 0002 08 00       Filename Length       8 (0x8)
02EC 02ED 0002 34 00       Extra Length          52 (0x34)
02EE 02EF 0002 00 00       Comment Length        0 (0x0)
02F0 02F1 0002 00 00       Disk Start            0 (0x0)
02F2 02F3 0002 00 00       Int File Attributes   0 (0x0)
                           [Bit 0]               0 'Binary Data'
02F4 02F7 0004 00 00 00 00 Ext File Attributes   0 (0x0)
02F8 02FB 0004 16 02 00 00 Local Header Offset   534 (0x216)
02FC 0303 0008 5F 5F 63 64 Filename              '__cdcd__'
               63 64 5F 5F
0304 0305 0002 51 1A       Extra ID #1           6737 (0x1A51) 'Minizip Hash'
0306 0307 0002 24 00         Length              36 (0x24)
0308 0309 0002 17 00         Algorithm           23 (0x17) 'SHA256'
030A 030B 0002 20 00         Digest Size         32 (0x20)
030C 032B 0020 3F 25 D5 04   Digest              3F 25 D5 04 0E 0C A1 F5 A2 2E 46 9C AA 1E 50 25
               0E 0C A1 F5                       CB 50 3B BC AA 39 5E 8A 68 FC 66 6F 73 07 30 B0
               A2 2E 46 9C
               AA 1E 50 25
               CB 50 3B BC
               AA 39 5E 8A
               68 FC 66 6F
               73 07 30 B0
032C 032D 0002 CD CD       Extra ID #2           52685 (0xCDCD) 'Minizip Central Directory'
032E 032F 0002 08 00         Length              8 (0x8)
0330 0337 0008 01 00 00 00   Entries             1 (0x1)
               00 00 00 00

0338 033B 0004 50 4B 05 06 END CENTRAL HEADER    101010256 (0x6054B50)
033C 033D 0002 00 00       Number of this disk   0 (0x0)
033E 033F 0002 00 00       Central Dir Disk no   0 (0x0)
0340 0341 0002 02 00       Entries in this disk  2 (0x2)
0342 0343 0002 02 00       Total Entries         2 (0x2)
0344 0347 0004 6A 00 00 00 Size of Central Dir   106 (0x6A)
0348 034B 0004 CE 02 00 00 Offset to Central Dir 718 (0x2CE)
034C 034D 0002 00 00       Comment Length        0 (0x0)
#
# ERROR: Orphan Local Headers found: 1
#  Offset  Filename
#     0x0  '0_0'
#
# Error Count: 1
#
# Done
