
0000 0003 0004 50 4B 03 04 LOCAL HEADER #1       04034B50 (67324752)
0004 0004 0001 14          Extract Zip Spec      14 (20) '2.0'
0005 0005 0001 00          Extract OS            00 (0) 'MS-DOS'
0006 0007 0002 08 00       General Purpose Flag  0008 (8)
                           [Bits 1-2]            0 'Normal Compression'
                           [Bit  3]              1 'Streamed'
0008 0009 0002 08 00       Compression Method    0008 (8) 'Deflated'
000A 000D 0004 7C 5B 9B 57 Modification Time     579B5B7C (1469799292) 'Wed Dec 27 11:27:56 2023'
000E 0011 0004 00 00 00 00 CRC                   00000000 (0)
0012 0015 0004 00 00 00 00 Compressed Size       00000000 (0)
0016 0019 0004 00 00 00 00 Uncompressed Size     00000000 (0)
001A 001B 0002 04 00       Filename Length       0004 (4)
001C 001D 0002 00 00       Extra Length          0000 (0)
001E 0021 0004 61 62 63 2F Filename              'abc/'
0022 0027 0006 4B 4C 4A 4E PAYLOAD               KLJN..
               01 00

0028 002B 0004 50 4B 07 08 DATA DESCRIPTOR       08074B50 (134695760)
002C 002F 0004 11 CD 82 ED CRC                   ED82CD11 (3984772369)
0030 0033 0004 06 00 00 00 Compressed Size       00000006 (6)
0034 0037 0004 04 00 00 00 Uncompressed Size     00000004 (4)
#
# WARNING: Directory 'abc/' must not have a payload
#

0038 003B 0004 50 4B 01 02 CENTRAL HEADER #1     02014B50 (33639248)
003C 003C 0001 14          Created Zip Spec      14 (20) '2.0'
003D 003D 0001 03          Created OS            03 (3) 'Unix'
003E 003E 0001 14          Extract Zip Spec      14 (20) '2.0'
003F 003F 0001 00          Extract OS            00 (0) 'MS-DOS'
0040 0041 0002 08 00       General Purpose Flag  0008 (8)
                           [Bits 1-2]            0 'Normal Compression'
                           [Bit  3]              1 'Streamed'
0042 0043 0002 08 00       Compression Method    0008 (8) 'Deflated'
0044 0047 0004 7C 5B 9B 57 Modification Time     579B5B7C (1469799292) 'Wed Dec 27 11:27:56 2023'
0048 004B 0004 11 CD 82 ED CRC                   ED82CD11 (3984772369)
004C 004F 0004 06 00 00 00 Compressed Size       00000006 (6)
0050 0053 0004 04 00 00 00 Uncompressed Size     00000004 (4)
0054 0055 0002 04 00       Filename Length       0004 (4)
0056 0057 0002 00 00       Extra Length          0000 (0)
0058 0059 0002 00 00       Comment Length        0000 (0)
005A 005B 0002 00 00       Disk Start            0000 (0)
005C 005D 0002 00 00       Int File Attributes   0000 (0)
                           [Bit 0]               0 'Binary Data'
005E 0061 0004 00 00 A4 81 Ext File Attributes   81A40000 (2175008768)
                           [Bits 16-24]          01A4 (420) 'Unix attrib: rw-r--r--'
                           [Bits 28-31]          08 (8) 'Regular File'
0062 0065 0004 00 00 00 00 Local Header Offset   00000000 (0)
0066 0069 0004 61 62 63 2F Filename              'abc/'
#
# INFO: Offset 0x5E: DOS Directory flag not set in 'External Attributes' for Directory 'abc/'
#
# INFO: Offset 0x5E: Unix Directory flag not set in 'External Attributes' for Directory 'abc/'
#
# ERROR: Offset 0x50: Directory 'abc/' must not have a payload
#

006A 006D 0004 50 4B 05 06 END CENTRAL HEADER    06054B50 (101010256)
006E 006F 0002 00 00       Number of this disk   0000 (0)
0070 0071 0002 00 00       Central Dir Disk no   0000 (0)
0072 0073 0002 01 00       Entries in this disk  0001 (1)
0074 0075 0002 01 00       Total Entries         0001 (1)
0076 0079 0004 32 00 00 00 Size of Central Dir   00000032 (50)
007A 007D 0004 38 00 00 00 Offset to Central Dir 00000038 (56)
007E 007F 0002 00 00       Comment Length        0000 (0)
#
# Error Count: 1
# Warning Count: 1
# Info Count: 2
#
# Done
