
0000 0004 50 4B 03 04 LOCAL HEADER #1       04034B50
0004 0001 33          Extract Zip Spec      33 '5.1'
0005 0001 00          Extract OS            00 'MS-DOS'
0006 0002 41 28       General Purpose Flag  2841
                      [Bit  0]              1 'Encryption'
                      [Bits 1-2]            0 'Normal Compression'
                      [Bit  6]              1 'Strong Encryption'
                      [Bit 11]              1 'Language Encoding'
                      [Bit 13]              1 'Encrypted Central Dir'
0008 0002 08 00       Compression Method    0008 'Deflated'
000A 0004 00 00 00 00 Last Mod Time         00000000 'No Date/Time'
000E 0004 00 00 00 00 CRC                   00000000
0012 0004 46 02 00 00 Compressed Length     00000246
0016 0004 00 00 00 00 Uncompressed Length   00000000
001A 0002 01 00       Filename Length       0001
001C 0002 00 00       Extra Length          0000
001E 0001 31          Filename              '1'

001F 0000             DECRYPTION HEADER
                      RECORD
001F 0002 10 00       IVSize                0010
0021 0010 B3 1F F1 3D IVData                B3 1F F1 3D 71 DD E1 08 BA FD 7D EB
          71 DD E1 08                       0A 26 08 6D
          BA FD 7D EB
          0A 26 08 6D
0031 0004 20 01 00 00 Size                  00000120
0035 0002 03 00       Format                0003
0037 0002 0F 66       AlgId                 660F 'AES 192'
0039 0002 C0 00       BitLen                00C0
003B 0002 01 00       Flags                 0001 'Password required to decrypt'
003D 0002 90 00       ErdSize               0090
003F 0090 E5 8C 84 08 ErdData               E5 8C 84 08 61 98 6F 61 B9 EA 74 A5
          61 98 6F 61                       3E 88 1B 79 91 06 57 64 E3 0A 22 ED
          B9 EA 74 A5                       E6 EC 4F D1 32 48 BD 49 F9 A6 12 79
          3E 88 1B 79                       4B E3 6B F4 D1 69 9E A7 45 C8 18 D8
          91 06 57 64                       F7 1F 33 1B 28 7A 98 F3 F0 D5 8B AE
          E3 0A 22 ED                       51 60 C6 C5 14 9F 55 FF 45 24 CD 88
          E6 EC 4F D1                       15 5F 9E 84 7D CA D2 32 A3 E7 CC 36
          32 48 BD 49                       D3 AD B5 F2 1D D7 51 04 EF 9F 42 E1
          F9 A6 12 79                       7F 3C CE 2A FD 06 2A 35 BE 18 2E 4D
          4B E3 6B F4                       F7 41 8E B7 F3 13 29 A9 42 62 33 F5
          D1 69 9E A7                       C4 16 DA 23 58 B8 56 1A D3 5C 08 5D
          45 C8 18 D8                       4A 37 21 52 38 64 54 65 0A 51 29 DB
          F7 1F 33 1B
          28 7A 98 F3
          F0 D5 8B AE
          51 60 C6 C5
          14 9F 55 FF
          45 24 CD 88
          15 5F 9E 84
          7D CA D2 32
          A3 E7 CC 36
          D3 AD B5 F2
          1D D7 51 04
          EF 9F 42 E1
          7F 3C CE 2A
          FD 06 2A 35
          BE 18 2E 4D
          F7 41 8E B7
          F3 13 29 A9
          42 62 33 F5
          C4 16 DA 23
          58 B8 56 1A
          D3 5C 08 5D
          4A 37 21 52
          38 64 54 65
          0A 51 29 DB
00CF 0004 00 00 00 00 RCount                00000000
00D3 0002 80 00       VSize                 0080
00D5 007C FC C2 EF 1A VData                 FC C2 EF 1A 48 69 5D C2 BB A4 D8 2C
          48 69 5D C2                       30 52 32 DD 72 AE 62 72 EB 93 8B A1
          BB A4 D8 2C                       70 BA D3 89 BE CC 38 59 EF 0E 6D 27
          30 52 32 DD                       CA A3 87 F7 62 8B 08 7D 27 5F 15 48
          72 AE 62 72                       BF 2B FC 46 95 CD 33 F0 E4 B5 A8 24
          EB 93 8B A1                       BA C1 5F 02 A5 63 ED E4 34 EF 18 8D
          70 BA D3 89                       D5 4D 05 8A 94 34 A1 A3 90 C8 43 AD
          BE CC 38 59                       7F 9C C5 39 7A EA 9B 9D 23 4B AA 19
          EF 0E 6D 27                       41 A5 DF 6C CB B6 59 86 2A 00 FA C8
          CA A3 87 F7                       9A 16 20 69 3C 54 02 35 F8 8A D1 8B
          62 8B 08 7D                       E6 3B A9 6F
          27 5F 15 48
          BF 2B FC 46
          95 CD 33 F0
          E4 B5 A8 24
          BA C1 5F 02
          A5 63 ED E4
          34 EF 18 8D
          D5 4D 05 8A
          94 34 A1 A3
          90 C8 43 AD
          7F 9C C5 39
          7A EA 9B 9D
          23 4B AA 19
          41 A5 DF 6C
          CB B6 59 86
          2A 00 FA C8
          9A 16 20 69
          3C 54 02 35
          F8 8A D1 8B
          E6 3B A9 6F
0151 0004 D9 1B 45 86 VCRC32                86451BD9
0155 0110 ...         PAYLOAD

0265 0004 50 4B 03 04 LOCAL HEADER #2       04034B50
0269 0001 33          Extract Zip Spec      33 '5.1'
026A 0001 00          Extract OS            00 'MS-DOS'
026B 0002 41 28       General Purpose Flag  2841
                      [Bit  0]              1 'Encryption'
                      [Bits 1-2]            0 'Normal Compression'
                      [Bit  6]              1 'Strong Encryption'
                      [Bit 11]              1 'Language Encoding'
                      [Bit 13]              1 'Encrypted Central Dir'
026D 0002 08 00       Compression Method    0008 'Deflated'
026F 0004 00 00 00 00 Last Mod Time         00000000 'No Date/Time'
0273 0004 00 00 00 00 CRC                   00000000
0277 0004 56 02 00 00 Compressed Length     00000256
027B 0004 00 00 00 00 Uncompressed Length   00000000
027F 0002 01 00       Filename Length       0001
0281 0002 00 00       Extra Length          0000
0283 0001 32          Filename              '2'

0284 0000             DECRYPTION HEADER
                      RECORD
0284 0002 10 00       IVSize                0010
0286 0010 54 E0 3D 36 IVData                54 E0 3D 36 8D B6 28 82 30 52 12 7B
          8D B6 28 82                       92 88 6A 06
          30 52 12 7B
          92 88 6A 06
0296 0004 20 01 00 00 Size                  00000120
029A 0002 03 00       Format                0003
029C 0002 0F 66       AlgId                 660F 'AES 192'
029E 0002 C0 00       BitLen                00C0
02A0 0002 01 00       Flags                 0001 'Password required to decrypt'
02A2 0002 90 00       ErdSize               0090
02A4 0090 E5 8C 84 08 ErdData               E5 8C 84 08 61 98 6F 61 B9 EA 74 A5
          61 98 6F 61                       3E 88 1B 79 91 06 57 64 E3 0A 22 ED
          B9 EA 74 A5                       E6 EC 4F D1 32 48 BD 49 F9 A6 12 79
          3E 88 1B 79                       4B E3 6B F4 D1 69 9E A7 45 C8 18 D8
          91 06 57 64                       F7 1F 33 1B 28 7A 98 F3 F0 D5 8B AE
          E3 0A 22 ED                       51 60 C6 C5 14 9F 55 FF 45 24 CD 88
          E6 EC 4F D1                       15 5F 9E 84 7D CA D2 32 A3 E7 CC 36
          32 48 BD 49                       D3 AD B5 F2 1D D7 51 04 EF 9F 42 E1
          F9 A6 12 79                       7F 3C CE 2A FD 06 2A 35 BE 18 2E 4D
          4B E3 6B F4                       F7 41 8E B7 F3 13 29 A9 42 62 33 F5
          D1 69 9E A7                       C4 16 DA 23 58 B8 56 1A D3 5C 08 5D
          45 C8 18 D8                       4A 37 21 52 38 64 54 65 0A 51 29 DB
          F7 1F 33 1B
          28 7A 98 F3
          F0 D5 8B AE
          51 60 C6 C5
          14 9F 55 FF
          45 24 CD 88
          15 5F 9E 84
          7D CA D2 32
          A3 E7 CC 36
          D3 AD B5 F2
          1D D7 51 04
          EF 9F 42 E1
          7F 3C CE 2A
          FD 06 2A 35
          BE 18 2E 4D
          F7 41 8E B7
          F3 13 29 A9
          42 62 33 F5
          C4 16 DA 23
          58 B8 56 1A
          D3 5C 08 5D
          4A 37 21 52
          38 64 54 65
          0A 51 29 DB
0334 0004 00 00 00 00 RCount                00000000
0338 0002 80 00       VSize                 0080
033A 007C 73 BF F5 39 VData                 73 BF F5 39 36 94 19 1A CF 76 72 99
          36 94 19 1A                       AA F0 DA 52 57 F4 46 60 B2 01 C7 86
          CF 76 72 99                       AE A2 44 D0 FA 5C 3F 05 E5 75 29 C2
          AA F0 DA 52                       30 17 98 7F 73 10 5B 85 EA C4 B5 E9
          57 F4 46 60                       41 90 50 FB 5B E5 22 CC 6E 3E 22 00
          B2 01 C7 86                       ED 8F 4E 69 17 23 B1 84 4B 04 DC 31
          AE A2 44 D0                       56 51 69 A8 A3 6C 72 CE 89 E9 91 8B
          FA 5C 3F 05                       C0 C0 FE 89 EC 39 85 36 6F 3B 71 28
          E5 75 29 C2                       AF FD 13 65 E1 1F C8 95 18 C2 40 B5
          30 17 98 7F                       2F 30 29 38 CF 78 72 75 01 86 DB 91
          73 10 5B 85                       EC 39 76 FF
          EA C4 B5 E9
          41 90 50 FB
          5B E5 22 CC
          6E 3E 22 00
          ED 8F 4E 69
          17 23 B1 84
          4B 04 DC 31
          56 51 69 A8
          A3 6C 72 CE
          89 E9 91 8B
          C0 C0 FE 89
          EC 39 85 36
          6F 3B 71 28
          AF FD 13 65
          E1 1F C8 95
          18 C2 40 B5
          2F 30 29 38
          CF 78 72 75
          01 86 DB 91
          EC 39 76 FF
03B6 0004 65 27 E3 81 VCRC32                81E32765
03BA 0120 ...         PAYLOAD

04DA 0000             CENTRAL HEADER
                      DECRYPTION RECORD
04DA 0002 10 00       IVSize                0010
04DC 0010 70 B3 F3 AD IVData                70 B3 F3 AD C9 94 C2 52 B6 8E 86 2B
          C9 94 C2 52                       7E 59 FE D4
          B6 8E 86 2B
          7E 59 FE D4
04EC 0004 20 01 00 00 Size                  00000120
04F0 0002 03 00       Format                0003
04F2 0002 0F 66       AlgId                 660F 'AES 192'
04F4 0002 C0 00       BitLen                00C0
04F6 0002 01 00       Flags                 0001 'Password required to decrypt'
04F8 0002 90 00       ErdSize               0090
04FA 0090 E5 8C 84 08 ErdData               E5 8C 84 08 61 98 6F 61 B9 EA 74 A5
          61 98 6F 61                       3E 88 1B 79 91 06 57 64 E3 0A 22 ED
          B9 EA 74 A5                       E6 EC 4F D1 32 48 BD 49 F9 A6 12 79
          3E 88 1B 79                       4B E3 6B F4 D1 69 9E A7 45 C8 18 D8
          91 06 57 64                       F7 1F 33 1B 28 7A 98 F3 F0 D5 8B AE
          E3 0A 22 ED                       51 60 C6 C5 14 9F 55 FF 45 24 CD 88
          E6 EC 4F D1                       15 5F 9E 84 7D CA D2 32 A3 E7 CC 36
          32 48 BD 49                       D3 AD B5 F2 1D D7 51 04 EF 9F 42 E1
          F9 A6 12 79                       7F 3C CE 2A FD 06 2A 35 BE 18 2E 4D
          4B E3 6B F4                       F7 41 8E B7 F3 13 29 A9 42 62 33 F5
          D1 69 9E A7                       C4 16 DA 23 58 B8 56 1A D3 5C 08 5D
          45 C8 18 D8                       4A 37 21 52 38 64 54 65 0A 51 29 DB
          F7 1F 33 1B
          28 7A 98 F3
          F0 D5 8B AE
          51 60 C6 C5
          14 9F 55 FF
          45 24 CD 88
          15 5F 9E 84
          7D CA D2 32
          A3 E7 CC 36
          D3 AD B5 F2
          1D D7 51 04
          EF 9F 42 E1
          7F 3C CE 2A
          FD 06 2A 35
          BE 18 2E 4D
          F7 41 8E B7
          F3 13 29 A9
          42 62 33 F5
          C4 16 DA 23
          58 B8 56 1A
          D3 5C 08 5D
          4A 37 21 52
          38 64 54 65
          0A 51 29 DB
058A 0004 00 00 00 00 RCount                00000000
058E 0002 80 00       VSize                 0080
0590 007C 3D D4 AB A5 VData                 3D D4 AB A5 6A 4E 5B E7 F2 61 09 6B
          6A 4E 5B E7                       82 89 2A F4 94 1F 68 DC 36 D8 49 E4
          F2 61 09 6B                       9F AC 2D 82 21 21 33 71 C3 57 46 60
          82 89 2A F4                       60 34 2C E9 8C 1E B8 56 88 86 68 4D
          94 1F 68 DC                       5A 97 6D FA F8 EC 42 6A 15 13 A8 85
          36 D8 49 E4                       9B 8A 3E D7 AB 40 8C 61 3E 9D 00 1C
          9F AC 2D 82                       83 06 C9 D1 9B 99 0B A7 64 38 8E 09
          21 21 33 71                       C9 00 A9 11 17 8C CB 0A D1 CC 34 86
          C3 57 46 60                       04 69 C5 AE 45 6E 2B 70 FB 2C 8A 58
          60 34 2C E9                       F9 7B 98 3F 51 79 50 C5 2C D2 93 F8
          8C 1E B8 56                       EA 8D 1C C9
          88 86 68 4D
          5A 97 6D FA
          F8 EC 42 6A
          15 13 A8 85
          9B 8A 3E D7
          AB 40 8C 61
          3E 9D 00 1C
          83 06 C9 D1
          9B 99 0B A7
          64 38 8E 09
          C9 00 A9 11
          17 8C CB 0A
          D1 CC 34 86
          04 69 C5 AE
          45 6E 2B 70
          FB 2C 8A 58
          F9 7B 98 3F
          51 79 50 C5
          2C D2 93 F8
          EA 8D 1C C9
060C 0004 30 96 EB 20 VCRC32                20EB9630

0610 0090 54 82 0C F1 ENCRYPTED CENTRAL     T...c.*....Yu.E..2...n.2B2..hKVn.....
          63 9F 2A C1 DIRECTORY             ......l2u.@...0...".-....O6...*.7rs/N
          09 88 EE 59                       ..GN..O..4`....)......'@`....
          75 AA 45 E7                       .w?..).....F...W.C....wd.....,.K.P<d.
          B1 32 09 9C                       6N.
          F0 6E D1 32
          42 32 A9 9B
          68 4B 56 6E
          99 8D AB ED
          0D 82 AE DC
          8F 0C D3 6C
          32 75 B5 40
          CB F1 A1 30
          1C A2 B5 22
          A5 2D 01 1A
          B7 09 4F 36
          18 E6 DB 2A
          C1 37 72 73
          2F 4E 94 16
          47 4E FA BF
          4F 10 FC 34
          60 D4 04 B3
          01 29 9D 0E
          A3 C0 C3 F9
          27 40 60 B1
          91 9A 0F 20
          01 77 3F B6
          AA 29 94 17
          C9 F6 86 46
          CB 15 F8 57
          99 43 CC F7
          D3 2E 77 64
          D1 F3 A2 A1
          03 2C B6 4B
          B4 50 3C 64
          15 36 4E F0

06A0 0004 50 4B 06 06 ZIP64 END CENTRAL DIR 06064B50
                      RECORD
06A4 0008 4C 00 00 00 Size of record        000000000000004C
          00 00 00 00
06AC 0001 41          Created Zip Spec      41 '6.5'
06AD 0001 00          Created OS            00 'MS-DOS'
06AE 0001 3E          Extract Zip Spec      3E '6.2'
06AF 0001 00          Extract OS            00 'MS-DOS'
06B0 0004 00 00 00 00 Number of this disk   00000000
06B4 0004 00 00 00 00 Central Dir Disk no   00000000
06B8 0008 00 00 00 00 Entries in this disk  0000000000000000
          00 00 00 00
06C0 0008 02 00 00 00 Total Entries         0000000000000002
          00 00 00 00
06C8 0008 C6 01 00 00 Size of Central Dir   00000000000001C6
          00 00 00 00
06D0 0008 DA 04 00 00 Offset to Central dir 00000000000004DA
          00 00 00 00
06D8 0002 08 00       Compression Method    0008 'Deflated'
06DA 0008 C6 01 00 00 Compressed Length     00000000000001C6
          00 00 00 00
06E2 0008 D7 00 00 00 Uncompressed Length   00000000000000D7
          00 00 00 00
06EA 0002 0F 66       AlgId                 660F 'AES 192'
06EC 0002 C0 00       BitLen                00C0
06EE 0002 01 00       Flags                 0001 'Password required to decrypt'
06F0 0002 01 00       HashID                0001 'CRC32'
06F2 0002 04 00       Hash Length           0004
06F4 0004 69 22 7C 0B Hash Data             69 22 7C 0B

06F8 0004 50 4B 06 07 ZIP64 END CENTRAL DIR 07064B50
                      LOCATOR
06FC 0004 00 00 00 00 Central Dir Disk no   00000000
0700 0008 A0 06 00 00 Offset to Zip64 EOCD  00000000000006A0
          00 00 00 00
0708 0004 01 00 00 00 Total no of Disks     00000001

070C 0004 50 4B 05 06 END CENTRAL HEADER    06054B50
0710 0002 00 00       Number of this disk   0000
0712 0002 00 00       Central Dir Disk no   0000
0714 0002 00 00       Entries in this disk  0000
0716 0002 FF FF       Total Entries         FFFF
0718 0004 C6 01 00 00 Size of Central Dir   000001C6
071C 0004 DA 04 00 00 Offset to Central Dir 000004DA
0720 0002 00 00       Comment Length        0000
#
# WARNING: Local Directory exists, but Central Directory is encrypted
#

Warning Count: 1
Done
