
0000 0003 0004 50 4B 03 04 LOCAL HEADER #1       67324752 (0x4034B50)
0004 0004 0001 33          Extract Zip Spec      51 (0x33) '5.1'
0005 0005 0001 00          Extract OS            0 (0x0) 'MS-DOS'
0006 0007 0002 41 28       General Purpose Flag  10305 (0x2841)
                           [Bit  0]              1 'Encryption'
                           [Bits 1-2]            0 'Normal Compression'
                           [Bit  6]              1 'Strong Encryption'
                           [Bit 11]              1 'Language Encoding'
                           [Bit 13]              1 'Encrypted Central Dir'
0008 0009 0002 08 00       Compression Method    8 (0x8) 'Deflated'
000A 000D 0004 00 00 00 00 Last Mod Time         0 (0x0) 'No Date/Time'
000E 0011 0004 00 00 00 00 CRC                   0 (0x0)
0012 0015 0004 46 02 00 00 Compressed Length     582 (0x246)
0016 0019 0004 00 00 00 00 Uncompressed Length   0 (0x0)
001A 001B 0002 01 00       Filename Length       1 (0x1)
001C 001D 0002 00 00       Extra Length          0 (0x0)
001E 001E 0001 31          Filename              '1'

001F 001E 0000             DECRYPTION HEADER
                           RECORD
001F 0020 0002 10 00       IVSize                16 (0x10)
0021 0030 0010 B3 1F F1 3D IVData                B3 1F F1 3D 71 DD E1 08 BA FD 7D EB 0A 26 08 6D
               71 DD E1 08
               BA FD 7D EB
               0A 26 08 6D
0031 0034 0004 20 01 00 00 Size                  288 (0x120)
0035 0036 0002 03 00       Format                3 (0x3)
0037 0038 0002 0F 66       AlgId                 26127 (0x660F) 'AES 192'
0039 003A 0002 C0 00       BitLen                192 (0xC0)
003B 003C 0002 01 00       Flags                 1 (0x1) 'Password required to decrypt'
003D 003E 0002 90 00       ErdSize               144 (0x90)
003F 00CE 0090 E5 8C 84 08 ErdData               E5 8C 84 08 61 98 6F 61 B9 EA 74 A5 3E 88 1B 79
               61 98 6F 61                       91 06 57 64 E3 0A 22 ED E6 EC 4F D1 32 48 BD 49
               B9 EA 74 A5                       F9 A6 12 79 4B E3 6B F4 D1 69 9E A7 45 C8 18 D8
               3E 88 1B 79                       F7 1F 33 1B 28 7A 98 F3 F0 D5 8B AE 51 60 C6 C5
               91 06 57 64                       14 9F 55 FF 45 24 CD 88 15 5F 9E 84 7D CA D2 32
               E3 0A 22 ED                       A3 E7 CC 36 D3 AD B5 F2 1D D7 51 04 EF 9F 42 E1
               E6 EC 4F D1                       7F 3C CE 2A FD 06 2A 35 BE 18 2E 4D F7 41 8E B7
               32 48 BD 49                       F3 13 29 A9 42 62 33 F5 C4 16 DA 23 58 B8 56 1A
               F9 A6 12 79                       D3 5C 08 5D 4A 37 21 52 38 64 54 65 0A 51 29 DB
               4B E3 6B F4
               D1 69 9E A7
               45 C8 18 D8
               F7 1F 33 1B
               28 7A 98 F3
               F0 D5 8B AE
               51 60 C6 C5
               14 9F 55 FF
               45 24 CD 88
               15 5F 9E 84
               7D CA D2 32
               A3 E7 CC 36
               D3 AD B5 F2
               1D D7 51 04
               EF 9F 42 E1
               7F 3C CE 2A
               FD 06 2A 35
               BE 18 2E 4D
               F7 41 8E B7
               F3 13 29 A9
               42 62 33 F5
               C4 16 DA 23
               58 B8 56 1A
               D3 5C 08 5D
               4A 37 21 52
               38 64 54 65
               0A 51 29 DB
00CF 00D2 0004 00 00 00 00 RCount                0 (0x0)
00D3 00D4 0002 80 00       VSize                 128 (0x80)
00D5 0150 007C FC C2 EF 1A VData                 FC C2 EF 1A 48 69 5D C2 BB A4 D8 2C 30 52 32 DD
               48 69 5D C2                       72 AE 62 72 EB 93 8B A1 70 BA D3 89 BE CC 38 59
               BB A4 D8 2C                       EF 0E 6D 27 CA A3 87 F7 62 8B 08 7D 27 5F 15 48
               30 52 32 DD                       BF 2B FC 46 95 CD 33 F0 E4 B5 A8 24 BA C1 5F 02
               72 AE 62 72                       A5 63 ED E4 34 EF 18 8D D5 4D 05 8A 94 34 A1 A3
               EB 93 8B A1                       90 C8 43 AD 7F 9C C5 39 7A EA 9B 9D 23 4B AA 19
               70 BA D3 89                       41 A5 DF 6C CB B6 59 86 2A 00 FA C8 9A 16 20 69
               BE CC 38 59                       3C 54 02 35 F8 8A D1 8B E6 3B A9 6F
               EF 0E 6D 27
               CA A3 87 F7
               62 8B 08 7D
               27 5F 15 48
               BF 2B FC 46
               95 CD 33 F0
               E4 B5 A8 24
               BA C1 5F 02
               A5 63 ED E4
               34 EF 18 8D
               D5 4D 05 8A
               94 34 A1 A3
               90 C8 43 AD
               7F 9C C5 39
               7A EA 9B 9D
               23 4B AA 19
               41 A5 DF 6C
               CB B6 59 86
               2A 00 FA C8
               9A 16 20 69
               3C 54 02 35
               F8 8A D1 8B
               E6 3B A9 6F
0151 0154 0004 D9 1B 45 86 VCRC32                2252676057 (0x86451BD9)
0155 0264 0110 ...         PAYLOAD

0265 0268 0004 50 4B 03 04 LOCAL HEADER #2       67324752 (0x4034B50)
0269 0269 0001 33          Extract Zip Spec      51 (0x33) '5.1'
026A 026A 0001 00          Extract OS            0 (0x0) 'MS-DOS'
026B 026C 0002 41 28       General Purpose Flag  10305 (0x2841)
                           [Bit  0]              1 'Encryption'
                           [Bits 1-2]            0 'Normal Compression'
                           [Bit  6]              1 'Strong Encryption'
                           [Bit 11]              1 'Language Encoding'
                           [Bit 13]              1 'Encrypted Central Dir'
026D 026E 0002 08 00       Compression Method    8 (0x8) 'Deflated'
026F 0272 0004 00 00 00 00 Last Mod Time         0 (0x0) 'No Date/Time'
0273 0276 0004 00 00 00 00 CRC                   0 (0x0)
0277 027A 0004 56 02 00 00 Compressed Length     598 (0x256)
027B 027E 0004 00 00 00 00 Uncompressed Length   0 (0x0)
027F 0280 0002 01 00       Filename Length       1 (0x1)
0281 0282 0002 00 00       Extra Length          0 (0x0)
0283 0283 0001 32          Filename              '2'

0284 0283 0000             DECRYPTION HEADER
                           RECORD
0284 0285 0002 10 00       IVSize                16 (0x10)
0286 0295 0010 54 E0 3D 36 IVData                54 E0 3D 36 8D B6 28 82 30 52 12 7B 92 88 6A 06
               8D B6 28 82
               30 52 12 7B
               92 88 6A 06
0296 0299 0004 20 01 00 00 Size                  288 (0x120)
029A 029B 0002 03 00       Format                3 (0x3)
029C 029D 0002 0F 66       AlgId                 26127 (0x660F) 'AES 192'
029E 029F 0002 C0 00       BitLen                192 (0xC0)
02A0 02A1 0002 01 00       Flags                 1 (0x1) 'Password required to decrypt'
02A2 02A3 0002 90 00       ErdSize               144 (0x90)
02A4 0333 0090 E5 8C 84 08 ErdData               E5 8C 84 08 61 98 6F 61 B9 EA 74 A5 3E 88 1B 79
               61 98 6F 61                       91 06 57 64 E3 0A 22 ED E6 EC 4F D1 32 48 BD 49
               B9 EA 74 A5                       F9 A6 12 79 4B E3 6B F4 D1 69 9E A7 45 C8 18 D8
               3E 88 1B 79                       F7 1F 33 1B 28 7A 98 F3 F0 D5 8B AE 51 60 C6 C5
               91 06 57 64                       14 9F 55 FF 45 24 CD 88 15 5F 9E 84 7D CA D2 32
               E3 0A 22 ED                       A3 E7 CC 36 D3 AD B5 F2 1D D7 51 04 EF 9F 42 E1
               E6 EC 4F D1                       7F 3C CE 2A FD 06 2A 35 BE 18 2E 4D F7 41 8E B7
               32 48 BD 49                       F3 13 29 A9 42 62 33 F5 C4 16 DA 23 58 B8 56 1A
               F9 A6 12 79                       D3 5C 08 5D 4A 37 21 52 38 64 54 65 0A 51 29 DB
               4B E3 6B F4
               D1 69 9E A7
               45 C8 18 D8
               F7 1F 33 1B
               28 7A 98 F3
               F0 D5 8B AE
               51 60 C6 C5
               14 9F 55 FF
               45 24 CD 88
               15 5F 9E 84
               7D CA D2 32
               A3 E7 CC 36
               D3 AD B5 F2
               1D D7 51 04
               EF 9F 42 E1
               7F 3C CE 2A
               FD 06 2A 35
               BE 18 2E 4D
               F7 41 8E B7
               F3 13 29 A9
               42 62 33 F5
               C4 16 DA 23
               58 B8 56 1A
               D3 5C 08 5D
               4A 37 21 52
               38 64 54 65
               0A 51 29 DB
0334 0337 0004 00 00 00 00 RCount                0 (0x0)
0338 0339 0002 80 00       VSize                 128 (0x80)
033A 03B5 007C 73 BF F5 39 VData                 73 BF F5 39 36 94 19 1A CF 76 72 99 AA F0 DA 52
               36 94 19 1A                       57 F4 46 60 B2 01 C7 86 AE A2 44 D0 FA 5C 3F 05
               CF 76 72 99                       E5 75 29 C2 30 17 98 7F 73 10 5B 85 EA C4 B5 E9
               AA F0 DA 52                       41 90 50 FB 5B E5 22 CC 6E 3E 22 00 ED 8F 4E 69
               57 F4 46 60                       17 23 B1 84 4B 04 DC 31 56 51 69 A8 A3 6C 72 CE
               B2 01 C7 86                       89 E9 91 8B C0 C0 FE 89 EC 39 85 36 6F 3B 71 28
               AE A2 44 D0                       AF FD 13 65 E1 1F C8 95 18 C2 40 B5 2F 30 29 38
               FA 5C 3F 05                       CF 78 72 75 01 86 DB 91 EC 39 76 FF
               E5 75 29 C2
               30 17 98 7F
               73 10 5B 85
               EA C4 B5 E9
               41 90 50 FB
               5B E5 22 CC
               6E 3E 22 00
               ED 8F 4E 69
               17 23 B1 84
               4B 04 DC 31
               56 51 69 A8
               A3 6C 72 CE
               89 E9 91 8B
               C0 C0 FE 89
               EC 39 85 36
               6F 3B 71 28
               AF FD 13 65
               E1 1F C8 95
               18 C2 40 B5
               2F 30 29 38
               CF 78 72 75
               01 86 DB 91
               EC 39 76 FF
03B6 03B9 0004 65 27 E3 81 VCRC32                2179147621 (0x81E32765)
03BA 04D9 0120 ...         PAYLOAD

04DA 04D9 0000             CENTRAL HEADER
                           DECRYPTION RECORD
04DA 04DB 0002 10 00       IVSize                16 (0x10)
04DC 04EB 0010 70 B3 F3 AD IVData                70 B3 F3 AD C9 94 C2 52 B6 8E 86 2B 7E 59 FE D4
               C9 94 C2 52
               B6 8E 86 2B
               7E 59 FE D4
04EC 04EF 0004 20 01 00 00 Size                  288 (0x120)
04F0 04F1 0002 03 00       Format                3 (0x3)
04F2 04F3 0002 0F 66       AlgId                 26127 (0x660F) 'AES 192'
04F4 04F5 0002 C0 00       BitLen                192 (0xC0)
04F6 04F7 0002 01 00       Flags                 1 (0x1) 'Password required to decrypt'
04F8 04F9 0002 90 00       ErdSize               144 (0x90)
04FA 0589 0090 E5 8C 84 08 ErdData               E5 8C 84 08 61 98 6F 61 B9 EA 74 A5 3E 88 1B 79
               61 98 6F 61                       91 06 57 64 E3 0A 22 ED E6 EC 4F D1 32 48 BD 49
               B9 EA 74 A5                       F9 A6 12 79 4B E3 6B F4 D1 69 9E A7 45 C8 18 D8
               3E 88 1B 79                       F7 1F 33 1B 28 7A 98 F3 F0 D5 8B AE 51 60 C6 C5
               91 06 57 64                       14 9F 55 FF 45 24 CD 88 15 5F 9E 84 7D CA D2 32
               E3 0A 22 ED                       A3 E7 CC 36 D3 AD B5 F2 1D D7 51 04 EF 9F 42 E1
               E6 EC 4F D1                       7F 3C CE 2A FD 06 2A 35 BE 18 2E 4D F7 41 8E B7
               32 48 BD 49                       F3 13 29 A9 42 62 33 F5 C4 16 DA 23 58 B8 56 1A
               F9 A6 12 79                       D3 5C 08 5D 4A 37 21 52 38 64 54 65 0A 51 29 DB
               4B E3 6B F4
               D1 69 9E A7
               45 C8 18 D8
               F7 1F 33 1B
               28 7A 98 F3
               F0 D5 8B AE
               51 60 C6 C5
               14 9F 55 FF
               45 24 CD 88
               15 5F 9E 84
               7D CA D2 32
               A3 E7 CC 36
               D3 AD B5 F2
               1D D7 51 04
               EF 9F 42 E1
               7F 3C CE 2A
               FD 06 2A 35
               BE 18 2E 4D
               F7 41 8E B7
               F3 13 29 A9
               42 62 33 F5
               C4 16 DA 23
               58 B8 56 1A
               D3 5C 08 5D
               4A 37 21 52
               38 64 54 65
               0A 51 29 DB
058A 058D 0004 00 00 00 00 RCount                0 (0x0)
058E 058F 0002 80 00       VSize                 128 (0x80)
0590 060B 007C 3D D4 AB A5 VData                 3D D4 AB A5 6A 4E 5B E7 F2 61 09 6B 82 89 2A F4
               6A 4E 5B E7                       94 1F 68 DC 36 D8 49 E4 9F AC 2D 82 21 21 33 71
               F2 61 09 6B                       C3 57 46 60 60 34 2C E9 8C 1E B8 56 88 86 68 4D
               82 89 2A F4                       5A 97 6D FA F8 EC 42 6A 15 13 A8 85 9B 8A 3E D7
               94 1F 68 DC                       AB 40 8C 61 3E 9D 00 1C 83 06 C9 D1 9B 99 0B A7
               36 D8 49 E4                       64 38 8E 09 C9 00 A9 11 17 8C CB 0A D1 CC 34 86
               9F AC 2D 82                       04 69 C5 AE 45 6E 2B 70 FB 2C 8A 58 F9 7B 98 3F
               21 21 33 71                       51 79 50 C5 2C D2 93 F8 EA 8D 1C C9
               C3 57 46 60
               60 34 2C E9
               8C 1E B8 56
               88 86 68 4D
               5A 97 6D FA
               F8 EC 42 6A
               15 13 A8 85
               9B 8A 3E D7
               AB 40 8C 61
               3E 9D 00 1C
               83 06 C9 D1
               9B 99 0B A7
               64 38 8E 09
               C9 00 A9 11
               17 8C CB 0A
               D1 CC 34 86
               04 69 C5 AE
               45 6E 2B 70
               FB 2C 8A 58
               F9 7B 98 3F
               51 79 50 C5
               2C D2 93 F8
               EA 8D 1C C9
060C 060F 0004 30 96 EB 20 VCRC32                552310320 (0x20EB9630)

0610 069F 0090 54 82 0C F1 ENCRYPTED CENTRAL     T...c.*....Yu.E..2...n.2B2..hKVn...........l2u.@...0...".-....O6...*.7rs/N..GN..O..4`....)......'@`....
               63 9F 2A C1 DIRECTORY             .w?..).....F...W.C....wd.....,.K.P<d.6N.
               09 88 EE 59
               75 AA 45 E7
               B1 32 09 9C
               F0 6E D1 32
               42 32 A9 9B
               68 4B 56 6E
               99 8D AB ED
               0D 82 AE DC
               8F 0C D3 6C
               32 75 B5 40
               CB F1 A1 30
               1C A2 B5 22
               A5 2D 01 1A
               B7 09 4F 36
               18 E6 DB 2A
               C1 37 72 73
               2F 4E 94 16
               47 4E FA BF
               4F 10 FC 34
               60 D4 04 B3
               01 29 9D 0E
               A3 C0 C3 F9
               27 40 60 B1
               91 9A 0F 20
               01 77 3F B6
               AA 29 94 17
               C9 F6 86 46
               CB 15 F8 57
               99 43 CC F7
               D3 2E 77 64
               D1 F3 A2 A1
               03 2C B6 4B
               B4 50 3C 64
               15 36 4E F0

06A0 06A3 0004 50 4B 06 06 ZIP64 END CENTRAL DIR 101075792 (0x6064B50)
                           RECORD
06A4 06AB 0008 4C 00 00 00 Size of record        76 (0x4C)
               00 00 00 00
06AC 06AC 0001 41          Created Zip Spec      65 (0x41) '6.5'
06AD 06AD 0001 00          Created OS            0 (0x0) 'MS-DOS'
06AE 06AE 0001 3E          Extract Zip Spec      62 (0x3E) '6.2'
06AF 06AF 0001 00          Extract OS            0 (0x0) 'MS-DOS'
06B0 06B3 0004 00 00 00 00 Number of this disk   0 (0x0)
06B4 06B7 0004 00 00 00 00 Central Dir Disk no   0 (0x0)
06B8 06BF 0008 00 00 00 00 Entries in this disk  0 (0x0)
               00 00 00 00
06C0 06C7 0008 02 00 00 00 Total Entries         2 (0x2)
               00 00 00 00
06C8 06CF 0008 C6 01 00 00 Size of Central Dir   454 (0x1C6)
               00 00 00 00
06D0 06D7 0008 DA 04 00 00 Offset to Central dir 1242 (0x4DA)
               00 00 00 00
06D8 06D9 0002 08 00       Compression Method    8 (0x8) 'Deflated'
06DA 06E1 0008 C6 01 00 00 Compressed Length     454 (0x1C6)
               00 00 00 00
06E2 06E9 0008 D7 00 00 00 Uncompressed Length   215 (0xD7)
               00 00 00 00
06EA 06EB 0002 0F 66       AlgId                 26127 (0x660F) 'AES 192'
06EC 06ED 0002 C0 00       BitLen                192 (0xC0)
06EE 06EF 0002 01 00       Flags                 1 (0x1) 'Password required to decrypt'
06F0 06F1 0002 01 00       HashID                1 (0x1) 'CRC32'
06F2 06F3 0002 04 00       Hash Length           4 (0x4)
06F4 06F7 0004 69 22 7C 0B Hash Data             69 22 7C 0B

06F8 06FB 0004 50 4B 06 07 ZIP64 END CENTRAL DIR 117853008 (0x7064B50)
                           LOCATOR
06FC 06FF 0004 00 00 00 00 Central Dir Disk no   0 (0x0)
0700 0707 0008 A0 06 00 00 Offset to Zip64 EOCD  1696 (0x6A0)
               00 00 00 00
0708 070B 0004 01 00 00 00 Total no of Disks     1 (0x1)

070C 070F 0004 50 4B 05 06 END CENTRAL HEADER    101010256 (0x6054B50)
0710 0711 0002 00 00       Number of this disk   0 (0x0)
0712 0713 0002 00 00       Central Dir Disk no   0 (0x0)
0714 0715 0002 00 00       Entries in this disk  0 (0x0)
0716 0717 0002 FF FF       Total Entries         65535 (0xFFFF)
0718 071B 0004 C6 01 00 00 Size of Central Dir   454 (0x1C6)
071C 071F 0004 DA 04 00 00 Offset to Central Dir 1242 (0x4DA)
0720 0721 0002 00 00       Comment Length        0 (0x0)
#
# WARNING: Local Directory exists, but Central Directory is encrypted
#
# Warning Count: 1
#
# Done
