
0000 0003 0004 50 4B 03 04 LOCAL HEADER #1       04034B50 (67324752)
0004 0004 0001 14          Extract Zip Spec      14 (20) '2.0'
0005 0005 0001 00          Extract OS            00 (0) 'MS-DOS'
0006 0007 0002 00 00       General Purpose Flag  0000 (0)
                           [Bits 1-2]            0 'Normal Compression'
0008 0009 0002 08 00       Compression Method    0008 (8) 'Deflated'
000A 000D 0004 31 5A 9B 57 Modification Time     579B5A31 (1469798961) 'Wed Dec 27 11:17:34 2023'
000E 0011 0004 11 CD 82 ED CRC                   ED82CD11 (3984772369)
0012 0015 0004 06 00 00 00 Compressed Size       00000006 (6)
0016 0019 0004 04 00 00 00 Uncompressed Size     00000004 (4)
001A 001B 0002 04 00       Filename Length       0004 (4)
001C 001D 0002 00 00       Extra Length          0000 (0)
001E 0021 0004 61 62 63 2F Filename              'abc/'
#
# WARNING: Offset 0x1E: Directory 'abc/' must not have a payload
#
0022 0027 0006 4B 4C 4A 4E PAYLOAD               KLJN..
               01 00

0028 002B 0004 50 4B 01 02 CENTRAL HEADER #1     02014B50 (33639248)
002C 002C 0001 14          Created Zip Spec      14 (20) '2.0'
002D 002D 0001 03          Created OS            03 (3) 'Unix'
002E 002E 0001 14          Extract Zip Spec      14 (20) '2.0'
002F 002F 0001 00          Extract OS            00 (0) 'MS-DOS'
0030 0031 0002 00 00       General Purpose Flag  0000 (0)
                           [Bits 1-2]            0 'Normal Compression'
0032 0033 0002 08 00       Compression Method    0008 (8) 'Deflated'
0034 0037 0004 31 5A 9B 57 Modification Time     579B5A31 (1469798961) 'Wed Dec 27 11:17:34 2023'
0038 003B 0004 11 CD 82 ED CRC                   ED82CD11 (3984772369)
003C 003F 0004 06 00 00 00 Compressed Size       00000006 (6)
0040 0043 0004 04 00 00 00 Uncompressed Size     00000004 (4)
0044 0045 0002 04 00       Filename Length       0004 (4)
0046 0047 0002 00 00       Extra Length          0000 (0)
0048 0049 0002 00 00       Comment Length        0000 (0)
004A 004B 0002 00 00       Disk Start            0000 (0)
004C 004D 0002 00 00       Int File Attributes   0000 (0)
                           [Bit 0]               0 'Binary Data'
004E 0051 0004 00 00 A4 81 Ext File Attributes   81A40000 (2175008768)
                           [Bits 16-24]          01A4 (420) 'Unix attrib: rw-r--r--'
                           [Bits 28-31]          08 (8) 'Regular File'
0052 0055 0004 00 00 00 00 Local Header Offset   00000000 (0)
0056 0059 0004 61 62 63 2F Filename              'abc/'
#
# INFO: Offset 0x4E: DOS Directory flag not set in 'External Attributes' for Directory 'abc/'
#
# INFO: Offset 0x4E: Unix Directory flag not set in 'External Attributes' for Directory 'abc/'
#
# ERROR: Offset 0x40: Directory 'abc/' must not have a payload
#

005A 005D 0004 50 4B 05 06 END CENTRAL HEADER    06054B50 (101010256)
005E 005F 0002 00 00       Number of this disk   0000 (0)
0060 0061 0002 00 00       Central Dir Disk no   0000 (0)
0062 0063 0002 01 00       Entries in this disk  0001 (1)
0064 0065 0002 01 00       Total Entries         0001 (1)
0066 0069 0004 32 00 00 00 Size of Central Dir   00000032 (50)
006A 006D 0004 28 00 00 00 Offset to Central Dir 00000028 (40)
006E 006F 0002 00 00       Comment Length        0000 (0)
#
# Error Count: 1
# Warning Count: 1
# Info Count: 2
#
# Done
