
000000000 000000004 50 4B 03 04 LOCAL HEADER #1       04034B50
000000004 000000001 2D          Extract Zip Spec      2D '4.5'
000000005 000000001 00          Extract OS            00 'MS-DOS'
000000006 000000002 00 08       General Purpose Flag  0800
                                [Bit 11]              1 'Language Encoding'
000000008 000000002 00 00       Compression Method    0000 'Stored'
00000000A 000000004 51 6F 07 55 Last Mod Time         55076F51 'Sun Aug  7 13:58:34 2022'
00000000E 000000004 4B 36 B2 B7 CRC                   B7B2364B
000000012 000000004 FF FF FF FF Compressed Length     FFFFFFFF
000000016 000000004 FF FF FF FF Uncompressed Length   FFFFFFFF
00000001A 000000002 03 00       Filename Length       0003
00000001C 000000002 14 00       Extra Length          0014
00000001E 000000003 78 78 78    Filename              'xxx'
000000021 000000002 01 00       Extra ID #0001        0001 'ZIP64'
000000023 000000002 10 00         Length              0010
000000025 000000008 00 00 00 00   Uncompressed Size   0000000100000000
                    01 00 00 00
00000002D 000000008 00 00 00 00   Compressed Size     0000000100000000
                    01 00 00 00
000000035 100000000 ...         PAYLOAD

100000035 000000004 50 4B 01 02 CENTRAL HEADER #1     02014B50
100000039 000000001 41          Created Zip Spec      41 '6.5'
10000003A 000000001 00          Created OS            00 'MS-DOS'
10000003B 000000001 2D          Extract Zip Spec      2D '4.5'
10000003C 000000001 00          Extract OS            00 'MS-DOS'
10000003D 000000002 00 08       General Purpose Flag  0800
                                [Bit 11]              1 'Language Encoding'
10000003F 000000002 00 00       Compression Method    0000 'Stored'
100000041 000000004 51 6F 07 55 Last Mod Time         55076F51 'Sun Aug  7 13:58:34 2022'
100000045 000000004 4B 36 B2 B7 CRC                   B7B2364B
100000049 000000004 FF FF FF FF Compressed Length     FFFFFFFF
10000004D 000000004 FF FF FF FF Uncompressed Length   FFFFFFFF
100000051 000000002 03 00       Filename Length       0003
100000053 000000002 38 00       Extra Length          0038
100000055 000000002 00 00       Comment Length        0000
100000057 000000002 00 00       Disk Start            0000
100000059 000000002 00 00       Int File Attributes   0000
                                [Bit 0]               0 'Binary Data'
10000005B 000000004 20 00 00 00 Ext File Attributes   00000020
                                [Bit 5]               Archive
10000005F 000000004 00 00 00 00 Local Header Offset   00000000
100000063 000000003 78 78 78    Filename              'xxx'
100000066 000000002 01 00       Extra ID #0001        0001 'ZIP64'
100000068 000000002 10 00         Length              0010
10000006A 000000008 00 00 00 00   Uncompressed Size   0000000100000000
                    01 00 00 00
100000072 000000008 00 00 00 00   Compressed Size     0000000100000000
                    01 00 00 00
10000007A 000000002 0A 00       Extra ID #0002        000A 'NTFS FileTimes'
10000007C 000000002 20 00         Length              0020
10000007E 000000004 00 00 00 00   Reserved            00000000
100000082 000000002 01 00         Tag1                0001
100000084 000000002 18 00         Size1               0018
100000086 000000008 0E 66 99 66   Mtime               01D8AA5D6699660E 'Sun Aug  7 12:58:33
                    5D AA D8 01                       2022 743924600ns'
10000008E 000000008 0E 66 99 66   Atime               01D8AA5D6699660E 'Sun Aug  7 12:58:33
                    5D AA D8 01                       2022 743924600ns'
100000096 000000008 D3 EA 45 31   Ctime               01D8AA5D3145EAD3 'Sun Aug  7 12:57:04
                    5D AA D8 01                       2022 277576300ns'

10000009E 000000004 50 4B 06 06 ZIP64 END CENTRAL DIR 06064B50
                                RECORD
1000000A2 000000008 2C 00 00 00 Size of record        000000000000002C
                    00 00 00 00
1000000AA 000000001 41          Created Zip Spec      41 '6.5'
1000000AB 000000001 00          Created OS            00 'MS-DOS'
1000000AC 000000001 2D          Extract Zip Spec      2D '4.5'
1000000AD 000000001 00          Extract OS            00 'MS-DOS'
1000000AE 000000004 00 00 00 00 Number of this disk   00000000
1000000B2 000000004 00 00 00 00 Central Dir Disk no   00000000
1000000B6 000000008 01 00 00 00 Entries in this disk  0000000000000001
                    00 00 00 00
1000000BE 000000008 01 00 00 00 Total Entries         0000000000000001
                    00 00 00 00
1000000C6 000000008 69 00 00 00 Size of Central Dir   0000000000000069
                    00 00 00 00
1000000CE 000000008 35 00 00 00 Offset to Central dir 0000000100000035
                    01 00 00 00

1000000D6 000000004 50 4B 06 07 ZIP64 END CENTRAL DIR 07064B50
                                LOCATOR
1000000DA 000000004 00 00 00 00 Central Dir Disk no   00000000
1000000DE 000000008 9E 00 00 00 Offset to Zip64 EOCD  000000010000009E
                    01 00 00 00
1000000E6 000000004 01 00 00 00 Total no of Disks     00000001

1000000EA 000000004 50 4B 05 06 END CENTRAL HEADER    06054B50
1000000EE 000000002 00 00       Number of this disk   0000
1000000F0 000000002 00 00       Central Dir Disk no   0000
1000000F2 000000002 01 00       Entries in this disk  0001
1000000F4 000000002 01 00       Total Entries         0001
1000000F6 000000004 69 00 00 00 Size of Central Dir   00000069
1000000FA 000000004 FF FF FF FF Offset to Central Dir FFFFFFFF
1000000FE 000000002 00 00       Comment Length        0000
Done
