
000000000 000000003 000000004 50 4B 03 04 LOCAL HEADER #1       04034B50
000000004 000000004 000000001 2D          Extract Zip Spec      2D '4.5'
000000005 000000005 000000001 00          Extract OS            00 'MS-DOS'
000000006 000000007 000000002 00 08       General Purpose Flag  0800
                                          [Bit 11]              1 'Language Encoding'
000000008 000000009 000000002 00 00       Compression Method    0000 'Stored'
00000000A 00000000D 000000004 51 6F 07 55 Last Mod Time         55076F51 'Sun Aug  7 13:58:34 2022'
00000000E 000000011 000000004 4B 36 B2 B7 CRC                   B7B2364B
000000012 000000015 000000004 FF FF FF FF Compressed Length     FFFFFFFF
000000016 000000019 000000004 FF FF FF FF Uncompressed Length   FFFFFFFF
00000001A 00000001B 000000002 03 00       Filename Length       0003
00000001C 00000001D 000000002 14 00       Extra Length          0014
00000001E 000000020 000000003 78 78 78    Filename              'xxx'
000000021 000000022 000000002 01 00       Extra ID #0001        0001 'ZIP64'
000000023 000000024 000000002 10 00         Length              0010
000000025 00000002C 000000008 00 00 00 00   Uncompressed Size   0000000100000000
                              01 00 00 00
00000002D 000000034 000000008 00 00 00 00   Compressed Size     0000000100000000
                              01 00 00 00
000000035 100000034 100000000 ...         PAYLOAD

100000035 100000038 000000004 50 4B 01 02 CENTRAL HEADER #1     02014B50
100000039 100000039 000000001 41          Created Zip Spec      41 '6.5'
10000003A 10000003A 000000001 00          Created OS            00 'MS-DOS'
10000003B 10000003B 000000001 2D          Extract Zip Spec      2D '4.5'
10000003C 10000003C 000000001 00          Extract OS            00 'MS-DOS'
10000003D 10000003E 000000002 00 08       General Purpose Flag  0800
                                          [Bit 11]              1 'Language Encoding'
10000003F 100000040 000000002 00 00       Compression Method    0000 'Stored'
100000041 100000044 000000004 51 6F 07 55 Last Mod Time         55076F51 'Sun Aug  7 13:58:34 2022'
100000045 100000048 000000004 4B 36 B2 B7 CRC                   B7B2364B
100000049 10000004C 000000004 FF FF FF FF Compressed Length     FFFFFFFF
10000004D 100000050 000000004 FF FF FF FF Uncompressed Length   FFFFFFFF
100000051 100000052 000000002 03 00       Filename Length       0003
100000053 100000054 000000002 38 00       Extra Length          0038
100000055 100000056 000000002 00 00       Comment Length        0000
100000057 100000058 000000002 00 00       Disk Start            0000
100000059 10000005A 000000002 00 00       Int File Attributes   0000
                                          [Bit 0]               0 'Binary Data'
10000005B 10000005E 000000004 20 00 00 00 Ext File Attributes   00000020
                                          [Bit 5]               Archive
10000005F 100000062 000000004 00 00 00 00 Local Header Offset   00000000
100000063 100000065 000000003 78 78 78    Filename              'xxx'
100000066 100000067 000000002 01 00       Extra ID #0001        0001 'ZIP64'
100000068 100000069 000000002 10 00         Length              0010
10000006A 100000071 000000008 00 00 00 00   Uncompressed Size   0000000100000000
                              01 00 00 00
100000072 100000079 000000008 00 00 00 00   Compressed Size     0000000100000000
                              01 00 00 00
10000007A 10000007B 000000002 0A 00       Extra ID #0002        000A 'NTFS FileTimes'
10000007C 10000007D 000000002 20 00         Length              0020
10000007E 100000081 000000004 00 00 00 00   Reserved            00000000
100000082 100000083 000000002 01 00         Tag1                0001
100000084 100000085 000000002 18 00         Size1               0018
100000086 10000008D 000000008 0E 66 99 66   Mtime               01D8AA5D6699660E 'Sun Aug  7 12:58:33
                              5D AA D8 01                       2022 743924600ns'
10000008E 100000095 000000008 0E 66 99 66   Atime               01D8AA5D6699660E 'Sun Aug  7 12:58:33
                              5D AA D8 01                       2022 743924600ns'
100000096 10000009D 000000008 D3 EA 45 31   Ctime               01D8AA5D3145EAD3 'Sun Aug  7 12:57:04
                              5D AA D8 01                       2022 277576300ns'

10000009E 1000000A1 000000004 50 4B 06 06 ZIP64 END CENTRAL DIR 06064B50
                                          RECORD
1000000A2 1000000A9 000000008 2C 00 00 00 Size of record        000000000000002C
                              00 00 00 00
1000000AA 1000000AA 000000001 41          Created Zip Spec      41 '6.5'
1000000AB 1000000AB 000000001 00          Created OS            00 'MS-DOS'
1000000AC 1000000AC 000000001 2D          Extract Zip Spec      2D '4.5'
1000000AD 1000000AD 000000001 00          Extract OS            00 'MS-DOS'
1000000AE 1000000B1 000000004 00 00 00 00 Number of this disk   00000000
1000000B2 1000000B5 000000004 00 00 00 00 Central Dir Disk no   00000000
1000000B6 1000000BD 000000008 01 00 00 00 Entries in this disk  0000000000000001
                              00 00 00 00
1000000BE 1000000C5 000000008 01 00 00 00 Total Entries         0000000000000001
                              00 00 00 00
1000000C6 1000000CD 000000008 69 00 00 00 Size of Central Dir   0000000000000069
                              00 00 00 00
1000000CE 1000000D5 000000008 35 00 00 00 Offset to Central dir 0000000100000035
                              01 00 00 00

1000000D6 1000000D9 000000004 50 4B 06 07 ZIP64 END CENTRAL DIR 07064B50
                                          LOCATOR
1000000DA 1000000DD 000000004 00 00 00 00 Central Dir Disk no   00000000
1000000DE 1000000E5 000000008 9E 00 00 00 Offset to Zip64 EOCD  000000010000009E
                              01 00 00 00
1000000E6 1000000E9 000000004 01 00 00 00 Total no of Disks     00000001

1000000EA 1000000ED 000000004 50 4B 05 06 END CENTRAL HEADER    06054B50
1000000EE 1000000EF 000000002 00 00       Number of this disk   0000
1000000F0 1000000F1 000000002 00 00       Central Dir Disk no   0000
1000000F2 1000000F3 000000002 01 00       Entries in this disk  0001
1000000F4 1000000F5 000000002 01 00       Total Entries         0001
1000000F6 1000000F9 000000004 69 00 00 00 Size of Central Dir   00000069
1000000FA 1000000FD 000000004 FF FF FF FF Offset to Central Dir FFFFFFFF
1000000FE 1000000FF 000000002 00 00       Comment Length        0000
#
# Done
