
0000 0004 50 4B 03 04 LOCAL HEADER #1       04034B50
0004 0001 33          Extract Zip Spec      33 '5.1'
0005 0001 00          Extract OS            00 'MS-DOS'
0006 0002 41 28       General Purpose Flag  2841
                      [Bit  0]              1 'Encryption'
                      [Bits 1-2]            0 'Normal Compression'
                      [Bit  6]              1 'Strong Encryption'
                      [Bit 11]              1 'Language Encoding'
                      [Bit 13]              1 'Encrypted Central Dir'
0008 0002 08 00       Compression Method    0008 'Deflated'
000A 0004 00 00 00 00 Last Mod Time         00000000 'Thu Jan  1 00:00:00 1970'
000E 0004 00 00 00 00 CRC                   00000000
0012 0004 46 02 00 00 Compressed Length     00000246
0016 0004 00 00 00 00 Uncompressed Length   00000000
001A 0002 01 00       Filename Length       0001
001C 0002 00 00       Extra Length          0000
001E 0001 31          Filename              '1'

DECRYPTION HEADER RECORD
001F 0002 10 00       IVSize                0010
0021 0010 89 DA D7 84 IVData                89 DA D7 84 86 3D 38 23 D3 84 2C 14
          86 3D 38 23                       F0 16 89 EF
          D3 84 2C 14
          F0 16 89 EF
0031 0004 20 01 00 00 Size                  00000120
0035 0002 03 00       Format                0003
0037 0002 10 66       AlgId                 6610 'AES 256'
0039 0002 00 01       BitLen                0100
003B 0002 01 00       Flags                 0001 'Password required to decrypt'
003D 0002 90 00       ErdSize               0090
003F 0090 63 0C C0 F2 ErdData               63 0C C0 F2 C8 35 55 80 BB 83 EB B2
          C8 35 55 80                       F4 AC EF 55 9D 6D 6A CA 89 2B CC BB
          BB 83 EB B2                       88 05 69 0F 34 90 76 AB 68 C0 85 1F
          F4 AC EF 55                       E0 31 3D 0A FA 56 1D AB DE 3C 7E 4D
          9D 6D 6A CA                       0C 5D AD AE A0 16 76 C1 77 B7 9D 6E
          89 2B CC BB                       12 6D 8A 05 60 89 0B 59 F3 22 D0 E7
          88 05 69 0F                       FE BE 58 A9 DD B8 5A 8A 25 E0 FB E9
          34 90 76 AB                       9C C6 66 FF 12 99 0F 2D 2E 1C 43 2A
          68 C0 85 1F                       76 A2 D7 32 DD 38 8C 1B BE 80 03 84
          E0 31 3D 0A                       AF 02 48 41 7B 61 B7 F1 FC 24 FF BE
          FA 56 1D AB                       F4 75 13 73 3F 84 75 8C B8 9F B0 E2
          DE 3C 7E 4D                       28 36 2A AE 67 D1 90 DA 03 8E 4B 06
          0C 5D AD AE
          A0 16 76 C1
          77 B7 9D 6E
          12 6D 8A 05
          60 89 0B 59
          F3 22 D0 E7
          FE BE 58 A9
          DD B8 5A 8A
          25 E0 FB E9
          9C C6 66 FF
          12 99 0F 2D
          2E 1C 43 2A
          76 A2 D7 32
          DD 38 8C 1B
          BE 80 03 84
          AF 02 48 41
          7B 61 B7 F1
          FC 24 FF BE
          F4 75 13 73
          3F 84 75 8C
          B8 9F B0 E2
          28 36 2A AE
          67 D1 90 DA
          03 8E 4B 06
00CF 0004 00 00 00 00 RCount                00000000
00D3 0002 80 00       VSize                 0080
00D5 007C EF 7A 84 BB VData                 EF 7A 84 BB 06 3F 87 1A EB 3B 6E BC
          06 3F 87 1A                       7F 7D 1B 89 4A E7 40 0F F4 42 42 D4
          EB 3B 6E BC                       65 91 EE 69 13 E9 74 68 65 C3 9A B1
          7F 7D 1B 89                       B9 15 BC BF D0 4F 59 70 53 4C 58 8D
          4A E7 40 0F                       54 7E 27 4B 02 32 8A 12 A7 7B E9 C9
          F4 42 42 D4                       19 57 24 B5 CB 2B EA 80 CB E8 E3 D0
          65 91 EE 69                       EA 83 DA 00 F9 C2 B2 C5 38 8E 5D 2A
          13 E9 74 68                       49 E1 D5 5F 91 57 CB 78 9C B6 EA 9E
          65 C3 9A B1                       FA 8E 12 97 1C 2C B2 05 3B C6 0B 67
          B9 15 BC BF                       CA 4E 70 CA A8 40 F0 BD B4 0F D9 13
          D0 4F 59 70                       E1 61 6F 0D
          53 4C 58 8D
          54 7E 27 4B
          02 32 8A 12
          A7 7B E9 C9
          19 57 24 B5
          CB 2B EA 80
          CB E8 E3 D0
          EA 83 DA 00
          F9 C2 B2 C5
          38 8E 5D 2A
          49 E1 D5 5F
          91 57 CB 78
          9C B6 EA 9E
          FA 8E 12 97
          1C 2C B2 05
          3B C6 0B 67
          CA 4E 70 CA
          A8 40 F0 BD
          B4 0F D9 13
          E1 61 6F 0D
0151 0004 B2 93 27 72 VCRC32                722793B2
0155 0110 ...         PAYLOAD

0265 0004 50 4B 03 04 LOCAL HEADER #2       04034B50
0269 0001 33          Extract Zip Spec      33 '5.1'
026A 0001 00          Extract OS            00 'MS-DOS'
026B 0002 41 28       General Purpose Flag  2841
                      [Bit  0]              1 'Encryption'
                      [Bits 1-2]            0 'Normal Compression'
                      [Bit  6]              1 'Strong Encryption'
                      [Bit 11]              1 'Language Encoding'
                      [Bit 13]              1 'Encrypted Central Dir'
026D 0002 08 00       Compression Method    0008 'Deflated'
026F 0004 00 00 00 00 Last Mod Time         00000000 'Thu Jan  1 00:00:00 1970'
0273 0004 00 00 00 00 CRC                   00000000
0277 0004 56 02 00 00 Compressed Length     00000256
027B 0004 00 00 00 00 Uncompressed Length   00000000
027F 0002 01 00       Filename Length       0001
0281 0002 00 00       Extra Length          0000
0283 0001 32          Filename              '2'

DECRYPTION HEADER RECORD
0284 0002 10 00       IVSize                0010
0286 0010 9E 18 EF 56 IVData                9E 18 EF 56 7E 99 79 7A 45 52 05 B5
          7E 99 79 7A                       9E C3 70 EC
          45 52 05 B5
          9E C3 70 EC
0296 0004 20 01 00 00 Size                  00000120
029A 0002 03 00       Format                0003
029C 0002 10 66       AlgId                 6610 'AES 256'
029E 0002 00 01       BitLen                0100
02A0 0002 01 00       Flags                 0001 'Password required to decrypt'
02A2 0002 90 00       ErdSize               0090
02A4 0090 63 0C C0 F2 ErdData               63 0C C0 F2 C8 35 55 80 BB 83 EB B2
          C8 35 55 80                       F4 AC EF 55 9D 6D 6A CA 89 2B CC BB
          BB 83 EB B2                       88 05 69 0F 34 90 76 AB 68 C0 85 1F
          F4 AC EF 55                       E0 31 3D 0A FA 56 1D AB DE 3C 7E 4D
          9D 6D 6A CA                       0C 5D AD AE A0 16 76 C1 77 B7 9D 6E
          89 2B CC BB                       12 6D 8A 05 60 89 0B 59 F3 22 D0 E7
          88 05 69 0F                       FE BE 58 A9 DD B8 5A 8A 25 E0 FB E9
          34 90 76 AB                       9C C6 66 FF 12 99 0F 2D 2E 1C 43 2A
          68 C0 85 1F                       76 A2 D7 32 DD 38 8C 1B BE 80 03 84
          E0 31 3D 0A                       AF 02 48 41 7B 61 B7 F1 FC 24 FF BE
          FA 56 1D AB                       F4 75 13 73 3F 84 75 8C B8 9F B0 E2
          DE 3C 7E 4D                       28 36 2A AE 67 D1 90 DA 03 8E 4B 06
          0C 5D AD AE
          A0 16 76 C1
          77 B7 9D 6E
          12 6D 8A 05
          60 89 0B 59
          F3 22 D0 E7
          FE BE 58 A9
          DD B8 5A 8A
          25 E0 FB E9
          9C C6 66 FF
          12 99 0F 2D
          2E 1C 43 2A
          76 A2 D7 32
          DD 38 8C 1B
          BE 80 03 84
          AF 02 48 41
          7B 61 B7 F1
          FC 24 FF BE
          F4 75 13 73
          3F 84 75 8C
          B8 9F B0 E2
          28 36 2A AE
          67 D1 90 DA
          03 8E 4B 06
0334 0004 00 00 00 00 RCount                00000000
0338 0002 80 00       VSize                 0080
033A 007C 4A 97 29 F5 VData                 4A 97 29 F5 34 12 0D FC A7 05 A8 F9
          34 12 0D FC                       D4 A4 31 0C 51 BD B5 06 D7 63 6F 96
          A7 05 A8 F9                       A4 C4 DF 0B 6A E5 53 C9 67 7E 1C A6
          D4 A4 31 0C                       C1 52 AF 5E 61 79 E0 B9 11 1B FA D7
          51 BD B5 06                       10 B7 D8 EA CA 67 5D F9 F3 2B 93 2B
          D7 63 6F 96                       6E 2E CD BB E8 15 84 3F 4B 6F B6 E1
          A4 C4 DF 0B                       D1 5A 3A 04 33 F9 CC A3 89 D2 48 71
          6A E5 53 C9                       41 0D 04 08 C2 56 72 AF E0 FE EC 75
          67 7E 1C A6                       DC 22 42 36 01 66 F8 2D 78 12 60 B6
          C1 52 AF 5E                       FD C3 AC 47 8F 08 33 32 F6 4D 81 1D
          61 79 E0 B9                       0C D2 44 9B
          11 1B FA D7
          10 B7 D8 EA
          CA 67 5D F9
          F3 2B 93 2B
          6E 2E CD BB
          E8 15 84 3F
          4B 6F B6 E1
          D1 5A 3A 04
          33 F9 CC A3
          89 D2 48 71
          41 0D 04 08
          C2 56 72 AF
          E0 FE EC 75
          DC 22 42 36
          01 66 F8 2D
          78 12 60 B6
          FD C3 AC 47
          8F 08 33 32
          F6 4D 81 1D
          0C D2 44 9B
03B6 0004 4F 39 80 82 VCRC32                8280394F
03BA 0120 ...         PAYLOAD

06A0 0004 50 4B 06 06 ZIP64 END CENTRAL DIR 06064B50
                      RECORD
06A4 0008 4C 00 00 00 Size of record        000000000000004C
          00 00 00 00
06AC 0001 41          Created Zip Spec      41 '6.5'
06AD 0001 00          Created OS            00 'MS-DOS'
06AE 0001 3E          Extract Zip Spec      3E '6.2'
06AF 0001 00          Extract OS            00 'MS-DOS'
06B0 0004 00 00 00 00 Number of this disk   00000000
06B4 0004 00 00 00 00 Central Dir Disk no   00000000
06B8 0008 00 00 00 00 Entries in this disk  0000000000000000
          00 00 00 00
06C0 0008 02 00 00 00 Total Entries         0000000000000002
          00 00 00 00
06C8 0008 C6 01 00 00 Size of Central Dir   00000000000001C6
          00 00 00 00
06D0 0008 DA 04 00 00 Offset to Central dir 00000000000004DA
          00 00 00 00
06D8 0002 08 00       Compression Method    0008 'Deflated'
06DA 0008 C6 01 00 00 Compressed Length     00000000000001C6
          00 00 00 00
06E2 0008 D7 00 00 00 Uncompressed Length   00000000000000D7
          00 00 00 00
06EA 0002 10 66       AlgId                 6610 'AES 256'
06EC 0002 00 01       BitLen                0100
06EE 0002 01 00       Flags                 0001 'Password required to decrypt'
06F0 0002 01 00       HashID                0001 'CRC32'
06F2 0002 04 00       Hash Length           0004
06F4 0004 E2 8B 39 AE Hash Data             E2 8B 39 AE

06F8 0004 50 4B 06 07 ZIP64 END CENTRAL DIR 07064B50
                      LOCATOR
06FC 0004 00 00 00 00 Central Dir Disk no   00000000
0700 0008 A0 06 00 00 Offset to Central dir 00000000000006A0
          00 00 00 00
0708 0004 01 00 00 00 Total no of Disks     00000001

070C 0004 50 4B 05 06 END CENTRAL HEADER    06054B50
0710 0002 00 00       Number of this disk   0000
0712 0002 00 00       Central Dir Disk no   0000
0714 0002 00 00       Entries in this disk  0000
0716 0002 FF FF       Total Entries         FFFF
0718 0004 C6 01 00 00 Size of Central Dir   000001C6
071C 0004 DA 04 00 00 Offset to Central Dir 000004DA
0720 0002 00 00       Comment Length        0000
Done
