
0000 0003 0004 50 4B 30 30 SPLIT ARCHIVE         30304B50 (808471376)
                           SINGLE-SEGMENT MARKER

0004 0007 0004 50 4B 03 04 LOCAL HEADER #1       04034B50 (67324752)
0008 0008 0001 0A          Extract Zip Spec      0A (10) '1.0'
0009 0009 0001 00          Extract OS            00 (0) 'MS-DOS'
000A 000B 0002 00 00       General Purpose Flag  0000 (0)
000C 000D 0002 00 00       Compression Method    0000 (0) 'Stored'
000E 0011 0004 5C 58 6A 55 Last Mod Date/Time    556A585C (1433032796) 'Thu Nov 10 11:02:56 2022'
0012 0015 0004 FF E7 0E F9 CRC                   F90EE7FF (4178503679)
0016 0019 0004 BE 01 00 00 Compressed Length     000001BE (446)
001A 001D 0004 BE 01 00 00 Uncompressed Length   000001BE (446)
001E 001F 0002 19 00       Filename Length       0019 (25)
0020 0021 0002 1C 00       Extra Length          001C (28)
0022 003A 0019 68 6F 6D 65 Filename              'home/paul/share/lorem.txt'
               2F 70 61 75
               6C 2F 73 68
               61 72 65 2F
               6C 6F 72 65
               6D 2E 74 78
               74
003B 003C 0002 55 54       Extra ID #1           5455 (21589) 'Extended Timestamp [UT]'
003D 003E 0002 09 00         Length              0009 (9)
003F 003F 0001 03            Flags               03 (3) 'mod access'
0040 0043 0004 60 DA 6C 63   Mod Time            636CDA60 (1668078176) 'Thu Nov 10 11:02:56 2022'
0044 0047 0004 96 DA 6C 63   Access Time         636CDA96 (1668078230) 'Thu Nov 10 11:03:50 2022'
0048 0049 0002 75 78       Extra ID #2           7875 (30837) 'Unix Extra type 3 [ux]'
004A 004B 0002 0B 00         Length              000B (11)
004C 004C 0001 01            Version             01 (1)
004D 004D 0001 04            UID Size            04 (4)
004E 0051 0004 00 00 00 00   UID                 00000000 (0)
0052 0052 0001 04            GID Size            04 (4)
0053 0056 0004 E7 03 00 00   GID                 000003E7 (999)
0057 0214 01BE ...         PAYLOAD

0215 0218 0004 50 4B 01 02 CENTRAL HEADER #1     02014B50 (33639248)
0219 0219 0001 1E          Created Zip Spec      1E (30) '3.0'
021A 021A 0001 03          Created OS            03 (3) 'Unix'
021B 021B 0001 0A          Extract Zip Spec      0A (10) '1.0'
021C 021C 0001 00          Extract OS            00 (0) 'MS-DOS'
021D 021E 0002 00 00       General Purpose Flag  0000 (0)
021F 0220 0002 00 00       Compression Method    0000 (0) 'Stored'
0221 0224 0004 5C 58 6A 55 Last Mod Date/Time    556A585C (1433032796) 'Thu Nov 10 11:02:56 2022'
0225 0228 0004 FF E7 0E F9 CRC                   F90EE7FF (4178503679)
0229 022C 0004 BE 01 00 00 Compressed Length     000001BE (446)
022D 0230 0004 BE 01 00 00 Uncompressed Length   000001BE (446)
0231 0232 0002 19 00       Filename Length       0019 (25)
0233 0234 0002 18 00       Extra Length          0018 (24)
0235 0236 0002 00 00       Comment Length        0000 (0)
0237 0238 0002 00 00       Disk Start            0000 (0)
0239 023A 0002 00 00       Int File Attributes   0000 (0)
                           [Bit 0]               0 'Binary Data'
023B 023E 0004 00 00 F8 81 Ext File Attributes   81F80000 (2180513792)
                           [Bits 16-24]          01F8 (504) 'Unix attrib: rwxrwx---'
                           [Bits 28-31]          08 (8) 'Regular File'
023F 0242 0004 04 00 00 00 Local Header Offset   00000004 (4)
0243 025B 0019 68 6F 6D 65 Filename              'home/paul/share/lorem.txt'
               2F 70 61 75
               6C 2F 73 68
               61 72 65 2F
               6C 6F 72 65
               6D 2E 74 78
               74
025C 025D 0002 55 54       Extra ID #1           5455 (21589) 'Extended Timestamp [UT]'
025E 025F 0002 05 00         Length              0005 (5)
0260 0260 0001 03            Flags               03 (3) 'mod access'
0261 0264 0004 60 DA 6C 63   Mod Time            636CDA60 (1668078176) 'Thu Nov 10 11:02:56 2022'
0265 0266 0002 75 78       Extra ID #2           7875 (30837) 'Unix Extra type 3 [ux]'
0267 0268 0002 0B 00         Length              000B (11)
0269 0269 0001 01            Version             01 (1)
026A 026A 0001 04            UID Size            04 (4)
026B 026E 0004 00 00 00 00   UID                 00000000 (0)
026F 026F 0001 04            GID Size            04 (4)
0270 0273 0004 E7 03 00 00   GID                 000003E7 (999)

0274 0277 0004 50 4B 05 06 END CENTRAL HEADER    06054B50 (101010256)
0278 0279 0002 00 00       Number of this disk   0000 (0)
027A 027B 0002 00 00       Central Dir Disk no   0000 (0)
027C 027D 0002 01 00       Entries in this disk  0001 (1)
027E 027F 0002 01 00       Total Entries         0001 (1)
0280 0283 0004 5F 00 00 00 Size of Central Dir   0000005F (95)
0284 0287 0004 15 02 00 00 Offset to Central Dir 00000215 (533)
0288 0289 0002 00 00       Comment Length        0000 (0)
#
# Done
