
0000 0003 0004 50 4B 03 04 LOCAL HEADER #1       67324752 (0x4034B50)
0004 0004 0001 33          Extract Zip Spec      51 (0x33) '5.1'
0005 0005 0001 03          Extract OS            3 (0x3) 'Unix'
0006 0007 0002 01 00       General Purpose Flag  1 (0x1)
                           [Bit  0]              1 'Encryption'
0008 0009 0002 63 00       Compression Method    99 (0x63) 'AES Encryption'
000A 000D 0004 15 9E 89 52 Last Mod Time         1384750613 (0x52899E15) 'Fri Apr  9 19:48:42 2021'
000E 0011 0004 00 00 00 00 CRC                   0 (0x0)
0012 0015 0004 22 01 00 00 Compressed Length     290 (0x122)
0016 0019 0004 BE 01 00 00 Uncompressed Length   446 (0x1BE)
001A 001B 0002 09 00       Filename Length       9 (0x9)
001C 001D 0002 0B 00       Extra Length          11 (0xB)
001E 0026 0009 6C 6F 72 65 Filename              'lorem.txt'
               6D 2E 74 78
               74
0027 0028 0002 01 99       Extra ID #1           39169 (0x9901) 'AES Encryption'
0029 002A 0002 07 00         Length              7 (0x7)
002B 002C 0002 02 00         Vendor Version      2 (0x2) 'AE-2'
002D 002E 0002 41 45         Vendor ID           17729 (0x4541) 'AE'
002F 002F 0001 02            Encryption Strength 2 (0x2) '192-bit encryption key'
0030 0031 0002 08 00         Compression Method  8 (0x8) 'Deflated'
0032 003D 000C 6F 68 95 45 AES Salt              6F 68 95 45 FD 4A 35 2A 04 57 C5 8C
               FD 4A 35 2A
               04 57 C5 8C
003E 003F 0002 ED 1D       AES Pwd Ver           ED 1D
0040 0149 010A ...         PAYLOAD
014A 0153 000A 06 09 D6 22 AES Auth              06 09 D6 22 49 11 98 63 33 16
               49 11 98 63
               33 16

0154 0157 0004 50 4B 01 02 CENTRAL HEADER #1     33639248 (0x2014B50)
0158 0158 0001 3F          Created Zip Spec      63 (0x3F) '6.3'
0159 0159 0001 03          Created OS            3 (0x3) 'Unix'
015A 015A 0001 33          Extract Zip Spec      51 (0x33) '5.1'
015B 015B 0001 03          Extract OS            3 (0x3) 'Unix'
015C 015D 0002 01 00       General Purpose Flag  1 (0x1)
                           [Bit  0]              1 'Encryption'
015E 015F 0002 63 00       Compression Method    99 (0x63) 'AES Encryption'
0160 0163 0004 15 9E 89 52 Last Mod Time         1384750613 (0x52899E15) 'Fri Apr  9 19:48:42 2021'
0164 0167 0004 00 00 00 00 CRC                   0 (0x0)
0168 016B 0004 22 01 00 00 Compressed Length     290 (0x122)
016C 016F 0004 BE 01 00 00 Uncompressed Length   446 (0x1BE)
0170 0171 0002 09 00       Filename Length       9 (0x9)
0172 0173 0002 2F 00       Extra Length          47 (0x2F)
0174 0175 0002 00 00       Comment Length        0 (0x0)
0176 0177 0002 00 00       Disk Start            0 (0x0)
0178 0179 0002 00 00       Int File Attributes   0 (0x0)
                           [Bit 0]               0 'Binary Data'
017A 017D 0004 20 80 ED 81 Ext File Attributes   2179825696 (0x81ED8020)
                           [Bit 5]               Archive
                           [Bits 11-15]          32768 (0x8000) 'Unknown DOS attrib'
                           [Bits 16-24]          493 (0x1ED) 'Unix attrib: rwxr-xr-x'
                           [Bits 28-31]          8 (0x8) 'Regular File'
017E 0181 0004 00 00 00 00 Local Header Offset   0 (0x0)
0182 018A 0009 6C 6F 72 65 Filename              'lorem.txt'
               6D 2E 74 78
               74
018B 018C 0002 0A 00       Extra ID #1           10 (0xA) 'NTFS FileTimes'
018D 018E 0002 20 00         Length              32 (0x20)
018F 0192 0004 00 00 00 00   Reserved            0 (0x0)
0193 0194 0002 01 00         Tag1                1 (0x1)
0195 0196 0002 18 00         Size1               24 (0x18)
0197 019E 0008 80 8A 8D F5   Mtime               132624677210000000 (0x1D72D70F58D8A80) 'Fri Apr  9 18:48:41 2021 0ns'
               70 2D D7 01
019F 01A6 0008 00 F1 38 09   Atime               132624677540000000 (0x1D72D710938F100) 'Fri Apr  9 18:49:14 2021 0ns'
               71 2D D7 01
01A7 01AE 0008 80 8A 8D F5   Ctime               132624677210000000 (0x1D72D70F58D8A80) 'Fri Apr  9 18:48:41 2021 0ns'
               70 2D D7 01
01AF 01B0 0002 01 99       Extra ID #2           39169 (0x9901) 'AES Encryption'
01B1 01B2 0002 07 00         Length              7 (0x7)
01B3 01B4 0002 02 00         Vendor Version      2 (0x2) 'AE-2'
01B5 01B6 0002 41 45         Vendor ID           17729 (0x4541) 'AE'
01B7 01B7 0001 02            Encryption Strength 2 (0x2) '192-bit encryption key'
01B8 01B9 0002 08 00         Compression Method  8 (0x8) 'Deflated'

01BA 01BD 0004 50 4B 05 06 END CENTRAL HEADER    101010256 (0x6054B50)
01BE 01BF 0002 00 00       Number of this disk   0 (0x0)
01C0 01C1 0002 00 00       Central Dir Disk no   0 (0x0)
01C2 01C3 0002 01 00       Entries in this disk  1 (0x1)
01C4 01C5 0002 01 00       Total Entries         1 (0x1)
01C6 01C9 0004 66 00 00 00 Size of Central Dir   102 (0x66)
01CA 01CD 0004 54 01 00 00 Offset to Central Dir 340 (0x154)
01CE 01CF 0002 00 00       Comment Length        0 (0x0)
#
# Done
