
0000 0004 50 4B 03 04 LOCAL HEADER #1       04034B50
0004 0001 33          Extract Zip Spec      33 '5.1'
0005 0001 03          Extract OS            03 'Unix'
0006 0002 01 00       General Purpose Flag  0001
                      [Bit  0]              1 'Encryption'
0008 0002 63 00       Compression Method    0063 'AES Encryption'
000A 0004 15 9E 89 52 Last Mod Time         52899E15 'Fri Apr  9 19:48:42 2021'
000E 0004 00 00 00 00 CRC                   00000000
0012 0004 22 01 00 00 Compressed Length     00000122
0016 0004 BE 01 00 00 Uncompressed Length   000001BE
001A 0002 09 00       Filename Length       0009
001C 0002 0B 00       Extra Length          000B
001E 0009 6C 6F 72 65 Filename              'lorem.txt'
          6D 2E 74 78
          74
0027 0002 01 99       Extra ID #0001        9901 'AES Encryption'
0029 0002 07 00         Length              0007
002B 0002 02 00         Vendor Version      0002 'AE-2'
002D 0002 41 45         Vendor ID           4541 'AE'
002F 0001 02            Encryption Strength 02 '192-bit encryption key'
0030 0002 08 00         Compression Method  0008 'Deflated'
0032 000C 6F 68 95 45 AES Salt              6F 68 95 45 FD 4A 35 2A 04 57 C5 8C
          FD 4A 35 2A
          04 57 C5 8C
003E 0002 ED 1D       AES Pwd Ver           ED 1D
0040 010A ...         PAYLOAD
014A 000A 06 09 D6 22 AES Auth              06 09 D6 22 49 11 98 63 33 16
          49 11 98 63
          33 16

0154 0004 50 4B 01 02 CENTRAL HEADER #1     02014B50
0158 0001 3F          Created Zip Spec      3F '6.3'
0159 0001 03          Created OS            03 'Unix'
015A 0001 33          Extract Zip Spec      33 '5.1'
015B 0001 03          Extract OS            03 'Unix'
015C 0002 01 00       General Purpose Flag  0001
                      [Bit  0]              1 'Encryption'
015E 0002 63 00       Compression Method    0063 'AES Encryption'
0160 0004 15 9E 89 52 Last Mod Time         52899E15 'Fri Apr  9 19:48:42 2021'
0164 0004 00 00 00 00 CRC                   00000000
0168 0004 22 01 00 00 Compressed Length     00000122
016C 0004 BE 01 00 00 Uncompressed Length   000001BE
0170 0002 09 00       Filename Length       0009
0172 0002 2F 00       Extra Length          002F
0174 0002 00 00       Comment Length        0000
0176 0002 00 00       Disk Start            0000
0178 0002 00 00       Int File Attributes   0000
                      [Bit 0]               0 'Binary Data'
017A 0004 20 80 ED 81 Ext File Attributes   81ED8020
                      [Bit 5]               Archive
017E 0004 00 00 00 00 Local Header Offset   00000000
0182 0009 6C 6F 72 65 Filename              'lorem.txt'
          6D 2E 74 78
          74
018B 0002 0A 00       Extra ID #0001        000A 'NTFS FileTimes'
018D 0002 20 00         Length              0020
018F 0004 00 00 00 00   Reserved            00000000
0193 0002 01 00         Tag1                0001
0195 0002 18 00         Size1               0018
0197 0008 80 8A 8D F5   Mtime               01D72D70F58D8A80 'Fri Apr  9 18:48:41
          70 2D D7 01                       2021 0ns'
019F 0008 00 F1 38 09   Atime               01D72D710938F100 'Fri Apr  9 18:49:14
          71 2D D7 01                       2021 0ns'
01A7 0008 80 8A 8D F5   Ctime               01D72D70F58D8A80 'Fri Apr  9 18:48:41
          70 2D D7 01                       2021 0ns'
01AF 0002 01 99       Extra ID #0002        9901 'AES Encryption'
01B1 0002 07 00         Length              0007
01B3 0002 02 00         Vendor Version      0002 'AE-2'
01B5 0002 41 45         Vendor ID           4541 'AE'
01B7 0001 02            Encryption Strength 02 '192-bit encryption key'
01B8 0002 08 00         Compression Method  0008 'Deflated'

01BA 0004 50 4B 05 06 END CENTRAL HEADER    06054B50
01BE 0002 00 00       Number of this disk   0000
01C0 0002 00 00       Central Dir Disk no   0000
01C2 0002 01 00       Entries in this disk  0001
01C4 0002 01 00       Total Entries         0001
01C6 0004 66 00 00 00 Size of Central Dir   00000066
01CA 0004 54 01 00 00 Offset to Central Dir 00000154
01CE 0002 00 00       Comment Length        0000
Done
